ARM GAS  C:\msys64\tmp\ccVa3JRi.s 			page 1


   1              		.cpu cortex-m4
   2              		.arch armv7e-m
   3              		.fpu fpv4-sp-d16
   4              		.eabi_attribute 27, 1
   5              		.eabi_attribute 28, 1
   6              		.eabi_attribute 23, 1
   7              		.eabi_attribute 24, 1
   8              		.eabi_attribute 25, 1
   9              		.eabi_attribute 26, 1
  10              		.eabi_attribute 30, 2
  11              		.eabi_attribute 34, 1
  12              		.eabi_attribute 18, 4
  13              		.file	"chcore_v7m.c"
  14              		.text
  15              	.Ltext0:
  16              		.cfi_sections	.debug_frame
  17              		.file 1 "ChibiOS/os/common/ports/ARMCMx/chcore_v7m.c"
  18              		.section	.text.SVC_Handler,"ax",%progbits
  19              		.align	1
  20              		.p2align 4,,15
  21              		.global	SVC_Handler
  22              		.syntax unified
  23              		.thumb
  24              		.thumb_func
  25              		.type	SVC_Handler, %function
  26              	SVC_Handler:
  27              	.LFB202:
  28              		.loc 1 62 24 view -0
  29              		.cfi_startproc
  30              		@ args = 0, pretend = 0, frame = 0
  31              		@ frame_needed = 1, uses_anonymous_args = 0
  32              		@ link register save eliminated.
  33              		.loc 1 64 3 view .LVU1
  34              		.loc 1 68 3 view .LVU2
  35              		.loc 1 62 24 is_stmt 0 view .LVU3
  36 0000 80B4     		push	{r7}
  37              		.cfi_def_cfa_offset 4
  38              		.cfi_offset 7, -4
  39              		.loc 1 68 6 view .LVU4
  40 0002 094A     		ldr	r2, .L4
  41 0004 536B     		ldr	r3, [r2, #52]
  42              		.loc 1 68 14 view .LVU5
  43 0006 23F00103 		bic	r3, r3, #1
  44              		.loc 1 62 24 view .LVU6
  45 000a 00AF     		add	r7, sp, #0
  46              		.cfi_def_cfa_register 7
  47              		.loc 1 68 14 view .LVU7
  48 000c 5363     		str	r3, [r2, #52]
  49              		.loc 1 72 3 is_stmt 1 view .LVU8
  50              	.LBB51:
  51              	.LBI51:
  52              		.file 2 "ChibiOS/os/common/ext/CMSIS/include/core_cmFunc.h"
  53              		.loc 2 426 61 view .LVU9
  54              	.LBB52:
  55              		.loc 2 428 3 view .LVU10
  56              		.loc 2 430 3 view .LVU11
  57              		.syntax unified
ARM GAS  C:\msys64\tmp\ccVa3JRi.s 			page 2


  58              	@ 430 "ChibiOS/os/common/ext/CMSIS/include/core_cmFunc.h" 1
  59 000e EFF30983 		MRS r3, psp
  60              	
  61              	@ 0 "" 2
  62              	.LVL0:
  63              		.loc 2 431 3 view .LVU12
  64              		.loc 2 431 3 is_stmt 0 view .LVU13
  65              		.thumb
  66              		.syntax unified
  67              	.LBE52:
  68              	.LBE51:
  69              		.loc 1 76 3 is_stmt 1 view .LVU14
  70              		.loc 1 79 3 view .LVU15
  71              	.LBB53:
  72              	.LBI53:
  73              		.loc 2 441 57 view .LVU16
  74              	.LBB54:
  75              		.loc 2 443 3 view .LVU17
  76              	.LBE54:
  77              	.LBE53:
  78              		.loc 1 76 7 is_stmt 0 view .LVU18
  79 0012 6833     		adds	r3, r3, #104
  80              	.LVL1:
  81              	.LBB56:
  82              	.LBB55:
  83              		.loc 2 443 3 view .LVU19
  84              		.syntax unified
  85              	@ 443 "ChibiOS/os/common/ext/CMSIS/include/core_cmFunc.h" 1
  86 0014 83F30988 		MSR psp, r3
  87              	
  88              	@ 0 "" 2
  89              	.LVL2:
  90              		.loc 2 443 3 view .LVU20
  91              		.thumb
  92              		.syntax unified
  93              	.LBE55:
  94              	.LBE56:
  95              		.loc 1 82 3 is_stmt 1 view .LVU21
  96              	.LBB57:
  97              	.LBI57:
  98              		.file 3 "ChibiOS/os/common/ports/ARMCMx/chcore_v7m.h"
  99              		.loc 3 654 20 view .LVU22
 100              		.loc 3 656 3 view .LVU23
 101              	.LBB58:
 102              	.LBI58:
 103              		.loc 3 628 20 view .LVU24
 104              		.loc 3 631 3 view .LVU25
 105              	.LBB59:
 106              	.LBI59:
 107              		.loc 2 546 57 view .LVU26
 108              	.LBB60:
 109              		.loc 2 548 3 view .LVU27
 110 0018 0023     		movs	r3, #0
 111              	.LVL3:
 112              		.loc 2 548 3 is_stmt 0 view .LVU28
 113              		.syntax unified
 114              	@ 548 "ChibiOS/os/common/ext/CMSIS/include/core_cmFunc.h" 1
ARM GAS  C:\msys64\tmp\ccVa3JRi.s 			page 3


 115 001a 83F31188 		MSR basepri, r3
 116              	@ 0 "" 2
 117              	.LVL4:
 118              		.loc 2 548 3 view .LVU29
 119              		.thumb
 120              		.syntax unified
 121              	.LBE60:
 122              	.LBE59:
 123              	.LBE58:
 124              	.LBE57:
 125              		.loc 1 83 1 view .LVU30
 126 001e BD46     		mov	sp, r7
 127              		.cfi_def_cfa_register 13
 128              		@ sp needed
 129 0020 5DF8047B 		ldr	r7, [sp], #4
 130              		.cfi_restore 7
 131              		.cfi_def_cfa_offset 0
 132 0024 7047     		bx	lr
 133              	.L5:
 134 0026 00BF     		.align	2
 135              	.L4:
 136 0028 00EF00E0 		.word	-536809728
 137              		.cfi_endproc
 138              	.LFE202:
 139              		.size	SVC_Handler, .-SVC_Handler
 140              		.section	.text._port_irq_epilogue,"ax",%progbits
 141              		.align	1
 142              		.p2align 4,,15
 143              		.global	_port_irq_epilogue
 144              		.syntax unified
 145              		.thumb
 146              		.thumb_func
 147              		.type	_port_irq_epilogue, %function
 148              	_port_irq_epilogue:
 149              	.LFB203:
 150              		.loc 1 122 31 is_stmt 1 view -0
 151              		.cfi_startproc
 152              		@ args = 0, pretend = 0, frame = 0
 153              		@ frame_needed = 1, uses_anonymous_args = 0
 154              		.loc 1 124 3 view .LVU32
 155              	.LBB61:
 156              	.LBI61:
 157              		.loc 3 643 20 view .LVU33
 158              		.loc 3 645 3 view .LVU34
 159              	.LBB62:
 160              	.LBI62:
 161              		.loc 3 604 20 view .LVU35
 162              		.loc 3 612 3 view .LVU36
 163              	.LVL5:
 164              	.LBB63:
 165              	.LBI63:
 166              		.loc 2 546 57 view .LVU37
 167              	.LBB64:
 168              		.loc 2 548 3 view .LVU38
 169              	.LBE64:
 170              	.LBE63:
 171              	.LBE62:
ARM GAS  C:\msys64\tmp\ccVa3JRi.s 			page 4


 172              	.LBE61:
 173              		.loc 1 122 31 is_stmt 0 view .LVU39
 174 0000 98B5     		push	{r3, r4, r7, lr}
 175              		.cfi_def_cfa_offset 16
 176              		.cfi_offset 3, -16
 177              		.cfi_offset 4, -12
 178              		.cfi_offset 7, -8
 179              		.cfi_offset 14, -4
 180              	.LBB71:
 181              	.LBB69:
 182              	.LBB67:
 183              	.LBB65:
 184              		.loc 2 548 3 view .LVU40
 185 0002 2023     		movs	r3, #32
 186              	.LBE65:
 187              	.LBE67:
 188              	.LBE69:
 189              	.LBE71:
 190              		.loc 1 122 31 view .LVU41
 191 0004 00AF     		add	r7, sp, #0
 192              		.cfi_def_cfa_register 7
 193              	.LBB72:
 194              	.LBB70:
 195              	.LBB68:
 196              	.LBB66:
 197              		.loc 2 548 3 view .LVU42
 198              		.syntax unified
 199              	@ 548 "ChibiOS/os/common/ext/CMSIS/include/core_cmFunc.h" 1
 200 0006 83F31188 		MSR basepri, r3
 201              	@ 0 "" 2
 202              	.LVL6:
 203              		.loc 2 548 3 view .LVU43
 204              		.thumb
 205              		.syntax unified
 206              	.LBE66:
 207              	.LBE68:
 208              	.LBE70:
 209              	.LBE72:
 210              		.loc 1 125 3 is_stmt 1 view .LVU44
 211              		.loc 1 125 11 is_stmt 0 view .LVU45
 212 000a 114B     		ldr	r3, .L12
 213 000c 5B68     		ldr	r3, [r3, #4]
 214              		.loc 1 125 6 view .LVU46
 215 000e 13F40063 		ands	r3, r3, #2048
 216 0012 02D1     		bne	.L11
 217              		.loc 1 165 3 is_stmt 1 view .LVU47
 218              	.LBB73:
 219              	.LBI73:
 220              		.loc 3 654 20 view .LVU48
 221              	.LBB74:
 222              		.loc 3 656 3 view .LVU49
 223              	.LBB75:
 224              	.LBI75:
 225              		.loc 3 628 20 view .LVU50
 226              		.loc 3 631 3 view .LVU51
 227              	.LVL7:
 228              	.LBB76:
ARM GAS  C:\msys64\tmp\ccVa3JRi.s 			page 5


 229              	.LBI76:
 230              		.loc 2 546 57 view .LVU52
 231              	.LBB77:
 232              		.loc 2 548 3 view .LVU53
 233              		.syntax unified
 234              	@ 548 "ChibiOS/os/common/ext/CMSIS/include/core_cmFunc.h" 1
 235 0014 83F31188 		MSR basepri, r3
 236              	@ 0 "" 2
 237              	.LVL8:
 238              		.loc 2 548 3 is_stmt 0 view .LVU54
 239              		.thumb
 240              		.syntax unified
 241              	.LBE77:
 242              	.LBE76:
 243              	.LBE75:
 244              	.LBE74:
 245              	.LBE73:
 246              		.loc 1 166 1 view .LVU55
 247 0018 98BD     		pop	{r3, r4, r7, pc}
 248              	.L11:
 249              	.LBB78:
 250              		.loc 1 126 5 is_stmt 1 view .LVU56
 251              		.loc 1 130 7 view .LVU57
 252              	.LBB79:
 253              	.LBI79:
 254              		.loc 2 602 61 view .LVU58
 255              	.LBB80:
 256              		.loc 2 605 3 view .LVU59
 257              		.loc 2 608 3 view .LVU60
 258              		.loc 2 609 3 view .LVU61
 259              		.syntax unified
 260              	@ 609 "ChibiOS/os/common/ext/CMSIS/include/core_cmFunc.h" 1
 261 001a F1EE103A 		VMRS r3, fpscr
 262              	@ 0 "" 2
 263              	.LVL9:
 264              		.loc 2 610 3 view .LVU62
 265              		.loc 2 611 3 view .LVU63
 266              	.LVL10:
 267              		.loc 2 611 3 is_stmt 0 view .LVU64
 268              		.thumb
 269              		.syntax unified
 270              	.LBE80:
 271              	.LBE79:
 272              		.loc 1 134 5 is_stmt 1 view .LVU65
 273              	.LBB81:
 274              	.LBI81:
 275              		.loc 2 426 61 view .LVU66
 276              	.LBB82:
 277              		.loc 2 428 3 view .LVU67
 278              		.loc 2 430 3 view .LVU68
 279              		.syntax unified
 280              	@ 430 "ChibiOS/os/common/ext/CMSIS/include/core_cmFunc.h" 1
 281 001e EFF30984 		MRS r4, psp
 282              	
 283              	@ 0 "" 2
 284              	.LVL11:
 285              		.loc 2 431 3 view .LVU69
ARM GAS  C:\msys64\tmp\ccVa3JRi.s 			page 6


 286              		.loc 2 431 3 is_stmt 0 view .LVU70
 287              		.thumb
 288              		.syntax unified
 289              	.LBE82:
 290              	.LBE81:
 291              		.loc 1 138 5 is_stmt 1 view .LVU71
 292              		.loc 1 141 5 view .LVU72
 293              		.loc 1 143 32 is_stmt 0 view .LVU73
 294 0022 0C4B     		ldr	r3, .L12+4
 295              		.loc 1 141 16 view .LVU74
 296 0024 4FF08072 		mov	r2, #16777216
 297              		.loc 1 143 32 view .LVU75
 298 0028 DB6B     		ldr	r3, [r3, #60]
 299              		.loc 1 143 17 view .LVU76
 300 002a 44F8083C 		str	r3, [r4, #-8]
 301              		.loc 1 141 16 view .LVU77
 302 002e 44F84C2C 		str	r2, [r4, #-76]
 303              		.loc 1 143 5 is_stmt 1 view .LVU78
 304              		.loc 1 147 5 view .LVU79
 305              	.LVL12:
 306              	.LBB83:
 307              	.LBI83:
 308              		.loc 2 441 57 view .LVU80
 309              	.LBB84:
 310              		.loc 2 443 3 view .LVU81
 311              	.LBE84:
 312              	.LBE83:
 313              		.loc 1 138 9 is_stmt 0 view .LVU82
 314 0032 A4F16803 		sub	r3, r4, #104
 315              	.LVL13:
 316              	.LBB86:
 317              	.LBB85:
 318              		.loc 2 443 3 view .LVU83
 319              		.syntax unified
 320              	@ 443 "ChibiOS/os/common/ext/CMSIS/include/core_cmFunc.h" 1
 321 0036 83F30988 		MSR psp, r3
 322              	
 323              	@ 0 "" 2
 324              	.LVL14:
 325              		.loc 2 443 3 view .LVU84
 326              		.thumb
 327              		.syntax unified
 328              	.LBE85:
 329              	.LBE86:
 330              		.loc 1 151 5 is_stmt 1 view .LVU85
 331              		.loc 1 151 9 is_stmt 0 view .LVU86
 332 003a FFF7FEFF 		bl	chSchIsPreemptionRequired
 333              	.LVL15:
 334              		.loc 1 151 8 discriminator 1 view .LVU87
 335 003e 18B1     		cbz	r0, .L8
 336              		.loc 1 153 7 is_stmt 1 view .LVU88
 337              		.loc 1 153 16 is_stmt 0 view .LVU89
 338 0040 054B     		ldr	r3, .L12+8
 339 0042 44F8503C 		str	r3, [r4, #-80]
 340              	.LBE78:
 341              		.loc 1 166 1 view .LVU90
 342 0046 98BD     		pop	{r3, r4, r7, pc}
ARM GAS  C:\msys64\tmp\ccVa3JRi.s 			page 7


 343              	.LVL16:
 344              	.L8:
 345              	.LBB87:
 346              		.loc 1 158 7 is_stmt 1 view .LVU91
 347              		.loc 1 158 16 is_stmt 0 view .LVU92
 348 0048 044B     		ldr	r3, .L12+12
 349 004a 44F8503C 		str	r3, [r4, #-80]
 350              	.LBE87:
 351              		.loc 1 166 1 view .LVU93
 352 004e 98BD     		pop	{r3, r4, r7, pc}
 353              	.LVL17:
 354              	.L13:
 355              		.loc 1 166 1 view .LVU94
 356              		.align	2
 357              	.L12:
 358 0050 00ED00E0 		.word	-536810240
 359 0054 00EF00E0 		.word	-536809728
 360 0058 00000000 		.word	_port_switch_from_isr
 361 005c 00000000 		.word	_port_exit_from_isr
 362              		.cfi_endproc
 363              	.LFE203:
 364              		.size	_port_irq_epilogue, .-_port_irq_epilogue
 365              		.text
 366              	.Letext0:
 367              		.file 4 "C:/Program Files (x86)/Arm GNU Toolchain arm-none-eabi/14.3 rel1/arm-none-eabi/include/ma
 368              		.file 5 "C:/Program Files (x86)/Arm GNU Toolchain arm-none-eabi/14.3 rel1/arm-none-eabi/include/sy
 369              		.file 6 "ChibiOS/os/common/ext/CMSIS/include/core_cm4.h"
 370              		.file 7 "ChibiOS/os/common/ports/ARMCMx/chcore.h"
 371              		.file 8 "ChibiOS/os/rt/include/chschd.h"