ARM GAS  C:\msys64\tmp\cc0CzZPe.s 			page 1


   1              		.cpu cortex-m4
   2              		.arch armv7e-m
   3              		.fpu fpv4-sp-d16
   4              		.eabi_attribute 27, 1
   5              		.eabi_attribute 28, 1
   6              		.eabi_attribute 23, 1
   7              		.eabi_attribute 24, 1
   8              		.eabi_attribute 25, 1
   9              		.eabi_attribute 26, 1
  10              		.eabi_attribute 30, 2
  11              		.eabi_attribute 34, 1
  12              		.eabi_attribute 18, 4
  13              		.file	"chprintf.c"
  14              		.text
  15              	.Ltext0:
  16              		.cfi_sections	.debug_frame
  17              		.file 1 "chprintf.c"
  18              		.section	.text.long_to_string_with_divisor,"ax",%progbits
  19              		.align	1
  20              		.p2align 4,,15
  21              		.syntax unified
  22              		.thumb
  23              		.thumb_func
  24              		.type	long_to_string_with_divisor, %function
  25              	long_to_string_with_divisor:
  26              	.LVL0:
  27              	.LFB240:
  28              		.loc 1 82 62 view -0
  29              		.cfi_startproc
  30              		@ args = 0, pretend = 0, frame = 0
  31              		@ frame_needed = 0, uses_anonymous_args = 0
  32              		.loc 1 83 3 view .LVU1
  33              		.loc 1 82 62 is_stmt 0 view .LVU2
  34 0000 F0B5     		push	{r4, r5, r6, r7, lr}
  35              		.cfi_def_cfa_offset 20
  36              		.cfi_offset 4, -20
  37              		.cfi_offset 5, -16
  38              		.cfi_offset 6, -12
  39              		.cfi_offset 7, -8
  40              		.cfi_offset 14, -4
  41              	.LBB2:
  42              		.loc 1 87 21 view .LVU3
  43 0002 B1FBF2FE 		udiv	lr, r1, r2
  44 0006 02FB1E14 		mls	r4, r2, lr, r1
  45              		.loc 1 89 14 discriminator 2 view .LVU4
  46 000a 092C     		cmp	r4, #9
  47 000c 8CBF     		ite	hi
  48 000e 3725     		movhi	r5, #55
  49 0010 3025     		movls	r5, #48
  50              		.loc 1 89 14 discriminator 4 view .LVU5
  51 0012 55FA84F4 		uxtab	r4, r5, r4
  52              	.LBE2:
  53              		.loc 1 83 9 view .LVU6
  54 0016 00F10B06 		add	r6, r0, #11
  55              	.LVL1:
  56              		.loc 1 84 3 is_stmt 1 view .LVU7
  57              		.loc 1 86 3 view .LVU8
ARM GAS  C:\msys64\tmp\cc0CzZPe.s 			page 2


  58              	.LBB3:
  59              		.loc 1 87 5 view .LVU9
  60              		.loc 1 88 5 view .LVU10
  61              		.loc 1 89 5 view .LVU11
  62              		.loc 1 89 10 is_stmt 0 discriminator 4 view .LVU12
  63 001a 8472     		strb	r4, [r0, #10]
  64 001c 00F10A0C 		add	ip, r0, #10
  65              	.LVL2:
  66              		.loc 1 89 10 discriminator 4 view .LVU13
  67              	.LBE3:
  68              		.loc 1 90 37 is_stmt 1 view .LVU14
  69 0020 3BB3     		cbz	r3, .L9
  70              	.LVL3:
  71              		.loc 1 90 21 is_stmt 0 discriminator 1 view .LVU15
  72 0022 013B     		subs	r3, r3, #1
  73              	.LVL4:
  74              		.loc 1 86 3 is_stmt 1 view .LVU16
  75              	.LBB4:
  76              		.loc 1 87 5 view .LVU17
  77              	.LBE4:
  78              		.loc 1 90 21 is_stmt 0 discriminator 1 view .LVU18
  79 0024 25D0     		beq	.L9
  80              	.L10:
  81              	.LVL5:
  82              	.LBB5:
  83              		.loc 1 87 21 view .LVU19
  84 0026 BEFBF2F7 		udiv	r7, lr, r2
  85 002a 02FB17E5 		mls	r5, r2, r7, lr
  86              		.loc 1 87 13 view .LVU20
  87 002e ECB2     		uxtb	r4, r5
  88              	.LVL6:
  89              		.loc 1 88 5 is_stmt 1 view .LVU21
  90              		.loc 1 89 14 is_stmt 0 view .LVU22
  91 0030 092D     		cmp	r5, #9
  92              		.loc 1 89 14 discriminator 4 view .LVU23
  93 0032 04F13005 		add	r5, r4, #48
  94 0036 04F13704 		add	r4, r4, #55
  95              	.LVL7:
  96              		.loc 1 89 10 discriminator 4 view .LVU24
  97 003a 94BF     		ite	ls
  98 003c 0CF8015D 		strbls	r5, [ip, #-1]!
  99              	.LVL8:
 100              		.loc 1 89 10 discriminator 4 view .LVU25
 101 0040 0CF8014D 		strbhi	r4, [ip, #-1]!
 102              	.LBE5:
 103              		.loc 1 90 21 discriminator 1 view .LVU26
 104 0044 013B     		subs	r3, r3, #1
 105              	.LVL9:
 106              	.LBB6:
 107              		.loc 1 87 21 view .LVU27
 108 0046 7146     		mov	r1, lr
 109              		.loc 1 88 9 view .LVU28
 110 0048 BE46     		mov	lr, r7
 111              	.LVL10:
 112              		.loc 1 89 5 is_stmt 1 view .LVU29
 113              	.LBE6:
 114              		.loc 1 90 37 view .LVU30
ARM GAS  C:\msys64\tmp\cc0CzZPe.s 			page 3


 115              		.loc 1 90 37 view .LVU31
 116              		.loc 1 86 3 view .LVU32
 117              	.LBB7:
 118              		.loc 1 87 5 view .LVU33
 119              	.LBE7:
 120              		.loc 1 90 21 is_stmt 0 discriminator 1 view .LVU34
 121 004a ECD1     		bne	.L10
 122              	.LVL11:
 123              		.loc 1 86 3 is_stmt 1 view .LVU35
 124              	.LBB8:
 125              		.loc 1 87 5 view .LVU36
 126              		.loc 1 87 5 is_stmt 0 view .LVU37
 127              	.LBE8:
 128              		.loc 1 90 37 discriminator 3 view .LVU38
 129 004c 8A42     		cmp	r2, r1
 130              	.LBB9:
 131              		.loc 1 87 21 view .LVU39
 132 004e 7146     		mov	r1, lr
 133              	.LBE9:
 134              		.loc 1 90 37 discriminator 3 view .LVU40
 135 0050 12D8     		bhi	.L18
 136              	.LVL12:
 137              	.L12:
 138              	.LBB10:
 139              		.loc 1 87 21 view .LVU41
 140 0052 BEFBF2F5 		udiv	r5, lr, r2
 141 0056 02FB15E4 		mls	r4, r2, r5, lr
 142              		.loc 1 87 13 view .LVU42
 143 005a E3B2     		uxtb	r3, r4
 144              	.LVL13:
 145              		.loc 1 88 5 is_stmt 1 view .LVU43
 146              		.loc 1 89 14 is_stmt 0 view .LVU44
 147 005c 092C     		cmp	r4, #9
 148              		.loc 1 89 14 discriminator 4 view .LVU45
 149 005e 03F13704 		add	r4, r3, #55
 150 0062 03F13003 		add	r3, r3, #48
 151              	.LVL14:
 152              		.loc 1 89 10 discriminator 4 view .LVU46
 153 0066 8CBF     		ite	hi
 154 0068 0CF8014D 		strbhi	r4, [ip, #-1]!
 155 006c 0CF8013D 		strbls	r3, [ip, #-1]!
 156              		.loc 1 88 9 view .LVU47
 157 0070 AE46     		mov	lr, r5
 158              	.LVL15:
 159              		.loc 1 89 5 is_stmt 1 view .LVU48
 160              	.LBE10:
 161              		.loc 1 90 37 view .LVU49
 162              		.loc 1 90 37 view .LVU50
 163              	.L9:
 164              		.loc 1 86 3 view .LVU51
 165              	.LBB11:
 166              		.loc 1 87 5 view .LVU52
 167              		.loc 1 87 5 is_stmt 0 view .LVU53
 168              	.LBE11:
 169              		.loc 1 90 37 discriminator 3 view .LVU54
 170 0072 8A42     		cmp	r2, r1
 171              	.LBB12:
ARM GAS  C:\msys64\tmp\cc0CzZPe.s 			page 4


 172              		.loc 1 87 21 view .LVU55
 173 0074 7146     		mov	r1, lr
 174              	.LBE12:
 175              		.loc 1 90 37 discriminator 3 view .LVU56
 176 0076 ECD9     		bls	.L12
 177              	.LVL16:
 178              	.L18:
 179              		.loc 1 92 3 is_stmt 1 view .LVU57
 180              		.loc 1 92 3 is_stmt 0 view .LVU58
 181 0078 431E     		subs	r3, r0, #1
 182              		.loc 1 92 7 view .LVU59
 183 007a A6EB0C01 		sub	r1, r6, ip
 184              	.LVL17:
 185              	.L13:
 186              		.loc 1 93 3 is_stmt 1 view .LVU60
 187              		.loc 1 94 5 view .LVU61
 188              		.loc 1 94 12 is_stmt 0 view .LVU62
 189 007e 1CF8012B 		ldrb	r2, [ip], #1	@ zero_extendqisi2
 190              	.LVL18:
 191              		.loc 1 94 10 view .LVU63
 192 0082 03F8012F 		strb	r2, [r3, #1]!
 193              		.loc 1 95 10 is_stmt 1 discriminator 1 view .LVU64
 194              		.loc 1 95 10 is_stmt 0 discriminator 1 view .LVU65
 195 0086 6645     		cmp	r6, ip
 196 0088 F9D1     		bne	.L13
 197              		.loc 1 96 3 is_stmt 1 view .LVU66
 198              		.loc 1 97 1 is_stmt 0 view .LVU67
 199 008a 0844     		add	r0, r0, r1
 200 008c F0BD     		pop	{r4, r5, r6, r7, pc}
 201              		.loc 1 97 1 view .LVU68
 202              		.cfi_endproc
 203              	.LFE240:
 204              		.size	long_to_string_with_divisor, .-long_to_string_with_divisor
 205 008e 00BF     		.section	.text.ftoa,"ax",%progbits
 206              		.align	1
 207              		.p2align 4,,15
 208              		.syntax unified
 209              		.thumb
 210              		.thumb_func
 211              		.type	ftoa, %function
 212              	ftoa:
 213              	.LVL19:
 214              	.LFB242:
 215              		.loc 1 177 54 is_stmt 1 view -0
 216              		.cfi_startproc
 217              		@ args = 0, pretend = 0, frame = 0
 218              		@ frame_needed = 0, uses_anonymous_args = 0
 219              		.loc 1 179 3 view .LVU70
 220              		.loc 1 179 6 is_stmt 0 view .LVU71
 221 0000 0929     		cmp	r1, #9
 222              		.loc 1 177 54 view .LVU72
 223 0002 70B5     		push	{r4, r5, r6, lr}
 224              		.cfi_def_cfa_offset 16
 225              		.cfi_offset 4, -16
 226              		.cfi_offset 5, -12
 227              		.cfi_offset 6, -8
 228              		.cfi_offset 14, -4
ARM GAS  C:\msys64\tmp\cc0CzZPe.s 			page 5


 229              		.loc 1 182 12 view .LVU73
 230 0004 FCEEC07A 		vcvt.u32.f32	s15, s0
 231              		.loc 1 179 6 view .LVU74
 232 0008 0E46     		mov	r6, r1
 233              		.loc 1 181 12 view .LVU75
 234 000a 1B4B     		ldr	r3, .L25
 235              		.loc 1 179 6 view .LVU76
 236 000c A8BF     		it	ge
 237 000e 0926     		movge	r6, #9
 238              	.LVL20:
 239              		.loc 1 181 3 is_stmt 1 view .LVU77
 240              		.loc 1 184 21 is_stmt 0 view .LVU78
 241 0010 B8EE677A 		vcvt.f32.u32	s14, s15
 242              		.loc 1 181 12 view .LVU79
 243 0014 53F82630 		ldr	r3, [r3, r6, lsl #2]
 244              	.LVL21:
 245              		.loc 1 182 3 is_stmt 1 view .LVU80
 246              		.loc 1 184 3 view .LVU81
 247              		.loc 1 184 21 is_stmt 0 view .LVU82
 248 0018 30EE470A 		vsub.f32	s0, s0, s14
 249              	.LVL22:
 250              		.loc 1 184 24 view .LVU83
 251 001c 07EE103A 		vmov	s14, r3	@ int
 252 0020 F8EE476A 		vcvt.f32.u32	s13, s14
 253              		.loc 1 184 30 view .LVU84
 254 0024 B6EE007A 		vmov.f32	s14, #5.0e-1
 255 0028 A0EE267A 		vfma.f32	s14, s0, s13
 256              		.loc 1 177 54 view .LVU85
 257 002c 0D46     		mov	r5, r1
 258              		.loc 1 184 12 view .LVU86
 259 002e BCEEC77A 		vcvt.u32.f32	s14, s14
 260 0032 17EE104A 		vmov	r4, s14	@ int
 261              	.LVL23:
 262              		.loc 1 186 3 is_stmt 1 view .LVU87
 263              		.loc 1 186 6 is_stmt 0 view .LVU88
 264 0036 A342     		cmp	r3, r4
 265 0038 05D8     		bhi	.L20
 266              		.loc 1 186 17 is_stmt 1 discriminator 1 view .LVU89
 267              		.loc 1 186 18 is_stmt 0 discriminator 1 view .LVU90
 268 003a E41A     		subs	r4, r4, r3
 269              	.LVL24:
 270              		.loc 1 186 26 is_stmt 1 view .LVU91
 271              		.loc 1 186 27 is_stmt 0 discriminator 1 view .LVU92
 272 003c 17EE903A 		vmov	r3, s15	@ int
 273              	.LVL25:
 274              		.loc 1 186 27 discriminator 1 view .LVU93
 275 0040 0133     		adds	r3, r3, #1
 276 0042 07EE903A 		vmov	s15, r3	@ int
 277              	.LVL26:
 278              	.L20:
 279              		.loc 1 187 3 is_stmt 1 view .LVU94
 280              		.loc 1 187 7 is_stmt 0 view .LVU95
 281 0046 17EE901A 		vmov	r1, s15	@ int
 282 004a 0023     		movs	r3, #0
 283 004c 0A22     		movs	r2, #10
 284 004e FFF7FEFF 		bl	long_to_string_with_divisor
 285              	.LVL27:
ARM GAS  C:\msys64\tmp\cc0CzZPe.s 			page 6


 286              		.loc 1 188 3 is_stmt 1 view .LVU96
 287              		.loc 1 188 6 is_stmt 0 view .LVU97
 288 0052 7DB1     		cbz	r5, .L19
 289              		.loc 1 189 5 is_stmt 1 view .LVU98
 290              		.loc 1 189 12 is_stmt 0 view .LVU99
 291 0054 094A     		ldr	r2, .L25+4
 292              	.LVL28:
 293              		.loc 1 189 10 view .LVU100
 294 0056 928A     		ldrh	r2, [r2, #20]
 295              		.loc 1 189 10 discriminator 1 view .LVU101
 296 0058 12F0400F 		tst	r2, #64
 297 005c 0CBF     		ite	eq
 298 005e 2E22     		moveq	r2, #46
 299 0060 2C22     		movne	r2, #44
 300              		.loc 1 189 10 discriminator 4 view .LVU102
 301 0062 00F8012B 		strb	r2, [r0], #1
 302              	.LVL29:
 303              		.loc 1 190 5 is_stmt 1 view .LVU103
 304              		.loc 1 190 7 is_stmt 0 view .LVU104
 305 0066 3346     		mov	r3, r6
 306 0068 2146     		mov	r1, r4
 307 006a 0A22     		movs	r2, #10
 308              		.loc 1 193 1 view .LVU105
 309 006c BDE87040 		pop	{r4, r5, r6, lr}
 310              		.cfi_remember_state
 311              		.cfi_restore 14
 312              		.cfi_restore 6
 313              		.cfi_restore 5
 314              		.cfi_restore 4
 315              		.cfi_def_cfa_offset 0
 316              	.LVL30:
 317              		.loc 1 190 7 view .LVU106
 318 0070 FFF7FEBF 		b	long_to_string_with_divisor
 319              	.LVL31:
 320              	.L19:
 321              		.cfi_restore_state
 322              		.loc 1 193 1 view .LVU107
 323 0074 70BD     		pop	{r4, r5, r6, pc}
 324              	.LVL32:
 325              	.L26:
 326              		.loc 1 193 1 view .LVU108
 327 0076 00BF     		.align	2
 328              	.L25:
 329 0078 00000000 		.word	pow10
 330 007c 00000000 		.word	config
 331              		.cfi_endproc
 332              	.LFE242:
 333              		.size	ftoa, .-ftoa
 334              		.section	.text.put,"ax",%progbits
 335              		.align	1
 336              		.p2align 4,,15
 337              		.syntax unified
 338              		.thumb
 339              		.thumb_func
 340              		.type	put, %function
 341              	put:
 342              	.LVL33:
ARM GAS  C:\msys64\tmp\cc0CzZPe.s 			page 7


 343              	.LFB245:
 344              		.loc 1 611 39 is_stmt 1 view -0
 345              		.cfi_startproc
 346              		@ args = 0, pretend = 0, frame = 0
 347              		@ frame_needed = 0, uses_anonymous_args = 0
 348              		@ link register save eliminated.
 349              		.loc 1 612 3 view .LVU110
 350              		.loc 1 613 3 view .LVU111
 351              		.loc 1 613 6 is_stmt 0 view .LVU112
 352 0000 0389     		ldrh	r3, [r0, #8]
 353 0002 012B     		cmp	r3, #1
 354 0004 06D9     		bls	.L28
 355              		.loc 1 614 4 is_stmt 1 view .LVU113
 356              		.loc 1 614 8 is_stmt 0 view .LVU114
 357 0006 4368     		ldr	r3, [r0, #4]
 358              		.loc 1 614 16 view .LVU115
 359 0008 5A1C     		adds	r2, r3, #1
 360 000a 4260     		str	r2, [r0, #4]
 361              		.loc 1 614 20 view .LVU116
 362 000c 1970     		strb	r1, [r3]
 363              		.loc 1 615 4 is_stmt 1 view .LVU117
 364              		.loc 1 615 12 is_stmt 0 view .LVU118
 365 000e 0389     		ldrh	r3, [r0, #8]
 366 0010 013B     		subs	r3, r3, #1
 367 0012 0381     		strh	r3, [r0, #8]	@ movhi
 368              	.L28:
 369              		.loc 1 617 3 is_stmt 1 view .LVU119
 370              		.loc 1 618 1 is_stmt 0 view .LVU120
 371 0014 0020     		movs	r0, #0
 372              	.LVL34:
 373              		.loc 1 618 1 view .LVU121
 374 0016 7047     		bx	lr
 375              		.cfi_endproc
 376              	.LFE245:
 377              		.size	put, .-put
 378              		.section	.rodata.chvprintf.str1.4,"aMS",%progbits,1
 379              		.align	2
 380              	.LC0:
 381 0000 286E756C 		.ascii	"(null)\000"
 381      6C2900
 382              		.section	.text.chvprintf,"ax",%progbits
 383              		.align	1
 384              		.p2align 4,,15
 385              		.global	chvprintf
 386              		.syntax unified
 387              		.thumb
 388              		.thumb_func
 389              		.type	chvprintf, %function
 390              	chvprintf:
 391              	.LVL35:
 392              	.LFB244:
 393              		.loc 1 269 71 is_stmt 1 view -0
 394              		.cfi_startproc
 395              		@ args = 0, pretend = 0, frame = 40
 396              		@ frame_needed = 0, uses_anonymous_args = 0
 397              		.loc 1 269 71 is_stmt 0 view .LVU123
 398 0000 2DE9F04F 		push	{r4, r5, r6, r7, r8, r9, r10, fp, lr}
ARM GAS  C:\msys64\tmp\cc0CzZPe.s 			page 8


 399              		.cfi_def_cfa_offset 36
 400              		.cfi_offset 4, -36
 401              		.cfi_offset 5, -32
 402              		.cfi_offset 6, -28
 403              		.cfi_offset 7, -24
 404              		.cfi_offset 8, -20
 405              		.cfi_offset 9, -16
 406              		.cfi_offset 10, -12
 407              		.cfi_offset 11, -8
 408              		.cfi_offset 14, -4
 409 0004 2DED028B 		vpush.64	{d8}
 410              		.cfi_def_cfa_offset 44
 411              		.cfi_offset 80, -44
 412              		.cfi_offset 81, -40
 413              		.loc 1 286 13 view .LVU124
 414 0008 0C46     		mov	r4, r1
 415              		.loc 1 269 71 view .LVU125
 416 000a 8BB0     		sub	sp, sp, #44
 417              		.cfi_def_cfa_offset 88
 418              		.loc 1 286 7 view .LVU126
 419 000c 14F8011B 		ldrb	r1, [r4], #1	@ zero_extendqisi2
 420              	.LVL36:
 421              		.loc 1 270 3 is_stmt 1 view .LVU127
 422              		.loc 1 271 3 view .LVU128
 423              		.loc 1 272 3 view .LVU129
 424              		.loc 1 273 3 view .LVU130
 425              		.loc 1 274 3 view .LVU131
 426              		.loc 1 280 3 view .LVU132
 427              		.loc 1 285 3 view .LVU133
 428              		.loc 1 286 5 view .LVU134
 429              		.loc 1 287 5 view .LVU135
 430              		.loc 1 287 8 is_stmt 0 view .LVU136
 431 0010 0029     		cmp	r1, #0
 432 0012 00F09C82 		beq	.L142
 433 0016 9146     		mov	r9, r2
 434              	.LVL37:
 435              		.loc 1 272 7 view .LVU137
 436 0018 0023     		movs	r3, #0
 437              		.loc 1 270 19 view .LVU138
 438 001a 2022     		movs	r2, #32
 439              	.LVL38:
 440              		.loc 1 270 19 view .LVU139
 441 001c 0646     		mov	r6, r0
 442 001e 9346     		mov	fp, r2
 443 0020 9A46     		mov	r10, r3
 444 0022 0AE0     		b	.L31
 445              	.LVL39:
 446              	.L32:
 447              		.loc 1 290 7 is_stmt 1 view .LVU140
 448 0024 3368     		ldr	r3, [r6]
 449 0026 3046     		mov	r0, r6
 450 0028 9B68     		ldr	r3, [r3, #8]
 451 002a 9847     		blx	r3
 452              	.LVL40:
 453              		.loc 1 291 7 view .LVU141
 454              		.loc 1 291 8 is_stmt 0 view .LVU142
 455 002c 0AF1010A 		add	r10, r10, #1
ARM GAS  C:\msys64\tmp\cc0CzZPe.s 			page 9


 456              	.LVL41:
 457              		.loc 1 292 7 is_stmt 1 view .LVU143
 458              	.L34:
 459              		.loc 1 273 3 view .LVU144
 460              		.loc 1 274 3 view .LVU145
 461              		.loc 1 280 3 view .LVU146
 462              		.loc 1 285 3 view .LVU147
 463              		.loc 1 286 5 view .LVU148
 464              		.loc 1 286 7 is_stmt 0 view .LVU149
 465 0030 14F8011B 		ldrb	r1, [r4], #1	@ zero_extendqisi2
 466              	.LVL42:
 467              		.loc 1 287 5 is_stmt 1 view .LVU150
 468              		.loc 1 287 8 is_stmt 0 view .LVU151
 469 0034 0029     		cmp	r1, #0
 470 0036 00F08980 		beq	.L228
 471              	.LVL43:
 472              	.L31:
 473              		.loc 1 289 5 is_stmt 1 view .LVU152
 474              		.loc 1 289 8 is_stmt 0 view .LVU153
 475 003a 2529     		cmp	r1, #37
 476 003c F2D1     		bne	.L32
 477              		.loc 1 289 8 view .LVU154
 478 003e 2346     		mov	r3, r4
 479              		.loc 1 297 11 view .LVU155
 480 0040 4FF00008 		mov	r8, #0
 481              	.LVL44:
 482              	.L33:
 483              		.loc 1 297 11 view .LVU156
 484 0044 1C46     		mov	r4, r3
 485              	.LVL45:
 486              		.loc 1 307 5 is_stmt 1 view .LVU157
 487              		.loc 1 308 7 view .LVU158
 488              		.loc 1 308 11 is_stmt 0 view .LVU159
 489 0046 13F8012B 		ldrb	r2, [r3], #1	@ zero_extendqisi2
 490              	.LVL46:
 491              		.loc 1 308 11 view .LVU160
 492 004a 302A     		cmp	r2, #48
 493 004c 6BD8     		bhi	.L35
 494              	.LVL47:
 495              	.L231:
 496              		.loc 1 308 11 view .LVU161
 497 004e 1F2A     		cmp	r2, #31
 498 0050 0DD9     		bls	.L144
 499 0052 203A     		subs	r2, r2, #32
 500 0054 102A     		cmp	r2, #16
 501 0056 0AD8     		bhi	.L144
 502 0058 DFE802F0 		tbb	[pc, r2]
 503              	.L38:
 504 005c 72       		.byte	(.L41-.L38)/2
 505 005d 09       		.byte	(.L144-.L38)/2
 506 005e 09       		.byte	(.L144-.L38)/2
 507 005f 09       		.byte	(.L144-.L38)/2
 508 0060 09       		.byte	(.L144-.L38)/2
 509 0061 09       		.byte	(.L144-.L38)/2
 510 0062 09       		.byte	(.L144-.L38)/2
 511 0063 09       		.byte	(.L144-.L38)/2
 512 0064 09       		.byte	(.L144-.L38)/2
ARM GAS  C:\msys64\tmp\cc0CzZPe.s 			page 10


 513 0065 09       		.byte	(.L144-.L38)/2
 514 0066 09       		.byte	(.L144-.L38)/2
 515 0067 6F       		.byte	(.L40-.L38)/2
 516 0068 09       		.byte	(.L144-.L38)/2
 517 0069 6C       		.byte	(.L39-.L38)/2
 518 006a 09       		.byte	(.L144-.L38)/2
 519 006b 09       		.byte	(.L144-.L38)/2
 520 006c 5E       		.byte	(.L37-.L38)/2
 521 006d 00       		.p2align 1
 522              	.L144:
 523              		.loc 1 308 11 view .LVU162
 524 006e 0025     		movs	r5, #0
 525 0070 05E0     		b	.L47
 526              	.LVL48:
 527              	.L229:
 528              		.loc 1 333 11 discriminator 1 view .LVU163
 529 0072 51F8042B 		ldr	r2, [r1], #4
 530              	.LVL49:
 531              		.loc 1 333 11 discriminator 1 view .LVU164
 532 0076 D2B2     		uxtb	r2, r2
 533              	.LVL50:
 534              		.loc 1 333 13 view .LVU165
 535 0078 8946     		mov	r9, r1
 536              	.LVL51:
 537              	.L45:
 538              		.loc 1 336 7 is_stmt 1 view .LVU166
 539              		.loc 1 336 13 is_stmt 0 view .LVU167
 540 007a 02EB4005 		add	r5, r2, r0, lsl #1
 541              	.LVL52:
 542              		.loc 1 328 11 is_stmt 1 view .LVU168
 543              	.L47:
 544              		.loc 1 328 5 view .LVU169
 545              		.loc 1 329 7 view .LVU170
 546              		.loc 1 332 12 view .LVU171
 547              		.loc 1 333 9 view .LVU172
 548              		.loc 1 329 9 is_stmt 0 view .LVU173
 549 007e 14F8013B 		ldrb	r3, [r4], #1	@ zero_extendqisi2
 550              	.LVL53:
 551              		.loc 1 330 7 is_stmt 1 view .LVU174
 552              		.loc 1 330 20 is_stmt 0 view .LVU175
 553 0082 A3F13002 		sub	r2, r3, #48
 554 0086 D2B2     		uxtb	r2, r2
 555              		.loc 1 330 10 view .LVU176
 556 0088 092A     		cmp	r2, #9
 557              		.loc 1 333 13 view .LVU177
 558 008a 4946     		mov	r1, r9
 559              	.LVL54:
 560              		.loc 1 336 21 view .LVU178
 561 008c 05EB8500 		add	r0, r5, r5, lsl #2
 562              		.loc 1 330 10 view .LVU179
 563 0090 F3D9     		bls	.L45
 564              	.LVL55:
 565              		.loc 1 332 15 view .LVU180
 566 0092 2A2B     		cmp	r3, #42
 567 0094 EDD0     		beq	.L229
 568              		.loc 1 340 5 is_stmt 1 view .LVU181
 569              		.loc 1 340 8 is_stmt 0 view .LVU182
ARM GAS  C:\msys64\tmp\cc0CzZPe.s 			page 11


 570 0096 2E2B     		cmp	r3, #46
 571 0098 00F07281 		beq	.L230
 572              		.loc 1 353 7 is_stmt 1 view .LVU183
 573              		.loc 1 353 12 is_stmt 0 view .LVU184
 574 009c 48F04008 		orr	r8, r8, #64
 575              	.LVL56:
 576              		.loc 1 299 15 view .LVU185
 577 00a0 0027     		movs	r7, #0
 578              	.LVL57:
 579              	.L50:
 580              		.loc 1 365 5 is_stmt 1 view .LVU186
 581 00a2 A3F14402 		sub	r2, r3, #68
 582 00a6 342A     		cmp	r2, #52
 583 00a8 57D8     		bhi	.L52
 584 00aa DFE812F0 		tbh	[pc, r2, lsl #1]
 585              	.L54:
 586 00ae 9200     		.2byte	(.L59-.L54)/2
 587 00b0 5600     		.2byte	(.L52-.L54)/2
 588 00b2 A100     		.2byte	(.L60-.L54)/2
 589 00b4 5600     		.2byte	(.L52-.L54)/2
 590 00b6 5600     		.2byte	(.L52-.L54)/2
 591 00b8 9200     		.2byte	(.L59-.L54)/2
 592 00ba 5600     		.2byte	(.L52-.L54)/2
 593 00bc 5600     		.2byte	(.L52-.L54)/2
 594 00be 5600     		.2byte	(.L52-.L54)/2
 595 00c0 5600     		.2byte	(.L52-.L54)/2
 596 00c2 5600     		.2byte	(.L52-.L54)/2
 597 00c4 8701     		.2byte	(.L58-.L54)/2
 598 00c6 5600     		.2byte	(.L52-.L54)/2
 599 00c8 5600     		.2byte	(.L52-.L54)/2
 600 00ca 5600     		.2byte	(.L52-.L54)/2
 601 00cc 5600     		.2byte	(.L52-.L54)/2
 602 00ce 5600     		.2byte	(.L52-.L54)/2
 603 00d0 C100     		.2byte	(.L55-.L54)/2
 604 00d2 5600     		.2byte	(.L52-.L54)/2
 605 00d4 5600     		.2byte	(.L52-.L54)/2
 606 00d6 8501     		.2byte	(.L145-.L54)/2
 607 00d8 5600     		.2byte	(.L52-.L54)/2
 608 00da 5600     		.2byte	(.L52-.L54)/2
 609 00dc 5600     		.2byte	(.L52-.L54)/2
 610 00de 5600     		.2byte	(.L52-.L54)/2
 611 00e0 5600     		.2byte	(.L52-.L54)/2
 612 00e2 5600     		.2byte	(.L52-.L54)/2
 613 00e4 5600     		.2byte	(.L52-.L54)/2
 614 00e6 5600     		.2byte	(.L52-.L54)/2
 615 00e8 5600     		.2byte	(.L52-.L54)/2
 616 00ea 5600     		.2byte	(.L52-.L54)/2
 617 00ec D800     		.2byte	(.L61-.L54)/2
 618 00ee 9200     		.2byte	(.L59-.L54)/2
 619 00f0 5600     		.2byte	(.L52-.L54)/2
 620 00f2 A100     		.2byte	(.L60-.L54)/2
 621 00f4 5600     		.2byte	(.L52-.L54)/2
 622 00f6 5600     		.2byte	(.L52-.L54)/2
 623 00f8 9200     		.2byte	(.L59-.L54)/2
 624 00fa 5600     		.2byte	(.L52-.L54)/2
 625 00fc 5600     		.2byte	(.L52-.L54)/2
 626 00fe 5600     		.2byte	(.L52-.L54)/2
ARM GAS  C:\msys64\tmp\cc0CzZPe.s 			page 12


 627 0100 5600     		.2byte	(.L52-.L54)/2
 628 0102 5600     		.2byte	(.L52-.L54)/2
 629 0104 8701     		.2byte	(.L58-.L54)/2
 630 0106 5600     		.2byte	(.L52-.L54)/2
 631 0108 2401     		.2byte	(.L57-.L54)/2
 632 010a 5600     		.2byte	(.L52-.L54)/2
 633 010c E900     		.2byte	(.L56-.L54)/2
 634 010e 5600     		.2byte	(.L52-.L54)/2
 635 0110 C100     		.2byte	(.L55-.L54)/2
 636 0112 5600     		.2byte	(.L52-.L54)/2
 637 0114 5600     		.2byte	(.L52-.L54)/2
 638 0116 8501     		.2byte	(.L145-.L54)/2
 639              	.LVL58:
 640              		.p2align 1
 641              	.L37:
 642              		.loc 1 313 9 view .LVU187
 643 0118 1C46     		mov	r4, r3
 644              		.loc 1 308 11 is_stmt 0 view .LVU188
 645 011a 13F8012B 		ldrb	r2, [r3], #1	@ zero_extendqisi2
 646 011e 302A     		cmp	r2, #48
 647              		.loc 1 313 14 view .LVU189
 648 0120 48F01008 		orr	r8, r8, #16
 649              	.LVL59:
 650              		.loc 1 307 5 is_stmt 1 view .LVU190
 651              		.loc 1 308 7 view .LVU191
 652 0124 93D9     		bls	.L231
 653              	.L35:
 654              		.loc 1 308 7 is_stmt 0 view .LVU192
 655 0126 622A     		cmp	r2, #98
 656 0128 0DD0     		beq	.L42
 657 012a 6A2A     		cmp	r2, #106
 658 012c 9FD1     		bne	.L144
 659              		.loc 1 315 9 is_stmt 1 view .LVU193
 660              		.loc 1 315 14 is_stmt 0 view .LVU194
 661 012e 48F08008 		orr	r8, r8, #128
 662              	.LVL60:
 663              		.loc 1 315 14 view .LVU195
 664 0132 87E7     		b	.L33
 665              	.L39:
 666              		.loc 1 309 9 is_stmt 1 view .LVU196
 667              		.loc 1 309 14 is_stmt 0 view .LVU197
 668 0134 48F00208 		orr	r8, r8, #2
 669              	.LVL61:
 670              		.loc 1 309 14 view .LVU198
 671 0138 84E7     		b	.L33
 672              	.L40:
 673              		.loc 1 311 9 is_stmt 1 view .LVU199
 674              		.loc 1 311 14 is_stmt 0 view .LVU200
 675 013a 48F00408 		orr	r8, r8, #4
 676              	.LVL62:
 677              		.loc 1 311 14 view .LVU201
 678 013e 81E7     		b	.L33
 679              	.L41:
 680              		.loc 1 318 9 is_stmt 1 view .LVU202
 681              		.loc 1 318 14 is_stmt 0 view .LVU203
 682 0140 48F02008 		orr	r8, r8, #32
 683              	.LVL63:
ARM GAS  C:\msys64\tmp\cc0CzZPe.s 			page 13


 684              		.loc 1 318 14 view .LVU204
 685 0144 7EE7     		b	.L33
 686              	.L42:
 687              		.loc 1 321 9 is_stmt 1 view .LVU205
 688              		.loc 1 321 14 is_stmt 0 view .LVU206
 689 0146 48F48078 		orr	r8, r8, #256
 690              	.LVL64:
 691              		.loc 1 324 7 is_stmt 1 view .LVU207
 692              		.loc 1 307 11 view .LVU208
 693              		.loc 1 308 10 is_stmt 0 view .LVU209
 694 014a 7BE7     		b	.L33
 695              	.LVL65:
 696              	.L228:
 697              		.loc 1 308 10 view .LVU210
 698 014c 5346     		mov	r3, r10
 699              		.loc 1 501 1 view .LVU211
 700 014e 1846     		mov	r0, r3
 701 0150 0BB0     		add	sp, sp, #44
 702              		.cfi_remember_state
 703              		.cfi_def_cfa_offset 44
 704              		@ sp needed
 705 0152 BDEC028B 		vldm	sp!, {d8}
 706              		.cfi_restore 80
 707              		.cfi_restore 81
 708              		.cfi_def_cfa_offset 36
 709 0156 BDE8F08F 		pop	{r4, r5, r6, r7, r8, r9, r10, fp, pc}
 710              	.LVL66:
 711              	.L52:
 712              		.cfi_restore_state
 713              		.loc 1 465 7 is_stmt 1 view .LVU212
 714              		.loc 1 465 12 is_stmt 0 view .LVU213
 715 015a 8DF81030 		strb	r3, [sp, #16]
 716              		.loc 1 466 7 is_stmt 1 view .LVU214
 717              		.loc 1 465 9 is_stmt 0 view .LVU215
 718 015e 0DF11107 		add	r7, sp, #17
 719              	.LVL67:
 720              		.loc 1 466 7 view .LVU216
 721 0162 0123     		movs	r3, #1
 722              	.LVL68:
 723              	.L75:
 724              		.loc 1 470 5 is_stmt 1 view .LVU217
 725              		.loc 1 470 8 is_stmt 0 view .LVU218
 726 0164 EB1A     		subs	r3, r5, r3
 727              	.LVL69:
 728              		.loc 1 470 8 view .LVU219
 729 0166 70D4     		bmi	.L125
 730              	.LVL70:
 731              	.L236:
 732              		.loc 1 473 7 is_stmt 1 view .LVU220
 733              		.loc 1 473 14 is_stmt 0 view .LVU221
 734 0168 18F0100F 		tst	r8, #16
 735 016c 00F01D81 		beq	.L161
 736              	.LVL71:
 737              		.loc 1 476 5 is_stmt 1 view .LVU222
 738              		.loc 1 476 8 is_stmt 0 view .LVU223
 739 0170 18F0020F 		tst	r8, #2
 740 0174 00F0CD81 		beq	.L232
ARM GAS  C:\msys64\tmp\cc0CzZPe.s 			page 14


 741              		.loc 1 473 14 discriminator 1 view .LVU224
 742 0178 4FF0300B 		mov	fp, #48
 743              		.loc 1 476 8 view .LVU225
 744 017c 04A9     		add	r1, sp, #16
 745              	.LVL72:
 746              	.L126:
 747              		.loc 1 490 14 is_stmt 1 view .LVU226
 748 017e B942     		cmp	r1, r7
 749 0180 19D2     		bcs	.L136
 750              	.LVL73:
 751              	.L129:
 752              		.loc 1 296 7 is_stmt 0 view .LVU227
 753 0182 0194     		str	r4, [sp, #4]
 754 0184 0D46     		mov	r5, r1
 755 0186 3446     		mov	r4, r6
 756 0188 8846     		mov	r8, r1
 757 018a 1E46     		mov	r6, r3
 758              	.LVL74:
 759              	.L135:
 760              		.loc 1 491 7 is_stmt 1 view .LVU228
 761              		.loc 1 491 7 is_stmt 0 view .LVU229
 762 018c 2268     		ldr	r2, [r4]
 763 018e 15F8011B 		ldrb	r1, [r5], #1	@ zero_extendqisi2
 764              	.LVL75:
 765              		.loc 1 491 7 view .LVU230
 766 0192 9268     		ldr	r2, [r2, #8]
 767 0194 2046     		mov	r0, r4
 768 0196 9047     		blx	r2
 769              	.LVL76:
 770              		.loc 1 492 7 is_stmt 1 view .LVU231
 771              		.loc 1 490 14 view .LVU232
 772 0198 BD42     		cmp	r5, r7
 773 019a F7D3     		bcc	.L135
 774              		.loc 1 490 14 is_stmt 0 view .LVU233
 775 019c 3346     		mov	r3, r6
 776 019e 2646     		mov	r6, r4
 777 01a0 019C     		ldr	r4, [sp, #4]
 778              	.LVL77:
 779              		.loc 1 490 14 view .LVU234
 780 01a2 4146     		mov	r1, r8
 781              	.LVL78:
 782              	.L139:
 783              		.loc 1 490 14 view .LVU235
 784 01a4 7A1E     		subs	r2, r7, #1
 785 01a6 521A     		subs	r2, r2, r1
 786 01a8 0131     		adds	r1, r1, #1
 787 01aa 8F42     		cmp	r7, r1
 788 01ac 38BF     		it	cc
 789 01ae 0022     		movcc	r2, #0
 790 01b0 0AF1010A 		add	r10, r10, #1
 791 01b4 9244     		add	r10, r10, r2
 792              	.LVL79:
 793              	.L136:
 794              		.loc 1 495 12 is_stmt 1 view .LVU236
 795 01b6 002B     		cmp	r3, #0
 796 01b8 3FF43AAF 		beq	.L34
 797              		.loc 1 495 12 is_stmt 0 view .LVU237
ARM GAS  C:\msys64\tmp\cc0CzZPe.s 			page 15


 798 01bc 1D46     		mov	r5, r3
 799 01be 1F46     		mov	r7, r3
 800              	.LVL80:
 801              	.L137:
 802              		.loc 1 496 7 is_stmt 1 view .LVU238
 803 01c0 3368     		ldr	r3, [r6]
 804 01c2 5946     		mov	r1, fp
 805 01c4 9B68     		ldr	r3, [r3, #8]
 806 01c6 3046     		mov	r0, r6
 807 01c8 9847     		blx	r3
 808              	.LVL81:
 809              		.loc 1 497 7 view .LVU239
 810              		.loc 1 498 7 view .LVU240
 811              		.loc 1 495 12 view .LVU241
 812 01ca 013D     		subs	r5, r5, #1
 813              	.LVL82:
 814              		.loc 1 495 12 is_stmt 0 view .LVU242
 815 01cc F8D1     		bne	.L137
 816 01ce BA44     		add	r10, r10, r7
 817 01d0 2EE7     		b	.L34
 818              	.LVL83:
 819              	.L59:
 820              		.loc 1 388 9 is_stmt 1 view .LVU243
 821              		.loc 1 388 19 is_stmt 0 view .LVU244
 822 01d2 59F8041B 		ldr	r1, [r9], #4
 823              	.LVL84:
 824              		.loc 1 389 7 is_stmt 1 view .LVU245
 825              		.loc 1 389 10 is_stmt 0 view .LVU246
 826 01d6 0029     		cmp	r1, #0
 827 01d8 C0F23481 		blt	.L233
 828              		.loc 1 394 12 is_stmt 1 view .LVU247
 829              		.loc 1 394 15 is_stmt 0 view .LVU248
 830 01dc 18F0040F 		tst	r8, #4
 831 01e0 40F0D981 		bne	.L148
 832              		.loc 1 397 12 is_stmt 1 view .LVU249
 833              		.loc 1 397 15 is_stmt 0 view .LVU250
 834 01e4 18F0200F 		tst	r8, #32
 835 01e8 00F0EC81 		beq	.L149
 836 01ec 2023     		movs	r3, #32
 837              	.LVL85:
 838              		.loc 1 397 15 view .LVU251
 839 01ee D3E1     		b	.L73
 840              	.LVL86:
 841              	.L60:
 842              		.loc 1 410 7 is_stmt 1 view .LVU252
 843              		.loc 1 410 10 is_stmt 0 view .LVU253
 844 01f0 18F4807F 		tst	r8, #256
 845 01f4 40F0E480 		bne	.L234
 846              		.loc 1 413 9 is_stmt 1 view .LVU254
 847              		.loc 1 413 19 is_stmt 0 view .LVU255
 848 01f8 09F10709 		add	r9, r9, #7
 849              	.LVL87:
 850              		.loc 1 413 19 view .LVU256
 851 01fc 29F00709 		bic	r9, r9, #7
 852              	.LVL88:
 853              		.loc 1 413 19 discriminator 1 view .LVU257
 854 0200 F9E80201 		ldrd	r0, [r9], #8
ARM GAS  C:\msys64\tmp\cc0CzZPe.s 			page 16


 855              	.LVL89:
 856              		.loc 1 413 19 discriminator 1 view .LVU258
 857 0204 0193     		str	r3, [sp, #4]
 858 0206 FFF7FEFF 		bl	__aeabi_d2f
 859              	.LVL90:
 860              		.loc 1 413 19 discriminator 1 view .LVU259
 861 020a 08EE100A 		vmov	s16, r0
 862              		.loc 1 414 10 view .LVU260
 863 020e B5EEC08A 		vcmpe.f32	s16, #0
 864 0212 F1EE10FA 		vmrs	APSR_nzcv, FPSCR
 865              		.loc 1 413 19 discriminator 1 view .LVU261
 866 0216 019B     		ldr	r3, [sp, #4]
 867              		.loc 1 414 7 is_stmt 1 view .LVU262
 868              		.loc 1 414 10 is_stmt 0 view .LVU263
 869 0218 00F1DA80 		bmi	.L235
 870              	.LVL91:
 871              	.L218:
 872              		.loc 1 419 12 is_stmt 1 view .LVU264
 873              		.loc 1 419 15 is_stmt 0 view .LVU265
 874 021c 18F0040F 		tst	r8, #4
 875 0220 40F0C181 		bne	.L156
 876              		.loc 1 422 12 is_stmt 1 view .LVU266
 877              		.loc 1 422 15 is_stmt 0 view .LVU267
 878 0224 18F0200F 		tst	r8, #32
 879 0228 00F0C981 		beq	.L157
 880 022c 2022     		movs	r2, #32
 881 022e BBE1     		b	.L93
 882              	.L55:
 883              		.loc 1 450 7 is_stmt 1 view .LVU268
 884              	.LVL92:
 885              		.loc 1 451 7 view .LVU269
 886 0230 0A22     		movs	r2, #10
 887              	.LVL93:
 888              	.L53:
 889              		.loc 1 461 9 view .LVU270
 890              		.loc 1 462 7 view .LVU271
 891              		.loc 1 462 11 is_stmt 0 view .LVU272
 892 0232 04A8     		add	r0, sp, #16
 893 0234 0023     		movs	r3, #0
 894 0236 59F8041B 		ldr	r1, [r9], #4
 895              	.LVL94:
 896              		.loc 1 462 11 view .LVU273
 897 023a 0190     		str	r0, [sp, #4]
 898 023c FFF7FEFF 		bl	long_to_string_with_divisor
 899              	.LVL95:
 900              		.loc 1 470 18 view .LVU274
 901 0240 019B     		ldr	r3, [sp, #4]
 902 0242 C31A     		subs	r3, r0, r3
 903              		.loc 1 470 8 view .LVU275
 904 0244 EB1A     		subs	r3, r5, r3
 905              		.loc 1 462 11 view .LVU276
 906 0246 0746     		mov	r7, r0
 907              	.LVL96:
 908              		.loc 1 463 7 is_stmt 1 view .LVU277
 909              		.loc 1 470 5 view .LVU278
 910              		.loc 1 470 8 is_stmt 0 view .LVU279
 911 0248 8ED5     		bpl	.L236
ARM GAS  C:\msys64\tmp\cc0CzZPe.s 			page 17


 912              	.LVL97:
 913              	.L125:
 914              		.loc 1 476 5 is_stmt 1 view .LVU280
 915              		.loc 1 476 8 is_stmt 0 view .LVU281
 916 024a 18F00203 		ands	r3, r8, #2
 917 024e 00F06881 		beq	.L237
 918              	.L171:
 919              		.loc 1 476 8 view .LVU282
 920 0252 04A9     		add	r1, sp, #16
 921              	.LVL98:
 922              	.L132:
 923              		.loc 1 490 14 is_stmt 1 view .LVU283
 924 0254 8F42     		cmp	r7, r1
 925 0256 88BF     		it	hi
 926 0258 0023     		movhi	r3, #0
 927 025a 92D8     		bhi	.L129
 928              		.loc 1 490 14 is_stmt 0 view .LVU284
 929 025c E8E6     		b	.L34
 930              	.LVL99:
 931              	.L61:
 932              		.loc 1 367 7 is_stmt 1 view .LVU285
 933              		.loc 1 368 7 view .LVU286
 934              		.loc 1 368 12 is_stmt 0 discriminator 1 view .LVU287
 935 025e 59F8043B 		ldr	r3, [r9], #4
 936              	.LVL100:
 937              		.loc 1 368 12 discriminator 1 view .LVU288
 938 0262 8DF81030 		strb	r3, [sp, #16]
 939              		.loc 1 369 7 is_stmt 1 view .LVU289
 940              	.LVL101:
 941              		.loc 1 470 5 view .LVU290
 942              		.loc 1 470 8 is_stmt 0 view .LVU291
 943 0266 6B1E     		subs	r3, r5, #1
 944              	.LVL102:
 945              		.loc 1 470 8 view .LVU292
 946 0268 00F1DC80 		bmi	.L238
 947              	.LVL103:
 948              		.loc 1 476 5 is_stmt 1 view .LVU293
 949              		.loc 1 476 8 is_stmt 0 view .LVU294
 950 026c 18F0020F 		tst	r8, #2
 951 0270 00F00782 		beq	.L164
 952              		.loc 1 473 14 discriminator 2 view .LVU295
 953 0274 4FF0200B 		mov	fp, #32
 954              		.loc 1 368 9 discriminator 1 view .LVU296
 955 0278 0DF11107 		add	r7, sp, #17
 956              	.LVL104:
 957              		.loc 1 296 7 view .LVU297
 958 027c 04A9     		add	r1, sp, #16
 959              	.LVL105:
 960              		.loc 1 296 7 view .LVU298
 961 027e 80E7     		b	.L129
 962              	.LVL106:
 963              	.L56:
 964              		.loc 1 371 7 is_stmt 1 view .LVU299
 965              		.loc 1 372 7 view .LVU300
 966              		.loc 1 372 14 is_stmt 0 view .LVU301
 967 0280 59F8041B 		ldr	r1, [r9], #4
 968              	.LVL107:
ARM GAS  C:\msys64\tmp\cc0CzZPe.s 			page 18


 969              		.loc 1 372 10 discriminator 1 view .LVU302
 970 0284 0029     		cmp	r1, #0
 971 0286 00F0F580 		beq	.L239
 972              		.loc 1 376 19 discriminator 1 view .LVU303
 973 028a 0B78     		ldrb	r3, [r1]	@ zero_extendqisi2
 974              	.LVL108:
 975              		.loc 1 374 7 is_stmt 1 view .LVU304
 976              		.loc 1 375 19 is_stmt 0 view .LVU305
 977 028c 18F0400F 		tst	r8, #64
 978 0290 47F6FF72 		movw	r2, #32767
 979              	.LVL109:
 980              		.loc 1 375 19 view .LVU306
 981 0294 18BF     		it	ne
 982 0296 1746     		movne	r7, r2
 983              	.LVL110:
 984              		.loc 1 376 22 is_stmt 1 discriminator 1 view .LVU307
 985 0298 002B     		cmp	r3, #0
 986 029a 00F02382 		beq	.L240
 987              	.LVL111:
 988              	.L65:
 989              		.loc 1 376 22 is_stmt 0 discriminator 1 view .LVU308
 990 029e 4A1E     		subs	r2, r1, #1
 991 02a0 3A44     		add	r2, r2, r7
 992              		.loc 1 373 11 view .LVU309
 993 02a2 0F46     		mov	r7, r1
 994 02a4 02E0     		b	.L68
 995              	.LVL112:
 996              	.L70:
 997              		.loc 1 376 22 discriminator 1 view .LVU310
 998 02a6 17F8013F 		ldrb	r3, [r7, #1]!	@ zero_extendqisi2
 999              	.LVL113:
 1000              		.loc 1 376 22 discriminator 1 view .LVU311
 1001 02aa 13B1     		cbz	r3, .L226
 1002              	.LVL114:
 1003              	.L68:
 1004              		.loc 1 376 46 is_stmt 1 discriminator 4 view .LVU312
 1005              		.loc 1 376 22 discriminator 1 view .LVU313
 1006              		.loc 1 376 22 is_stmt 0 discriminator 1 view .LVU314
 1007 02ac D31B     		subs	r3, r2, r7
 1008              		.loc 1 376 22 discriminator 3 view .LVU315
 1009 02ae 002B     		cmp	r3, #0
 1010 02b0 F9DA     		bge	.L70
 1011              	.LVL115:
 1012              	.L226:
 1013              		.loc 1 470 5 is_stmt 1 view .LVU316
 1014              		.loc 1 470 18 is_stmt 0 view .LVU317
 1015 02b2 7B1A     		subs	r3, r7, r1
 1016              	.LVL116:
 1017              		.loc 1 470 8 view .LVU318
 1018 02b4 EB1A     		subs	r3, r5, r3
 1019              	.LVL117:
 1020              		.loc 1 470 8 view .LVU319
 1021 02b6 CDD4     		bmi	.L132
 1022              		.loc 1 371 12 view .LVU320
 1023 02b8 28F01008 		bic	r8, r8, #16
 1024              	.LVL118:
 1025              		.loc 1 476 5 is_stmt 1 view .LVU321
ARM GAS  C:\msys64\tmp\cc0CzZPe.s 			page 19


 1026              		.loc 1 476 8 is_stmt 0 view .LVU322
 1027 02bc 18F0020F 		tst	r8, #2
 1028 02c0 77D1     		bne	.L241
 1029              	.LVL119:
 1030              	.L165:
 1031              		.loc 1 470 16 view .LVU323
 1032 02c2 1D46     		mov	r5, r3
 1033              		.loc 1 473 14 discriminator 2 view .LVU324
 1034 02c4 4FF0200B 		mov	fp, #32
 1035              	.LVL120:
 1036              	.L128:
 1037              		.loc 1 483 14 is_stmt 1 view .LVU325
 1038 02c8 002B     		cmp	r3, #0
 1039 02ca C3D0     		beq	.L132
 1040              	.LVL121:
 1041              	.L134:
 1042              		.loc 1 473 14 is_stmt 0 discriminator 2 view .LVU326
 1043 02cc 0194     		str	r4, [sp, #4]
 1044 02ce A846     		mov	r8, r5
 1045 02d0 3446     		mov	r4, r6
 1046 02d2 0E46     		mov	r6, r1
 1047              	.LVL122:
 1048              	.L133:
 1049              		.loc 1 484 9 is_stmt 1 view .LVU327
 1050 02d4 2268     		ldr	r2, [r4]
 1051 02d6 5946     		mov	r1, fp
 1052 02d8 9268     		ldr	r2, [r2, #8]
 1053 02da 2046     		mov	r0, r4
 1054 02dc 9047     		blx	r2
 1055              	.LVL123:
 1056              		.loc 1 485 9 view .LVU328
 1057              		.loc 1 486 9 view .LVU329
 1058              		.loc 1 483 14 view .LVU330
 1059 02de B8F10108 		subs	r8, r8, #1
 1060              	.LVL124:
 1061              		.loc 1 483 14 is_stmt 0 view .LVU331
 1062 02e2 F7D1     		bne	.L133
 1063 02e4 3146     		mov	r1, r6
 1064              		.loc 1 490 14 view .LVU332
 1065 02e6 B942     		cmp	r1, r7
 1066 02e8 2646     		mov	r6, r4
 1067 02ea 4346     		mov	r3, r8
 1068 02ec 019C     		ldr	r4, [sp, #4]
 1069              	.LVL125:
 1070              		.loc 1 490 14 view .LVU333
 1071 02ee AA44     		add	r10, r10, r5
 1072              	.LVL126:
 1073              		.loc 1 490 14 is_stmt 1 view .LVU334
 1074 02f0 FFF447AF 		bcc	.L129
 1075              		.loc 1 490 14 is_stmt 0 view .LVU335
 1076 02f4 9CE6     		b	.L34
 1077              	.LVL127:
 1078              	.L57:
 1079              		.loc 1 405 7 is_stmt 1 view .LVU336
 1080              		.loc 1 405 9 is_stmt 0 view .LVU337
 1081 02f6 4946     		mov	r1, r9
 1082              	.LVL128:
ARM GAS  C:\msys64\tmp\cc0CzZPe.s 			page 20


 1083              		.loc 1 405 9 view .LVU338
 1084 02f8 51F8042B 		ldr	r2, [r1], #4
 1085              	.LVL129:
 1086              	.LBB19:
 1087              	.LBI19:
 1088              		.loc 1 106 1 is_stmt 1 view .LVU339
 1089              	.LBB20:
 1090              		.loc 1 108 3 view .LVU340
 1091              		.loc 1 109 3 view .LVU341
 1092              		.loc 1 109 6 is_stmt 0 view .LVU342
 1093 02fc 002F     		cmp	r7, #0
 1094 02fe 00F08C80 		beq	.L150
 1095              		.loc 1 111 3 is_stmt 1 view .LVU343
 1096              		.loc 1 111 22 is_stmt 0 discriminator 1 view .LVU344
 1097 0302 0E2F     		cmp	r7, #14
 1098 0304 A8BF     		it	ge
 1099 0306 0E27     		movge	r7, #14
 1100              	.LVL130:
 1101              		.loc 1 111 22 discriminator 1 view .LVU345
 1102 0308 B946     		mov	r9, r7
 1103              		.loc 1 108 11 view .LVU346
 1104 030a 4FF0010C 		mov	ip, #1
 1105              	.L76:
 1106              	.LVL131:
 1107              		.loc 1 113 3 is_stmt 1 view .LVU347
 1108              		.loc 1 114 3 view .LVU348
 1109              		.loc 1 116 3 view .LVU349
 1110              		.loc 1 118 3 view .LVU350
 1111              		.loc 1 119 3 view .LVU351
 1112              	.LBB21:
 1113              		.loc 1 121 5 view .LVU352
 1114              		.loc 1 122 5 view .LVU353
 1115              		.loc 1 122 9 is_stmt 0 view .LVU354
 1116 030e AF4B     		ldr	r3, .L248
 1117              	.LVL132:
 1118              		.loc 1 122 9 view .LVU355
 1119 0310 A3FB0230 		umull	r3, r0, r3, r2
 1120 0314 C008     		lsrs	r0, r0, #3
 1121              	.LVL133:
 1122              		.loc 1 141 5 is_stmt 1 view .LVU356
 1123              		.loc 1 121 14 is_stmt 0 view .LVU357
 1124 0316 00EB8003 		add	r3, r0, r0, lsl #2
 1125 031a A2EB4303 		sub	r3, r2, r3, lsl #1
 1126              		.loc 1 141 14 view .LVU358
 1127 031e 3033     		adds	r3, r3, #48
 1128 0320 DBB2     		uxtb	r3, r3
 1129              		.loc 1 142 8 view .LVU359
 1130 0322 092A     		cmp	r2, #9
 1131              		.loc 1 141 10 view .LVU360
 1132 0324 8DF81D30 		strb	r3, [sp, #29]
 1133              		.loc 1 142 5 is_stmt 1 view .LVU361
 1134              		.loc 1 142 8 is_stmt 0 view .LVU362
 1135 0328 40F2C781 		bls	.L151
 1136              	.LBE21:
 1137              		.loc 1 116 12 view .LVU363
 1138 032c 0023     		movs	r3, #0
 1139 032e CDE90145 		strd	r4, r5, [sp, #4]
ARM GAS  C:\msys64\tmp\cc0CzZPe.s 			page 21


 1140              		.loc 1 118 12 view .LVU364
 1141 0332 44F6241E 		movw	lr, #18724
 1142              	.LBB22:
 1143              		.loc 1 141 10 view .LVU365
 1144 0336 0DF11D02 		add	r2, sp, #29
 1145              	.LVL134:
 1146              		.loc 1 141 10 view .LVU366
 1147              	.LBE22:
 1148              		.loc 1 113 9 view .LVU367
 1149 033a 0DF11E07 		add	r7, sp, #30
 1150              	.LVL135:
 1151              		.loc 1 113 9 view .LVU368
 1152 033e 1D46     		mov	r5, r3
 1153              	.LVL136:
 1154              		.loc 1 113 9 view .LVU369
 1155 0340 19E0     		b	.L79
 1156              	.LVL137:
 1157              	.L243:
 1158              	.LBB23:
 1159              		.loc 1 145 12 view .LVU370
 1160 0342 4FF02003 		mov	r3, #32
 1161 0346 07F8023C 		strb	r3, [r7, #-2]
 1162              		.loc 1 146 7 is_stmt 1 view .LVU371
 1163              		.loc 1 146 8 is_stmt 0 view .LVU372
 1164 034a 0135     		adds	r5, r5, #1
 1165              	.LVL138:
 1166              		.loc 1 145 12 view .LVU373
 1167 034c 023F     		subs	r7, r7, #2
 1168              	.LVL139:
 1169              	.L78:
 1170              		.loc 1 148 5 is_stmt 1 view .LVU374
 1171              		.loc 1 122 9 is_stmt 0 view .LVU375
 1172 034e 9F4B     		ldr	r3, .L248
 1173 0350 A3FB0034 		umull	r3, r4, r3, r0
 1174 0354 E408     		lsrs	r4, r4, #3
 1175              		.loc 1 121 14 view .LVU376
 1176 0356 04EB8403 		add	r3, r4, r4, lsl #2
 1177 035a A0EB4303 		sub	r3, r0, r3, lsl #1
 1178              		.loc 1 141 14 view .LVU377
 1179 035e 3033     		adds	r3, r3, #48
 1180 0360 DBB2     		uxtb	r3, r3
 1181              		.loc 1 142 8 view .LVU378
 1182 0362 0928     		cmp	r0, #9
 1183              		.loc 1 141 10 view .LVU379
 1184 0364 07F8013C 		strb	r3, [r7, #-1]
 1185              		.loc 1 148 12 view .LVU380
 1186 0368 4FEA5E0E 		lsr	lr, lr, #1
 1187              	.LVL140:
 1188              		.loc 1 148 12 view .LVU381
 1189              	.LBE23:
 1190              		.loc 1 119 6 is_stmt 1 view .LVU382
 1191              		.loc 1 119 3 view .LVU383
 1192              	.LBB24:
 1193              		.loc 1 121 5 view .LVU384
 1194              		.loc 1 122 5 view .LVU385
 1195              		.loc 1 141 5 view .LVU386
 1196              		.loc 1 141 10 is_stmt 0 view .LVU387
ARM GAS  C:\msys64\tmp\cc0CzZPe.s 			page 22


 1197 036c 07F1FF32 		add	r2, r7, #-1
 1198              	.LVL141:
 1199              		.loc 1 142 5 is_stmt 1 view .LVU388
 1200              		.loc 1 142 8 is_stmt 0 view .LVU389
 1201 0370 40F28880 		bls	.L242
 1202              		.loc 1 142 8 view .LVU390
 1203 0374 2046     		mov	r0, r4
 1204              	.LVL142:
 1205              	.L79:
 1206              		.loc 1 144 5 is_stmt 1 view .LVU391
 1207              		.loc 1 145 7 view .LVU392
 1208              		.loc 1 144 8 is_stmt 0 view .LVU393
 1209 0376 1EF0010F 		tst	lr, #1
 1210 037a E2D1     		bne	.L243
 1211              		.loc 1 141 10 view .LVU394
 1212 037c 1746     		mov	r7, r2
 1213              	.LVL143:
 1214              		.loc 1 141 10 view .LVU395
 1215 037e E6E7     		b	.L78
 1216              	.LVL144:
 1217              	.L230:
 1218              		.loc 1 141 10 view .LVU396
 1219              	.LBE24:
 1220              	.LBE20:
 1221              	.LBE19:
 1222              		.loc 1 299 15 view .LVU397
 1223 0380 0027     		movs	r7, #0
 1224 0382 05E0     		b	.L51
 1225              	.LVL145:
 1226              	.L244:
 1227              		.loc 1 346 13 discriminator 1 view .LVU398
 1228 0384 51F8042B 		ldr	r2, [r1], #4
 1229              	.LVL146:
 1230              		.loc 1 346 13 discriminator 1 view .LVU399
 1231 0388 D2B2     		uxtb	r2, r2
 1232              	.LVL147:
 1233              		.loc 1 346 15 view .LVU400
 1234 038a 8946     		mov	r9, r1
 1235              	.LVL148:
 1236              	.L49:
 1237              		.loc 1 349 9 is_stmt 1 view .LVU401
 1238              		.loc 1 349 19 is_stmt 0 view .LVU402
 1239 038c 02EB4007 		add	r7, r2, r0, lsl #1
 1240              	.LVL149:
 1241              		.loc 1 341 13 is_stmt 1 view .LVU403
 1242              	.L51:
 1243              		.loc 1 341 7 view .LVU404
 1244              		.loc 1 342 9 view .LVU405
 1245              		.loc 1 345 14 view .LVU406
 1246              		.loc 1 346 11 view .LVU407
 1247              		.loc 1 342 11 is_stmt 0 view .LVU408
 1248 0390 14F8013B 		ldrb	r3, [r4], #1	@ zero_extendqisi2
 1249              	.LVL150:
 1250              		.loc 1 343 9 is_stmt 1 view .LVU409
 1251              		.loc 1 343 22 is_stmt 0 view .LVU410
 1252 0394 A3F13002 		sub	r2, r3, #48
 1253 0398 D2B2     		uxtb	r2, r2
ARM GAS  C:\msys64\tmp\cc0CzZPe.s 			page 23


 1254              		.loc 1 343 12 view .LVU411
 1255 039a 092A     		cmp	r2, #9
 1256              		.loc 1 346 15 view .LVU412
 1257 039c 4946     		mov	r1, r9
 1258              	.LVL151:
 1259              		.loc 1 349 31 view .LVU413
 1260 039e 07EB8700 		add	r0, r7, r7, lsl #2
 1261              		.loc 1 343 12 view .LVU414
 1262 03a2 F3D9     		bls	.L49
 1263              		.loc 1 345 17 view .LVU415
 1264 03a4 2A2B     		cmp	r3, #42
 1265 03a6 EDD0     		beq	.L244
 1266 03a8 7BE6     		b	.L50
 1267              	.LVL152:
 1268              	.L161:
 1269              		.loc 1 345 17 view .LVU416
 1270 03aa 04A9     		add	r1, sp, #16
 1271              	.LVL153:
 1272              	.L119:
 1273              		.loc 1 476 5 is_stmt 1 view .LVU417
 1274              		.loc 1 476 8 is_stmt 0 view .LVU418
 1275 03ac 18F0020F 		tst	r8, #2
 1276 03b0 87D0     		beq	.L165
 1277              	.LVL154:
 1278              	.L241:
 1279              		.loc 1 473 14 discriminator 2 view .LVU419
 1280 03b2 4FF0200B 		mov	fp, #32
 1281 03b6 E2E6     		b	.L126
 1282              	.LVL155:
 1283              	.L145:
 1284              		.loc 1 365 5 view .LVU420
 1285 03b8 1022     		movs	r2, #16
 1286 03ba 3AE7     		b	.L53
 1287              	.L58:
 1288 03bc 0822     		movs	r2, #8
 1289 03be 38E7     		b	.L53
 1290              	.L234:
 1291              		.loc 1 411 9 is_stmt 1 view .LVU421
 1292              	.LVL156:
 1293              		.loc 1 414 16 is_stmt 0 view .LVU422
 1294 03c0 B9EC018A 		vldmia.32	r9!, {s16}
 1295              	.LVL157:
 1296              		.loc 1 414 7 is_stmt 1 view .LVU423
 1297              		.loc 1 414 10 is_stmt 0 view .LVU424
 1298 03c4 B5EEC08A 		vcmpe.f32	s16, #0
 1299 03c8 F1EE10FA 		vmrs	APSR_nzcv, FPSCR
 1300 03cc 7FF526AF 		bpl	.L218
 1301              	.L235:
 1302              		.loc 1 415 9 is_stmt 1 view .LVU425
 1303              		.loc 1 416 14 is_stmt 0 view .LVU426
 1304 03d0 2D22     		movs	r2, #45
 1305 03d2 8DF81020 		strb	r2, [sp, #16]
 1306 03d6 04AA     		add	r2, sp, #16
 1307              		.loc 1 415 14 view .LVU427
 1308 03d8 48F00808 		orr	r8, r8, #8
 1309              	.LVL158:
 1310              		.loc 1 416 9 is_stmt 1 view .LVU428
ARM GAS  C:\msys64\tmp\cc0CzZPe.s 			page 24


 1311              		.loc 1 417 9 view .LVU429
 1312              		.loc 1 417 19 is_stmt 0 view .LVU430
 1313 03dc B1EE488A 		vneg.f32	s16, s16
 1314              	.LVL159:
 1315              		.loc 1 416 11 view .LVU431
 1316 03e0 0DF11100 		add	r0, sp, #17
 1317              	.LVL160:
 1318              		.loc 1 416 11 view .LVU432
 1319 03e4 0192     		str	r2, [sp, #4]
 1320              	.LVL161:
 1321              	.L92:
 1322              		.loc 1 425 7 is_stmt 1 view .LVU433
 1323              		.loc 1 425 10 is_stmt 0 view .LVU434
 1324 03e6 18F0800F 		tst	r8, #128
 1325              		.loc 1 426 9 is_stmt 1 view .LVU435
 1326              	.LVL162:
 1327              		.loc 1 427 7 view .LVU436
 1328              		.loc 1 426 14 is_stmt 0 view .LVU437
 1329 03ea 1CBF     		itt	ne
 1330 03ec 6A22     		movne	r2, #106
 1331 03ee 00F8012B 		strbne	r2, [r0], #1
 1332 03f2 CDE90203 		strd	r0, r3, [sp, #8]
 1333              	.LVL163:
 1334              		.loc 1 427 22 view .LVU438
 1335 03f6 FFF7FEFF 		bl	infinityf
 1336              	.LVL164:
 1337              		.loc 1 427 10 discriminator 1 view .LVU439
 1338 03fa B4EE480A 		vcmp.f32	s0, s16
 1339 03fe F1EE10FA 		vmrs	APSR_nzcv, FPSCR
 1340 0402 DDE90203 		ldrd	r0, r3, [sp, #8]
 1341 0406 40F0A980 		bne	.L95
 1342              		.loc 1 428 9 is_stmt 1 view .LVU440
 1343              	.LVL165:
 1344              		.loc 1 428 31 view .LVU441
 1345              		.loc 1 428 33 is_stmt 0 view .LVU442
 1346 040a 0746     		mov	r7, r0
 1347              	.LVL166:
 1348              		.loc 1 428 14 view .LVU443
 1349 040c 42F21903 		movw	r3, #8217
 1350 0410 27F8023B 		strh	r3, [r7], #2	@ unaligned
 1351              	.LVL167:
 1352              		.loc 1 429 9 is_stmt 1 view .LVU444
 1353              		.loc 1 470 18 is_stmt 0 view .LVU445
 1354 0414 019B     		ldr	r3, [sp, #4]
 1355 0416 FB1A     		subs	r3, r7, r3
 1356              		.loc 1 429 9 view .LVU446
 1357 0418 A4E6     		b	.L75
 1358              	.LVL168:
 1359              	.L150:
 1360              	.LBB36:
 1361              	.LBB32:
 1362              		.loc 1 110 9 view .LVU447
 1363 041a 4FF0030C 		mov	ip, #3
 1364              		.loc 1 112 15 view .LVU448
 1365 041e 4FF00E09 		mov	r9, #14
 1366 0422 74E7     		b	.L76
 1367              	.LVL169:
ARM GAS  C:\msys64\tmp\cc0CzZPe.s 			page 25


 1368              	.L238:
 1369              		.loc 1 112 15 view .LVU449
 1370              	.LBE32:
 1371              	.LBE36:
 1372              		.loc 1 476 5 is_stmt 1 view .LVU450
 1373              		.loc 1 476 8 is_stmt 0 view .LVU451
 1374 0424 18F00203 		ands	r3, r8, #2
 1375 0428 00F04381 		beq	.L245
 1376              	.LVL170:
 1377              		.loc 1 491 7 is_stmt 1 view .LVU452
 1378              		.loc 1 491 7 is_stmt 0 view .LVU453
 1379 042c 3368     		ldr	r3, [r6]
 1380 042e 9DF81010 		ldrb	r1, [sp, #16]	@ zero_extendqisi2
 1381 0432 9B68     		ldr	r3, [r3, #8]
 1382 0434 3046     		mov	r0, r6
 1383 0436 04AD     		add	r5, sp, #16
 1384 0438 9847     		blx	r3
 1385              	.LVL171:
 1386              		.loc 1 492 7 is_stmt 1 view .LVU454
 1387              		.loc 1 490 14 view .LVU455
 1388              		.loc 1 368 9 is_stmt 0 discriminator 1 view .LVU456
 1389 043a 0DF11107 		add	r7, sp, #17
 1390              	.LVL172:
 1391              		.loc 1 296 7 view .LVU457
 1392 043e 2946     		mov	r1, r5
 1393              		.loc 1 491 7 view .LVU458
 1394 0440 0023     		movs	r3, #0
 1395 0442 AFE6     		b	.L139
 1396              	.LVL173:
 1397              	.L233:
 1398              		.loc 1 390 9 is_stmt 1 view .LVU459
 1399              		.loc 1 391 14 is_stmt 0 view .LVU460
 1400 0444 2D23     		movs	r3, #45
 1401              	.LVL174:
 1402              		.loc 1 391 14 view .LVU461
 1403 0446 8DF81030 		strb	r3, [sp, #16]
 1404 044a 04AB     		add	r3, sp, #16
 1405              		.loc 1 390 14 view .LVU462
 1406 044c 48F00808 		orr	r8, r8, #8
 1407              	.LVL175:
 1408              		.loc 1 391 9 is_stmt 1 view .LVU463
 1409              		.loc 1 392 9 view .LVU464
 1410              		.loc 1 392 19 is_stmt 0 view .LVU465
 1411 0450 4942     		rsbs	r1, r1, #0
 1412              	.LVL176:
 1413              		.loc 1 391 11 view .LVU466
 1414 0452 0DF11100 		add	r0, sp, #17
 1415              	.LVL177:
 1416              		.loc 1 391 11 view .LVU467
 1417 0456 0193     		str	r3, [sp, #4]
 1418              	.LVL178:
 1419              	.L72:
 1420              		.loc 1 400 7 is_stmt 1 view .LVU468
 1421              		.loc 1 400 10 is_stmt 0 view .LVU469
 1422 0458 18F0800F 		tst	r8, #128
 1423              		.loc 1 401 9 is_stmt 1 view .LVU470
 1424              	.LVL179:
ARM GAS  C:\msys64\tmp\cc0CzZPe.s 			page 26


 1425              		.loc 1 401 14 is_stmt 0 view .LVU471
 1426 045c 1CBF     		itt	ne
 1427 045e 6A23     		movne	r3, #106
 1428 0460 00F8013B 		strbne	r3, [r0], #1
 1429              	.LVL180:
 1430              		.loc 1 402 7 is_stmt 1 view .LVU472
 1431              		.loc 1 402 11 is_stmt 0 view .LVU473
 1432 0464 0A22     		movs	r2, #10
 1433              	.LVL181:
 1434              		.loc 1 402 11 view .LVU474
 1435 0466 0023     		movs	r3, #0
 1436 0468 FFF7FEFF 		bl	long_to_string_with_divisor
 1437              	.LVL182:
 1438              		.loc 1 470 18 view .LVU475
 1439 046c 019B     		ldr	r3, [sp, #4]
 1440              		.loc 1 402 11 view .LVU476
 1441 046e 0746     		mov	r7, r0
 1442              	.LVL183:
 1443              		.loc 1 403 7 is_stmt 1 view .LVU477
 1444              		.loc 1 470 18 is_stmt 0 view .LVU478
 1445 0470 C31A     		subs	r3, r0, r3
 1446              		.loc 1 403 7 view .LVU479
 1447 0472 77E6     		b	.L75
 1448              	.LVL184:
 1449              	.L239:
 1450              		.loc 1 374 7 is_stmt 1 view .LVU480
 1451              		.loc 1 374 10 is_stmt 0 view .LVU481
 1452 0474 18F0400F 		tst	r8, #64
 1453              		.loc 1 373 11 view .LVU482
 1454 0478 5549     		ldr	r1, .L248+4
 1455              		.loc 1 374 10 view .LVU483
 1456 047a 3FF410AF 		beq	.L65
 1457              		.loc 1 375 19 view .LVU484
 1458 047e 47F6FF77 		movw	r7, #32767
 1459              	.LVL185:
 1460              		.loc 1 375 19 view .LVU485
 1461 0482 0CE7     		b	.L65
 1462              	.LVL186:
 1463              	.L242:
 1464              	.LBB37:
 1465              	.LBB33:
 1466              		.loc 1 153 7 view .LVU486
 1467 0484 0DF11E00 		add	r0, sp, #30
 1468              	.LVL187:
 1469              		.loc 1 153 7 view .LVU487
 1470 0488 2F46     		mov	r7, r5
 1471 048a A0EB020E 		sub	lr, r0, r2
 1472              	.LVL188:
 1473              		.loc 1 150 16 view .LVU488
 1474 048e 5148     		ldr	r0, .L248+8
 1475              	.LVL189:
 1476              		.loc 1 153 7 view .LVU489
 1477 0490 019C     		ldr	r4, [sp, #4]
 1478              	.LVL190:
 1479              		.loc 1 153 7 view .LVU490
 1480 0492 029D     		ldr	r5, [sp, #8]
 1481              	.LVL191:
ARM GAS  C:\msys64\tmp\cc0CzZPe.s 			page 27


 1482              		.loc 1 150 16 view .LVU491
 1483 0494 C05D     		ldrb	r0, [r0, r7]	@ zero_extendqisi2
 1484              	.LVL192:
 1485              	.L77:
 1486              		.loc 1 150 3 is_stmt 1 view .LVU492
 1487              		.loc 1 153 3 view .LVU493
 1488              	.LBB25:
 1489              		.loc 1 141 10 is_stmt 0 view .LVU494
 1490 0496 04AF     		add	r7, sp, #16
 1491              	.LVL193:
 1492              		.loc 1 141 10 view .LVU495
 1493 0498 CDE90245 		strd	r4, r5, [sp, #8]
 1494 049c 0197     		str	r7, [sp, #4]
 1495              	.LBE25:
 1496              		.loc 1 168 12 view .LVU496
 1497 049e BE44     		add	lr, lr, r7
 1498 04a0 06E0     		b	.L86
 1499              	.LVL194:
 1500              	.L80:
 1501              	.LBB26:
 1502              		.loc 1 166 5 is_stmt 1 view .LVU497
 1503 04a2 2A46     		mov	r2, r5
 1504              	.LVL195:
 1505              		.loc 1 166 8 is_stmt 0 view .LVU498
 1506 04a4 7CB1     		cbz	r4, .L82
 1507              	.LVL196:
 1508              		.loc 1 167 5 is_stmt 1 view .LVU499
 1509              		.loc 1 167 10 is_stmt 0 view .LVU500
 1510 04a6 07F8013B 		strb	r3, [r7], #1
 1511              	.LVL197:
 1512              		.loc 1 167 10 view .LVU501
 1513              	.LBE26:
 1514              		.loc 1 168 12 is_stmt 1 view .LVU502
 1515 04aa 7745     		cmp	r7, lr
 1516 04ac 15D0     		beq	.L246
 1517              	.LVL198:
 1518              	.L85:
 1519              	.LBB27:
 1520              		.loc 1 157 10 is_stmt 0 view .LVU503
 1521 04ae 1378     		ldrb	r3, [r2]	@ zero_extendqisi2
 1522              	.L86:
 1523              	.LVL199:
 1524              		.loc 1 157 10 view .LVU504
 1525              	.LBE27:
 1526              		.loc 1 156 3 is_stmt 1 view .LVU505
 1527              	.LBB28:
 1528              		.loc 1 157 5 view .LVU506
 1529              		.loc 1 159 8 is_stmt 0 view .LVU507
 1530 04b0 202B     		cmp	r3, #32
 1531              		.loc 1 157 16 view .LVU508
 1532 04b2 02F10105 		add	r5, r2, #1
 1533              	.LVL200:
 1534              		.loc 1 159 5 is_stmt 1 view .LVU509
 1535 04b6 0CF00104 		and	r4, ip, #1
 1536              		.loc 1 159 8 is_stmt 0 view .LVU510
 1537 04ba F2D1     		bne	.L80
 1538              		.loc 1 160 7 is_stmt 1 view .LVU511
ARM GAS  C:\msys64\tmp\cc0CzZPe.s 			page 28


 1539              		.loc 1 160 10 is_stmt 0 view .LVU512
 1540 04bc FCB1     		cbz	r4, .L81
 1541              		.loc 1 161 9 is_stmt 1 view .LVU513
 1542              	.LVL201:
 1543              		.loc 1 162 9 view .LVU514
 1544              		.loc 1 162 14 is_stmt 0 view .LVU515
 1545 04be 0CF0FE0C 		and	ip, ip, #254
 1546              	.LVL202:
 1547              		.loc 1 166 5 is_stmt 1 view .LVU516
 1548              		.loc 1 157 16 is_stmt 0 view .LVU517
 1549 04c2 2A46     		mov	r2, r5
 1550              		.loc 1 161 11 view .LVU518
 1551 04c4 2E23     		movs	r3, #46
 1552              	.LVL203:
 1553              	.L82:
 1554              		.loc 1 166 29 discriminator 1 view .LVU519
 1555 04c6 B9F1000F 		cmp	r9, #0
 1556              		.loc 1 166 41 discriminator 1 view .LVU520
 1557 04ca 09F1FF34 		add	r4, r9, #-1
 1558              	.LVL204:
 1559              		.loc 1 166 29 discriminator 1 view .LVU521
 1560 04ce 5CDB     		blt	.L224
 1561              		.loc 1 167 10 view .LVU522
 1562 04d0 07F8013B 		strb	r3, [r7], #1
 1563              	.LVL205:
 1564              		.loc 1 167 10 view .LVU523
 1565              	.LBE28:
 1566              		.loc 1 168 12 view .LVU524
 1567 04d4 7745     		cmp	r7, lr
 1568              	.LBB29:
 1569              		.loc 1 166 41 discriminator 1 view .LVU525
 1570 04d6 A146     		mov	r9, r4
 1571              		.loc 1 167 5 is_stmt 1 view .LVU526
 1572              	.LVL206:
 1573              		.loc 1 167 5 is_stmt 0 view .LVU527
 1574              	.LBE29:
 1575              		.loc 1 168 12 is_stmt 1 view .LVU528
 1576 04d8 E9D1     		bne	.L85
 1577              	.LVL207:
 1578              	.L246:
 1579              		.loc 1 168 12 is_stmt 0 view .LVU529
 1580 04da DDE90245 		ldrd	r4, r5, [sp, #8]
 1581 04de 0CF0020C 		and	ip, ip, #2
 1582              	.LVL208:
 1583              	.L84:
 1584              		.loc 1 170 3 is_stmt 1 view .LVU530
 1585              		.loc 1 170 6 is_stmt 0 view .LVU531
 1586 04e2 BCF1000F 		cmp	ip, #0
 1587 04e6 04D0     		beq	.L87
 1588              		.loc 1 170 34 discriminator 1 view .LVU532
 1589 04e8 2028     		cmp	r0, #32
 1590              		.loc 1 171 5 is_stmt 1 view .LVU533
 1591              	.LVL209:
 1592              		.loc 1 171 10 is_stmt 0 view .LVU534
 1593 04ea 1CBF     		itt	ne
 1594 04ec 2023     		movne	r3, #32
 1595 04ee 07F8013B 		strbne	r3, [r7], #1
ARM GAS  C:\msys64\tmp\cc0CzZPe.s 			page 29


 1596              	.LVL210:
 1597              	.L87:
 1598              		.loc 1 172 3 is_stmt 1 view .LVU535
 1599              		.loc 1 172 8 is_stmt 0 view .LVU536
 1600 04f2 07F8010B 		strb	r0, [r7], #1
 1601              	.LVL211:
 1602              		.loc 1 173 3 is_stmt 1 view .LVU537
 1603              		.loc 1 173 3 is_stmt 0 view .LVU538
 1604              	.LBE33:
 1605              	.LBE37:
 1606              		.loc 1 406 7 is_stmt 1 view .LVU539
 1607              		.loc 1 470 18 is_stmt 0 view .LVU540
 1608 04f6 019B     		ldr	r3, [sp, #4]
 1609              		.loc 1 405 9 view .LVU541
 1610 04f8 8946     		mov	r9, r1
 1611              		.loc 1 470 18 view .LVU542
 1612 04fa FB1A     		subs	r3, r7, r3
 1613              		.loc 1 406 7 view .LVU543
 1614 04fc 32E6     		b	.L75
 1615              	.LVL212:
 1616              	.L81:
 1617              	.LBB38:
 1618              	.LBB34:
 1619              	.LBB30:
 1620              		.loc 1 163 14 is_stmt 1 view .LVU544
 1621              		.loc 1 163 17 is_stmt 0 view .LVU545
 1622 04fe BCF1000F 		cmp	ip, #0
 1623 0502 02D1     		bne	.L154
 1624              		.loc 1 164 9 is_stmt 1 view .LVU546
 1625              	.LVL213:
 1626              		.loc 1 164 11 is_stmt 0 view .LVU547
 1627 0504 5378     		ldrb	r3, [r2, #1]	@ zero_extendqisi2
 1628              	.LVL214:
 1629              		.loc 1 166 5 is_stmt 1 view .LVU548
 1630              		.loc 1 164 15 is_stmt 0 view .LVU549
 1631 0506 0232     		adds	r2, r2, #2
 1632              	.LVL215:
 1633              		.loc 1 164 15 view .LVU550
 1634 0508 DDE7     		b	.L82
 1635              	.LVL216:
 1636              	.L154:
 1637              		.loc 1 157 16 view .LVU551
 1638 050a 2A46     		mov	r2, r5
 1639              	.LVL217:
 1640              		.loc 1 157 16 view .LVU552
 1641 050c 4FF0020C 		mov	ip, #2
 1642              	.LVL218:
 1643              		.loc 1 157 16 view .LVU553
 1644 0510 D9E7     		b	.L82
 1645              	.LVL219:
 1646              	.L232:
 1647              		.loc 1 157 16 view .LVU554
 1648              	.LBE30:
 1649              	.LBE34:
 1650              	.LBE38:
 1651              		.loc 1 478 7 is_stmt 1 view .LVU555
 1652              		.loc 1 478 10 is_stmt 0 view .LVU556
ARM GAS  C:\msys64\tmp\cc0CzZPe.s 			page 30


 1653 0512 18F02C0F 		tst	r8, #44
 1654 0516 3BD1     		bne	.L163
 1655              		.loc 1 470 16 view .LVU557
 1656 0518 1D46     		mov	r5, r3
 1657              		.loc 1 473 14 discriminator 1 view .LVU558
 1658 051a 4FF0300B 		mov	fp, #48
 1659              		.loc 1 478 10 view .LVU559
 1660 051e 04A9     		add	r1, sp, #16
 1661              	.LVL220:
 1662              		.loc 1 478 10 view .LVU560
 1663 0520 D2E6     		b	.L128
 1664              	.LVL221:
 1665              	.L237:
 1666              		.loc 1 478 7 is_stmt 1 view .LVU561
 1667              		.loc 1 478 10 is_stmt 0 view .LVU562
 1668 0522 18F02C0F 		tst	r8, #44
 1669 0526 3FF494AE 		beq	.L171
 1670              		.loc 1 478 50 discriminator 1 view .LVU563
 1671 052a 18F0100F 		tst	r8, #16
 1672 052e 3FF490AE 		beq	.L171
 1673              	.LVL222:
 1674              	.L127:
 1675              		.loc 1 479 9 is_stmt 1 view .LVU564
 1676              		.loc 1 479 9 is_stmt 0 view .LVU565
 1677 0532 3268     		ldr	r2, [r6]
 1678 0534 9DF81010 		ldrb	r1, [sp, #16]	@ zero_extendqisi2
 1679 0538 9268     		ldr	r2, [r2, #8]
 1680 053a 0193     		str	r3, [sp, #4]
 1681 053c 3046     		mov	r0, r6
 1682 053e 9047     		blx	r2
 1683              	.LVL223:
 1684              		.loc 1 480 9 is_stmt 1 view .LVU566
 1685              		.loc 1 480 10 is_stmt 0 view .LVU567
 1686 0540 019B     		ldr	r3, [sp, #4]
 1687 0542 0AF1010A 		add	r10, r10, #1
 1688              	.LVL224:
 1689              		.loc 1 480 10 view .LVU568
 1690 0546 1D46     		mov	r5, r3
 1691              		.loc 1 479 9 view .LVU569
 1692 0548 0DF11101 		add	r1, sp, #17
 1693              	.LVL225:
 1694              		.loc 1 479 9 view .LVU570
 1695 054c BCE6     		b	.L128
 1696              	.LVL226:
 1697              	.L142:
 1698              		.loc 1 272 7 view .LVU571
 1699 054e 0B46     		mov	r3, r1
 1700              		.loc 1 288 7 is_stmt 1 view .LVU572
 1701              		.loc 1 501 1 is_stmt 0 view .LVU573
 1702 0550 1846     		mov	r0, r3
 1703              	.LVL227:
 1704              		.loc 1 501 1 view .LVU574
 1705 0552 0BB0     		add	sp, sp, #44
 1706              		.cfi_remember_state
 1707              		.cfi_def_cfa_offset 44
 1708              		@ sp needed
 1709 0554 BDEC028B 		vldm	sp!, {d8}
ARM GAS  C:\msys64\tmp\cc0CzZPe.s 			page 31


 1710              		.cfi_restore 80
 1711              		.cfi_restore 81
 1712              		.cfi_def_cfa_offset 36
 1713 0558 BDE8F08F 		pop	{r4, r5, r6, r7, r8, r9, r10, fp, pc}
 1714              	.LVL228:
 1715              	.L95:
 1716              		.cfi_restore_state
 1717              		.loc 1 432 7 is_stmt 1 view .LVU575
 1718              		.loc 1 432 10 is_stmt 0 view .LVU576
 1719 055c 18F0400F 		tst	r8, #64
 1720 0560 29D0     		beq	.L96
 1721              		.loc 1 433 9 is_stmt 1 view .LVU577
 1722              		.loc 1 433 55 is_stmt 0 view .LVU578
 1723 0562 462B     		cmp	r3, #70
 1724 0564 3ED0     		beq	.L158
 1725              		.loc 1 433 19 discriminator 4 view .LVU579
 1726 0566 0927     		movs	r7, #9
 1727              	.LVL229:
 1728              	.L98:
 1729              		.loc 1 434 53 discriminator 2 view .LVU580
 1730 0568 3946     		mov	r1, r7
 1731 056a B0EE480A 		vmov.f32	s0, s16
 1732 056e FFF7FEFF 		bl	ftoa
 1733              	.LVL230:
 1734 0572 0746     		mov	r7, r0
 1735              	.LVL231:
 1736              	.L116:
 1737              		.loc 1 436 7 is_stmt 1 view .LVU581
 1738              		.loc 1 436 10 is_stmt 0 view .LVU582
 1739 0574 18F0100F 		tst	r8, #16
 1740 0578 40F08A80 		bne	.L117
 1741              	.LVL232:
 1742              	.L227:
 1743              		.loc 1 470 5 is_stmt 1 view .LVU583
 1744              		.loc 1 470 18 is_stmt 0 view .LVU584
 1745 057c 0199     		ldr	r1, [sp, #4]
 1746 057e 7B1A     		subs	r3, r7, r1
 1747              	.LVL233:
 1748              		.loc 1 470 8 view .LVU585
 1749 0580 EB1A     		subs	r3, r5, r3
 1750              	.LVL234:
 1751              		.loc 1 470 8 view .LVU586
 1752 0582 7FF513AF 		bpl	.L119
 1753              	.LVL235:
 1754              		.loc 1 476 5 is_stmt 1 view .LVU587
 1755              		.loc 1 296 7 is_stmt 0 view .LVU588
 1756 0586 0199     		ldr	r1, [sp, #4]
 1757 0588 64E6     		b	.L132
 1758              	.LVL236:
 1759              	.L224:
 1760              		.loc 1 296 7 view .LVU589
 1761 058a DDE90245 		ldrd	r4, r5, [sp, #8]
 1762              	.LVL237:
 1763              		.loc 1 296 7 view .LVU590
 1764 058e A8E7     		b	.L84
 1765              	.LVL238:
 1766              	.L163:
ARM GAS  C:\msys64\tmp\cc0CzZPe.s 			page 32


 1767              		.loc 1 473 14 discriminator 1 view .LVU591
 1768 0590 4FF0300B 		mov	fp, #48
 1769 0594 CDE7     		b	.L127
 1770              	.LVL239:
 1771              	.L148:
 1772              		.loc 1 473 14 discriminator 1 view .LVU592
 1773 0596 2B23     		movs	r3, #43
 1774              	.LVL240:
 1775              	.L73:
 1776              		.loc 1 398 14 view .LVU593
 1777 0598 8DF81030 		strb	r3, [sp, #16]
 1778 059c 04AB     		add	r3, sp, #16
 1779              		.loc 1 395 11 view .LVU594
 1780 059e 0DF11100 		add	r0, sp, #17
 1781 05a2 0193     		str	r3, [sp, #4]
 1782 05a4 58E7     		b	.L72
 1783              	.LVL241:
 1784              	.L156:
 1785              		.loc 1 395 11 view .LVU595
 1786 05a6 2B22     		movs	r2, #43
 1787              	.L93:
 1788              		.loc 1 423 14 view .LVU596
 1789 05a8 8DF81020 		strb	r2, [sp, #16]
 1790 05ac 04AA     		add	r2, sp, #16
 1791              		.loc 1 420 11 view .LVU597
 1792 05ae 0DF11100 		add	r0, sp, #17
 1793 05b2 0192     		str	r2, [sp, #4]
 1794 05b4 17E7     		b	.L92
 1795              	.LVL242:
 1796              	.L96:
 1797              		.loc 1 434 7 is_stmt 1 view .LVU598
 1798              		.loc 1 434 51 is_stmt 0 view .LVU599
 1799 05b6 462B     		cmp	r3, #70
 1800 05b8 D6D1     		bne	.L98
 1801              		.loc 1 434 22 discriminator 1 view .LVU600
 1802 05ba 3BB2     		sxth	r3, r7
 1803 05bc 14E0     		b	.L97
 1804              	.LVL243:
 1805              	.L157:
 1806              		.loc 1 295 7 view .LVU601
 1807 05be 04A8     		add	r0, sp, #16
 1808 05c0 0190     		str	r0, [sp, #4]
 1809 05c2 10E7     		b	.L92
 1810              	.LVL244:
 1811              	.L149:
 1812              		.loc 1 295 7 view .LVU602
 1813 05c4 04A8     		add	r0, sp, #16
 1814 05c6 0190     		str	r0, [sp, #4]
 1815 05c8 46E7     		b	.L72
 1816              	.L249:
 1817 05ca 00BF     		.align	2
 1818              	.L248:
 1819 05cc CDCCCCCC 		.word	-858993459
 1820 05d0 00000000 		.word	.LC0
 1821 05d4 00000000 		.word	bigPrefix
 1822 05d8 00007A44 		.word	1148846080
 1823 05dc 6F12833A 		.word	981668463
ARM GAS  C:\msys64\tmp\cc0CzZPe.s 			page 33


 1824 05e0 FF237449 		.word	1232348159
 1825              	.LVL245:
 1826              	.L158:
 1827              		.loc 1 295 7 view .LVU603
 1828 05e4 0327     		movs	r7, #3
 1829              	.LVL246:
 1830              		.loc 1 433 19 discriminator 4 view .LVU604
 1831 05e6 3B46     		mov	r3, r7
 1832              	.L97:
 1833              	.LVL247:
 1834              	.LBB39:
 1835              	.LBI39:
 1836              		.loc 1 195 14 is_stmt 1 view .LVU605
 1837              	.LBB40:
 1838              		.loc 1 196 3 view .LVU606
 1839              		.loc 1 197 3 view .LVU607
 1840              		.loc 1 198 3 view .LVU608
 1841              		.loc 1 198 6 is_stmt 0 view .LVU609
 1842 05e8 1FED057A 		vldr.32	s14, .L248+12
 1843 05ec B4EEC78A 		vcmpe.f32	s16, s14
 1844 05f0 F1EE10FA 		vmrs	APSR_nzcv, FPSCR
 1845 05f4 67DB     		blt	.L219
 1846              		.loc 1 199 56 discriminator 4 view .LVU610
 1847 05f6 5FED076A 		vldr.32	s13, .L248+16
 1848              		.loc 1 199 34 discriminator 3 view .LVU611
 1849 05fa 1FED077A 		vldr.32	s14, .L248+20
 1850              		.loc 1 199 14 view .LVU612
 1851 05fe 504A     		ldr	r2, .L250
 1852              	.L102:
 1853              	.LVL248:
 1854              		.loc 1 199 65 is_stmt 1 discriminator 4 view .LVU613
 1855              		.loc 1 199 34 is_stmt 0 discriminator 1 view .LVU614
 1856 0600 12F8011F 		ldrb	r1, [r2, #1]!	@ zero_extendqisi2
 1857              	.LVL249:
 1858              		.loc 1 199 34 discriminator 1 view .LVU615
 1859 0604 F0EE487A 		vmov.f32	s15, s16
 1860              		.loc 1 199 56 discriminator 4 view .LVU616
 1861 0608 28EE268A 		vmul.f32	s16, s16, s13
 1862              	.LVL250:
 1863              		.loc 1 199 34 is_stmt 1 discriminator 1 view .LVU617
 1864              		.loc 1 199 34 is_stmt 0 discriminator 1 view .LVU618
 1865 060c 21B1     		cbz	r1, .L101
 1866              		.loc 1 199 34 discriminator 3 view .LVU619
 1867 060e F4EEC77A 		vcmpe.f32	s15, s14
 1868 0612 F1EE10FA 		vmrs	APSR_nzcv, FPSCR
 1869 0616 F3DA     		bge	.L102
 1870              	.L101:
 1871              		.loc 1 201 5 is_stmt 1 view .LVU620
 1872              		.loc 1 201 12 is_stmt 0 view .LVU621
 1873 0618 12F8012C 		ldrb	r2, [r2, #-1]	@ zero_extendqisi2
 1874              	.LVL251:
 1875              	.L103:
 1876              		.loc 1 208 3 is_stmt 1 view .LVU622
 1877              		.loc 1 208 6 is_stmt 0 view .LVU623
 1878 061c 0AB1     		cbz	r2, .L104
 1879              		.loc 1 209 5 is_stmt 1 view .LVU624
 1880              		.loc 1 209 14 is_stmt 0 view .LVU625
ARM GAS  C:\msys64\tmp\cc0CzZPe.s 			page 34


 1881 061e 013F     		subs	r7, r7, #1
 1882              	.LVL252:
 1883              		.loc 1 209 14 view .LVU626
 1884 0620 3BB2     		sxth	r3, r7
 1885              	.LVL253:
 1886              	.L104:
 1887              		.loc 1 212 3 is_stmt 1 view .LVU627
 1888              		.loc 1 212 12 is_stmt 0 view .LVU628
 1889 0622 FCEEC87A 		vcvt.u32.f32	s15, s16
 1890 0626 17EE901A 		vmov	r1, s15	@ int
 1891              	.LVL254:
 1892              		.loc 1 213 3 is_stmt 1 view .LVU629
 1893              		.loc 1 213 6 is_stmt 0 view .LVU630
 1894 062a 6329     		cmp	r1, #99
 1895 062c 54D9     		bls	.L110
 1896              		.loc 1 214 5 is_stmt 1 view .LVU631
 1897              		.loc 1 214 14 is_stmt 0 view .LVU632
 1898 062e 023B     		subs	r3, r3, #2
 1899              	.LVL255:
 1900              		.loc 1 214 14 view .LVU633
 1901 0630 1BB2     		sxth	r3, r3
 1902              	.LVL256:
 1903              	.L111:
 1904              		.loc 1 217 3 is_stmt 1 view .LVU634
 1905              		.loc 1 219 3 view .LVU635
 1906              		.loc 1 219 5 is_stmt 0 view .LVU636
 1907 0632 23EAE371 		bic	r1, r3, r3, asr #31
 1908              	.LVL257:
 1909              		.loc 1 219 5 view .LVU637
 1910 0636 B0EE480A 		vmov.f32	s0, s16
 1911 063a 0392     		str	r2, [sp, #12]
 1912              	.LVL258:
 1913              		.loc 1 219 5 view .LVU638
 1914 063c 0293     		str	r3, [sp, #8]
 1915 063e FFF7FEFF 		bl	ftoa
 1916              	.LVL259:
 1917              		.loc 1 221 6 view .LVU639
 1918 0642 029B     		ldr	r3, [sp, #8]
 1919 0644 039A     		ldr	r2, [sp, #12]
 1920 0646 002B     		cmp	r3, #0
 1921              		.loc 1 219 5 view .LVU640
 1922 0648 0746     		mov	r7, r0
 1923              	.LVL260:
 1924              		.loc 1 221 3 is_stmt 1 view .LVU641
 1925              		.loc 1 221 6 is_stmt 0 view .LVU642
 1926 064a 14DD     		ble	.L112
 1927              		.loc 1 222 17 is_stmt 1 discriminator 1 view .LVU643
 1928              		.loc 1 222 13 is_stmt 0 discriminator 1 view .LVU644
 1929 064c 10F8011C 		ldrb	r1, [r0, #-1]	@ zero_extendqisi2
 1930              		.loc 1 222 17 discriminator 1 view .LVU645
 1931 0650 3029     		cmp	r1, #48
 1932 0652 05D1     		bne	.L113
 1933 0654 431E     		subs	r3, r0, #1
 1934              	.LVL261:
 1935              	.L114:
 1936              		.loc 1 222 24 is_stmt 1 discriminator 2 view .LVU646
 1937              		.loc 1 222 17 discriminator 1 view .LVU647
ARM GAS  C:\msys64\tmp\cc0CzZPe.s 			page 35


 1938 0656 1F46     		mov	r7, r3
 1939              		.loc 1 222 13 is_stmt 0 discriminator 1 view .LVU648
 1940 0658 13F8011D 		ldrb	r1, [r3, #-1]!	@ zero_extendqisi2
 1941              	.LVL262:
 1942              		.loc 1 222 17 discriminator 1 view .LVU649
 1943 065c 3029     		cmp	r1, #48
 1944 065e FAD0     		beq	.L114
 1945              	.L113:
 1946              		.loc 1 223 5 is_stmt 1 view .LVU650
 1947              		.loc 1 223 16 is_stmt 0 view .LVU651
 1948 0660 384B     		ldr	r3, .L250+4
 1949 0662 9B8A     		ldrh	r3, [r3, #20]
 1950              		.loc 1 223 16 discriminator 1 view .LVU652
 1951 0664 13F0400F 		tst	r3, #64
 1952 0668 0CBF     		ite	eq
 1953 066a 2E23     		moveq	r3, #46
 1954 066c 2C23     		movne	r3, #44
 1955              		.loc 1 223 8 discriminator 4 view .LVU653
 1956 066e 9942     		cmp	r1, r3
 1957              		.loc 1 223 33 is_stmt 1 discriminator 5 view .LVU654
 1958              		.loc 1 223 34 is_stmt 0 discriminator 5 view .LVU655
 1959 0670 08BF     		it	eq
 1960 0672 07F1FF37 		addeq	r7, r7, #-1
 1961              	.LVL263:
 1962              	.L112:
 1963              		.loc 1 225 3 is_stmt 1 view .LVU656
 1964              		.loc 1 225 6 is_stmt 0 view .LVU657
 1965 0676 002A     		cmp	r2, #0
 1966 0678 3FF47CAF 		beq	.L116
 1967              		.loc 1 226 5 is_stmt 1 view .LVU658
 1968              	.LVL264:
 1969              		.loc 1 226 10 is_stmt 0 view .LVU659
 1970 067c 07F8012B 		strb	r2, [r7], #1
 1971              	.LVL265:
 1972              		.loc 1 226 10 view .LVU660
 1973 0680 78E7     		b	.L116
 1974              	.LVL266:
 1975              	.L164:
 1976              		.loc 1 226 10 view .LVU661
 1977              	.LBE40:
 1978              	.LBE39:
 1979              		.loc 1 470 16 view .LVU662
 1980 0682 1D46     		mov	r5, r3
 1981              		.loc 1 473 14 discriminator 2 view .LVU663
 1982 0684 4FF0200B 		mov	fp, #32
 1983              		.loc 1 368 9 discriminator 1 view .LVU664
 1984 0688 0DF11107 		add	r7, sp, #17
 1985              	.LVL267:
 1986              		.loc 1 296 7 view .LVU665
 1987 068c 04A9     		add	r1, sp, #16
 1988              	.LVL268:
 1989              		.loc 1 296 7 view .LVU666
 1990 068e 1BE6     		b	.L128
 1991              	.LVL269:
 1992              	.L117:
 1993              		.loc 1 437 9 is_stmt 1 view .LVU667
 1994              		.loc 1 438 17 is_stmt 0 discriminator 1 view .LVU668
ARM GAS  C:\msys64\tmp\cc0CzZPe.s 			page 36


 1995 0690 17F8012C 		ldrb	r2, [r7, #-1]	@ zero_extendqisi2
 1996              		.loc 1 438 21 discriminator 1 view .LVU669
 1997 0694 302A     		cmp	r2, #48
 1998              		.loc 1 437 14 view .LVU670
 1999 0696 88F01008 		eor	r8, r8, #16
 2000              	.LVL270:
 2001              		.loc 1 438 9 is_stmt 1 view .LVU671
 2002              		.loc 1 438 21 discriminator 1 view .LVU672
 2003 069a 05D1     		bne	.L120
 2004 069c 7B1E     		subs	r3, r7, #1
 2005              	.L121:
 2006              	.LVL271:
 2007              		.loc 1 438 28 discriminator 2 view .LVU673
 2008              		.loc 1 438 21 discriminator 1 view .LVU674
 2009 069e 1F46     		mov	r7, r3
 2010              		.loc 1 438 17 is_stmt 0 discriminator 1 view .LVU675
 2011 06a0 13F8012D 		ldrb	r2, [r3, #-1]!	@ zero_extendqisi2
 2012              	.LVL272:
 2013              		.loc 1 438 21 discriminator 1 view .LVU676
 2014 06a4 302A     		cmp	r2, #48
 2015 06a6 FAD0     		beq	.L121
 2016              	.L120:
 2017              		.loc 1 439 9 is_stmt 1 view .LVU677
 2018              		.loc 1 439 25 discriminator 1 view .LVU678
 2019              		.loc 1 439 12 is_stmt 0 view .LVU679
 2020 06a8 2E2A     		cmp	r2, #46
 2021              		.loc 1 439 26 discriminator 1 view .LVU680
 2022 06aa 08BF     		it	eq
 2023 06ac 07F1FF37 		addeq	r7, r7, #-1
 2024              	.LVL273:
 2025              		.loc 1 439 26 discriminator 1 view .LVU681
 2026 06b0 64E7     		b	.L227
 2027              	.LVL274:
 2028              	.L245:
 2029              		.loc 1 476 8 view .LVU682
 2030 06b2 0DF11107 		add	r7, sp, #17
 2031              	.LVL275:
 2032              		.loc 1 476 8 view .LVU683
 2033 06b6 04A9     		add	r1, sp, #16
 2034              	.LVL276:
 2035              		.loc 1 476 8 view .LVU684
 2036 06b8 63E5     		b	.L129
 2037              	.LVL277:
 2038              	.L151:
 2039              	.LBB43:
 2040              	.LBB35:
 2041              	.LBB31:
 2042              		.loc 1 142 8 view .LVU685
 2043 06ba 4FF0010E 		mov	lr, #1
 2044 06be 2020     		movs	r0, #32
 2045              	.LVL278:
 2046              		.loc 1 141 10 view .LVU686
 2047 06c0 0DF11D02 		add	r2, sp, #29
 2048              	.LVL279:
 2049              		.loc 1 141 10 view .LVU687
 2050 06c4 E7E6     		b	.L77
 2051              	.LVL280:
ARM GAS  C:\msys64\tmp\cc0CzZPe.s 			page 37


 2052              	.L219:
 2053              		.loc 1 141 10 view .LVU688
 2054              	.LBE31:
 2055              	.LBE35:
 2056              	.LBE43:
 2057              	.LBB44:
 2058              	.LBB41:
 2059              		.loc 1 203 8 is_stmt 1 view .LVU689
 2060              		.loc 1 203 11 is_stmt 0 view .LVU690
 2061 06c6 F7EE007A 		vmov.f32	s15, #1.0e+0
 2062 06ca B4EEE78A 		vcmpe.f32	s16, s15
 2063 06ce F1EE10FA 		vmrs	APSR_nzcv, FPSCR
 2064 06d2 11D4     		bmi	.L247
 2065              		.loc 1 196 8 view .LVU691
 2066 06d4 0022     		movs	r2, #0
 2067 06d6 A4E7     		b	.L104
 2068              	.LVL281:
 2069              	.L110:
 2070              		.loc 1 215 8 is_stmt 1 view .LVU692
 2071              		.loc 1 216 5 view .LVU693
 2072              		.loc 1 215 11 is_stmt 0 view .LVU694
 2073 06d8 0929     		cmp	r1, #9
 2074              		.loc 1 216 14 view .LVU695
 2075 06da 84BF     		itt	hi
 2076 06dc 03F1FF33 		addhi	r3, r3, #-1
 2077              	.LVL282:
 2078              		.loc 1 216 14 view .LVU696
 2079 06e0 1BB2     		sxthhi	r3, r3
 2080 06e2 A6E7     		b	.L111
 2081              	.LVL283:
 2082              	.L240:
 2083              		.loc 1 216 14 view .LVU697
 2084              	.LBE41:
 2085              	.LBE44:
 2086              		.loc 1 470 5 is_stmt 1 view .LVU698
 2087              		.loc 1 470 8 is_stmt 0 view .LVU699
 2088 06e4 002D     		cmp	r5, #0
 2089 06e6 FFF6A3AC 		blt	.L34
 2090              	.LVL284:
 2091              		.loc 1 476 5 is_stmt 1 view .LVU700
 2092              		.loc 1 476 8 is_stmt 0 view .LVU701
 2093 06ea 18F0020F 		tst	r8, #2
 2094 06ee 1ED0     		beq	.L140
 2095              		.loc 1 470 16 view .LVU702
 2096 06f0 2B46     		mov	r3, r5
 2097              		.loc 1 473 14 discriminator 2 view .LVU703
 2098 06f2 4FF0200B 		mov	fp, #32
 2099 06f6 5EE5     		b	.L136
 2100              	.LVL285:
 2101              	.L247:
 2102              	.LBB45:
 2103              	.LBB42:
 2104              		.loc 1 204 34 discriminator 3 view .LVU704
 2105 06f8 DFED136A 		vldr.32	s13, .L250+8
 2106              		.loc 1 204 14 view .LVU705
 2107 06fc 1349     		ldr	r1, .L250+12
 2108              	.L107:
ARM GAS  C:\msys64\tmp\cc0CzZPe.s 			page 38


 2109              	.LVL286:
 2110              		.loc 1 204 61 is_stmt 1 discriminator 4 view .LVU706
 2111              		.loc 1 204 29 is_stmt 0 discriminator 1 view .LVU707
 2112 06fe 11F8012F 		ldrb	r2, [r1, #1]!	@ zero_extendqisi2
 2113              	.LVL287:
 2114              		.loc 1 204 29 discriminator 1 view .LVU708
 2115 0702 F0EE487A 		vmov.f32	s15, s16
 2116              		.loc 1 204 52 discriminator 4 view .LVU709
 2117 0706 28EE078A 		vmul.f32	s16, s16, s14
 2118              	.LVL288:
 2119              		.loc 1 204 34 is_stmt 1 discriminator 1 view .LVU710
 2120              		.loc 1 204 34 is_stmt 0 discriminator 1 view .LVU711
 2121 070a 3AB1     		cbz	r2, .L106
 2122              		.loc 1 204 34 discriminator 3 view .LVU712
 2123 070c F4EEE67A 		vcmpe.f32	s15, s13
 2124 0710 F1EE10FA 		vmrs	APSR_nzcv, FPSCR
 2125 0714 F3D4     		bmi	.L107
 2126              	.L108:
 2127              		.loc 1 206 12 discriminator 1 view .LVU713
 2128 0716 11F8012C 		ldrb	r2, [r1, #-1]	@ zero_extendqisi2
 2129 071a 7FE7     		b	.L103
 2130              	.L106:
 2131              		.loc 1 206 5 is_stmt 1 view .LVU714
 2132              		.loc 1 206 12 is_stmt 0 view .LVU715
 2133 071c 9FED0C7A 		vldr.32	s14, .L250+16
 2134 0720 F4EEC77A 		vcmpe.f32	s15, s14
 2135 0724 F1EE10FA 		vmrs	APSR_nzcv, FPSCR
 2136 0728 7FF77BAF 		ble	.L104
 2137 072c F3E7     		b	.L108
 2138              	.LVL289:
 2139              	.L140:
 2140              		.loc 1 206 12 view .LVU716
 2141              	.LBE42:
 2142              	.LBE45:
 2143              		.loc 1 483 14 is_stmt 1 view .LVU717
 2144              		.loc 1 473 14 is_stmt 0 discriminator 2 view .LVU718
 2145 072e 4FF0200B 		mov	fp, #32
 2146              		.loc 1 483 14 view .LVU719
 2147 0732 002D     		cmp	r5, #0
 2148 0734 3FF47CAC 		beq	.L34
 2149 0738 0F46     		mov	r7, r1
 2150              	.LVL290:
 2151              		.loc 1 473 14 discriminator 2 view .LVU720
 2152 073a 4FF0200B 		mov	fp, #32
 2153 073e C5E5     		b	.L134
 2154              	.L251:
 2155              		.align	2
 2156              	.L250:
 2157 0740 01000000 		.word	bigPrefix+1
 2158 0744 00000000 		.word	config
 2159 0748 6F12833A 		.word	981668463
 2160 074c 00000000 		.word	smallPrefix
 2161 0750 BD378635 		.word	897988541
 2162              		.cfi_endproc
 2163              	.LFE244:
 2164              		.size	chvprintf, .-chvprintf
 2165              		.section	.text.plot_printf,"ax",%progbits
ARM GAS  C:\msys64\tmp\cc0CzZPe.s 			page 39


 2166              		.align	1
 2167              		.p2align 4,,15
 2168              		.global	plot_printf
 2169              		.syntax unified
 2170              		.thumb
 2171              		.thumb_func
 2172              		.type	plot_printf, %function
 2173              	plot_printf:
 2174              	.LVL291:
 2175              	.LFB246:
 2176              		.loc 1 622 60 is_stmt 1 view -0
 2177              		.cfi_startproc
 2178              		@ args = 4, pretend = 8, frame = 16
 2179              		@ frame_needed = 0, uses_anonymous_args = 1
 2180              		.loc 1 623 3 view .LVU722
 2181              		.loc 1 624 3 view .LVU723
 2182              		.loc 1 625 3 view .LVU724
 2183              		.loc 1 626 3 view .LVU725
 2184              		.loc 1 622 60 is_stmt 0 view .LVU726
 2185 0000 0CB4     		push	{r2, r3}
 2186              		.cfi_def_cfa_offset 8
 2187              		.cfi_offset 2, -8
 2188              		.cfi_offset 3, -4
 2189 0002 10B5     		push	{r4, lr}
 2190              		.cfi_def_cfa_offset 16
 2191              		.cfi_offset 4, -16
 2192              		.cfi_offset 14, -12
 2193              		.loc 1 626 6 view .LVU727
 2194 0004 0C1E     		subs	r4, r1, #0
 2195              		.loc 1 622 60 view .LVU728
 2196 0006 84B0     		sub	sp, sp, #16
 2197              		.cfi_def_cfa_offset 32
 2198              		.loc 1 626 6 view .LVU729
 2199 0008 15DD     		ble	.L254
 2200              		.loc 1 628 3 is_stmt 1 view .LVU730
 2201              		.loc 1 628 13 is_stmt 0 view .LVU731
 2202 000a 0E4B     		ldr	r3, .L256
 2203              		.loc 1 633 12 view .LVU732
 2204 000c 0699     		ldr	r1, [sp, #24]
 2205              	.LVL292:
 2206              		.loc 1 630 13 view .LVU733
 2207 000e ADF80C40 		strh	r4, [sp, #12]	@ movhi
 2208              		.loc 1 629 13 view .LVU734
 2209 0012 CDE90130 		strd	r3, r0, [sp, #4]
 2210              		.loc 1 630 3 is_stmt 1 view .LVU735
 2211              		.loc 1 632 3 view .LVU736
 2212 0016 07AA     		add	r2, sp, #28
 2213              		.loc 1 633 12 is_stmt 0 view .LVU737
 2214 0018 01A8     		add	r0, sp, #4
 2215              	.LVL293:
 2216              		.loc 1 632 3 view .LVU738
 2217 001a 0092     		str	r2, [sp]
 2218              		.loc 1 633 3 is_stmt 1 view .LVU739
 2219              		.loc 1 633 12 is_stmt 0 view .LVU740
 2220 001c FFF7FEFF 		bl	chvprintf
 2221              	.LVL294:
 2222              		.loc 1 635 7 view .LVU741
ARM GAS  C:\msys64\tmp\cc0CzZPe.s 			page 40


 2223 0020 029B     		ldr	r3, [sp, #8]
 2224              	.LVL295:
 2225              		.loc 1 634 3 is_stmt 1 view .LVU742
 2226              		.loc 1 635 3 view .LVU743
 2227              		.loc 1 635 15 is_stmt 0 view .LVU744
 2228 0022 0022     		movs	r2, #0
 2229              		.loc 1 636 6 view .LVU745
 2230 0024 8442     		cmp	r4, r0
 2231              		.loc 1 635 15 view .LVU746
 2232 0026 1A70     		strb	r2, [r3]
 2233              		.loc 1 636 3 is_stmt 1 view .LVU747
 2234              		.loc 1 636 6 is_stmt 0 view .LVU748
 2235 0028 00DC     		bgt	.L252
 2236              		.loc 1 636 24 is_stmt 1 discriminator 1 view .LVU749
 2237              		.loc 1 636 31 is_stmt 0 discriminator 1 view .LVU750
 2238 002a 601E     		subs	r0, r4, #1
 2239              	.LVL296:
 2240              	.L252:
 2241              		.loc 1 639 1 view .LVU751
 2242 002c 04B0     		add	sp, sp, #16
 2243              		.cfi_remember_state
 2244              		.cfi_def_cfa_offset 16
 2245              		@ sp needed
 2246 002e BDE81040 		pop	{r4, lr}
 2247              		.cfi_restore 14
 2248              		.cfi_restore 4
 2249              		.cfi_def_cfa_offset 8
 2250              	.LVL297:
 2251              		.loc 1 639 1 view .LVU752
 2252 0032 02B0     		add	sp, sp, #8
 2253              		.cfi_restore 3
 2254              		.cfi_restore 2
 2255              		.cfi_def_cfa_offset 0
 2256 0034 7047     		bx	lr
 2257              	.LVL298:
 2258              	.L254:
 2259              		.cfi_restore_state
 2260              		.loc 1 626 25 discriminator 1 view .LVU753
 2261 0036 0020     		movs	r0, #0
 2262              	.LVL299:
 2263              		.loc 1 639 1 view .LVU754
 2264 0038 04B0     		add	sp, sp, #16
 2265              		.cfi_def_cfa_offset 16
 2266              		@ sp needed
 2267 003a BDE81040 		pop	{r4, lr}
 2268              		.cfi_restore 14
 2269              		.cfi_restore 4
 2270              		.cfi_def_cfa_offset 8
 2271 003e 02B0     		add	sp, sp, #8
 2272              		.cfi_restore 3
 2273              		.cfi_restore 2
 2274              		.cfi_def_cfa_offset 0
 2275 0040 7047     		bx	lr
 2276              	.L257:
 2277 0042 00BF     		.align	2
 2278              	.L256:
 2279 0044 00000000 		.word	vmt
ARM GAS  C:\msys64\tmp\cc0CzZPe.s 			page 41


 2280              		.cfi_endproc
 2281              	.LFE246:
 2282              		.size	plot_printf, .-plot_printf
 2283              		.section	.rodata.vmt,"a"
 2284              		.align	2
 2285              		.type	vmt, %object
 2286              		.size	vmt, 16
 2287              	vmt:
 2288 0000 00000000 		.word	0
 2289 0004 00000000 		.word	0
 2290 0008 00000000 		.word	put
 2291 000c 00000000 		.word	0
 2292              		.section	.rodata.smallPrefix,"a"
 2293              		.align	2
 2294              		.type	smallPrefix, %object
 2295              		.size	smallPrefix, 9
 2296              	smallPrefix:
 2297 0000 6D1D6E70 		.ascii	"m\035npfazy\000"
 2297      66617A79 
 2297      00
 2298              		.section	.rodata.bigPrefix,"a"
 2299              		.align	2
 2300              		.type	bigPrefix, %object
 2301              		.size	bigPrefix, 10
 2302              	bigPrefix:
 2303 0000 206B4D47 		.ascii	" kMGTPEZY\000"
 2303      5450455A 
 2303      5900
 2304              		.section	.rodata.pow10,"a"
 2305              		.align	2
 2306              		.type	pow10, %object
 2307              		.size	pow10, 40
 2308              	pow10:
 2309 0000 01000000 		.word	1
 2310 0004 0A000000 		.word	10
 2311 0008 64000000 		.word	100
 2312 000c E8030000 		.word	1000
 2313 0010 10270000 		.word	10000
 2314 0014 A0860100 		.word	100000
 2315 0018 40420F00 		.word	1000000
 2316 001c 80969800 		.word	10000000
 2317 0020 00E1F505 		.word	100000000
 2318 0024 00CA9A3B 		.word	1000000000
 2319              		.text
 2320              	.Letext0:
 2321              		.file 2 "C:/Program Files (x86)/Arm GNU Toolchain arm-none-eabi/14.3 rel1/lib/gcc/arm-none-eabi/14
 2322              		.file 3 "C:/Program Files (x86)/Arm GNU Toolchain arm-none-eabi/14.3 rel1/arm-none-eabi/include/ma
 2323              		.file 4 "C:/Program Files (x86)/Arm GNU Toolchain arm-none-eabi/14.3 rel1/arm-none-eabi/include/sy
 2324              		.file 5 "ChibiOS/os/common/ports/ARMCMx/compilers/GCC/chtypes.h"
 2325              		.file 6 "ChibiOS/os/hal/include/hal_streams.h"
 2326              		.file 7 "nanovna.h"
 2327              		.file 8 "C:/Program Files (x86)/Arm GNU Toolchain arm-none-eabi/14.3 rel1/lib/gcc/arm-none-eabi/14
 2328              		.file 9 "<built-in>"
 2329              		.file 10 "C:/Program Files (x86)/Arm GNU Toolchain arm-none-eabi/14.3 rel1/arm-none-eabi/include/m