ARM GAS  C:\msys64\tmp\ccEoDG2C.s 			page 1


   1              		.cpu cortex-m4
   2              		.arch armv7e-m
   3              		.fpu fpv4-sp-d16
   4              		.eabi_attribute 27, 1
   5              		.eabi_attribute 28, 1
   6              		.eabi_attribute 23, 1
   7              		.eabi_attribute 24, 1
   8              		.eabi_attribute 25, 1
   9              		.eabi_attribute 26, 1
  10              		.eabi_attribute 30, 2
  11              		.eabi_attribute 34, 1
  12              		.eabi_attribute 18, 4
  13              		.file	"chschd.c"
  14              		.text
  15              	.Ltext0:
  16              		.cfi_sections	.debug_frame
  17              		.file 1 "ChibiOS/os/rt/src/chschd.c"
  18              		.section	.text._scheduler_init,"ax",%progbits
  19              		.align	1
  20              		.p2align 4,,15
  21              		.global	_scheduler_init
  22              		.syntax unified
  23              		.thumb
  24              		.thumb_func
  25              		.type	_scheduler_init, %function
  26              	_scheduler_init:
  27              	.LFB202:
  28              		.loc 1 65 28 view -0
  29              		.cfi_startproc
  30              		@ args = 0, pretend = 0, frame = 0
  31              		@ frame_needed = 0, uses_anonymous_args = 0
  32              		@ link register save eliminated.
  33 0000 024B     		ldr	r3, .L3
  34              		.loc 1 67 3 view .LVU1
  35              	.LVL0:
  36              	.LBB86:
  37              	.LBI86:
  38              		.file 2 "ChibiOS/os/rt/include/chschd.h"
  39              		.loc 2 548 20 view .LVU2
  40              	.LBB87:
  41              		.loc 2 550 3 view .LVU3
  42              		.loc 2 551 3 view .LVU4
  43              	.LBE87:
  44              	.LBE86:
  45              		.loc 1 68 17 is_stmt 0 view .LVU5
  46 0002 0022     		movs	r2, #0
  47              	.LBB89:
  48              	.LBB88:
  49              		.loc 2 550 13 view .LVU6
  50 0004 C3E90033 		strd	r3, r3, [r3]
  51              	.LVL1:
  52              		.loc 2 550 13 view .LVU7
  53              	.LBE88:
  54              	.LBE89:
  55              		.loc 1 68 3 is_stmt 1 view .LVU8
  56              		.loc 1 68 17 is_stmt 0 view .LVU9
  57 0008 9A60     		str	r2, [r3, #8]
ARM GAS  C:\msys64\tmp\ccEoDG2C.s 			page 2


  58              		.loc 1 73 1 view .LVU10
  59 000a 7047     		bx	lr
  60              	.L4:
  61              		.align	2
  62              	.L3:
  63 000c 00000000 		.word	ch
  64              		.cfi_endproc
  65              	.LFE202:
  66              		.size	_scheduler_init, .-_scheduler_init
  67              		.section	.text.chSchReadyI,"ax",%progbits
  68              		.align	1
  69              		.p2align 4,,15
  70              		.global	chSchReadyI
  71              		.syntax unified
  72              		.thumb
  73              		.thumb_func
  74              		.type	chSchReadyI, %function
  75              	chSchReadyI:
  76              	.LVL2:
  77              	.LFB203:
  78              		.loc 1 218 37 is_stmt 1 view -0
  79              		.cfi_startproc
  80              		@ args = 0, pretend = 0, frame = 0
  81              		@ frame_needed = 0, uses_anonymous_args = 0
  82              		@ link register save eliminated.
  83              		.loc 1 219 3 view .LVU12
  84              		.loc 1 221 21 view .LVU13
  85              		.loc 1 222 3 view .LVU14
  86              		.loc 1 222 3 view .LVU15
  87              		.loc 1 222 3 view .LVU16
  88              		.loc 1 223 3 view .LVU17
  89              		.loc 1 223 3 view .LVU18
  90              		.loc 1 223 3 view .LVU19
  91              		.loc 1 227 3 view .LVU20
  92              		.loc 1 227 13 is_stmt 0 view .LVU21
  93 0000 0022     		movs	r2, #0
  94              		.loc 1 231 26 discriminator 1 view .LVU22
  95 0002 8168     		ldr	r1, [r0, #8]
  96              		.loc 1 228 6 view .LVU23
  97 0004 054B     		ldr	r3, .L8
  98              		.loc 1 227 13 view .LVU24
  99 0006 0275     		strb	r2, [r0, #20]
 100              		.loc 1 228 3 is_stmt 1 view .LVU25
 101              	.L6:
 102              	.LVL3:
 103              		.loc 1 229 3 view .LVU26
 104              		.loc 1 230 5 view .LVU27
 105              		.loc 1 230 8 is_stmt 0 view .LVU28
 106 0008 1B68     		ldr	r3, [r3]
 107              	.LVL4:
 108              		.loc 1 231 21 is_stmt 1 discriminator 1 view .LVU29
 109 000a 9A68     		ldr	r2, [r3, #8]
 110 000c 8A42     		cmp	r2, r1
 111 000e FBD2     		bcs	.L6
 112              		.loc 1 233 3 view .LVU30
 113              		.loc 1 234 41 is_stmt 0 view .LVU31
 114 0010 5A68     		ldr	r2, [r3, #4]
ARM GAS  C:\msys64\tmp\ccEoDG2C.s 			page 3


 115              		.loc 1 234 30 view .LVU32
 116 0012 C0E90032 		strd	r3, r2, [r0]
 117              		.loc 1 235 3 is_stmt 1 view .LVU33
 118              		.loc 1 235 30 is_stmt 0 view .LVU34
 119 0016 1060     		str	r0, [r2]
 120              		.loc 1 236 3 is_stmt 1 view .LVU35
 121              		.loc 1 236 30 is_stmt 0 view .LVU36
 122 0018 5860     		str	r0, [r3, #4]
 123              		.loc 1 238 3 is_stmt 1 view .LVU37
 124              		.loc 1 239 1 is_stmt 0 view .LVU38
 125 001a 7047     		bx	lr
 126              	.L9:
 127              		.align	2
 128              	.L8:
 129 001c 00000000 		.word	ch
 130              		.cfi_endproc
 131              	.LFE203:
 132              		.size	chSchReadyI, .-chSchReadyI
 133              		.section	.text.wakeup,"ax",%progbits
 134              		.align	1
 135              		.p2align 4,,15
 136              		.syntax unified
 137              		.thumb
 138              		.thumb_func
 139              		.type	wakeup, %function
 140              	wakeup:
 141              	.LVL5:
 142              	.LFB206:
 143              		.loc 1 319 29 is_stmt 1 view -0
 144              		.cfi_startproc
 145              		@ args = 0, pretend = 0, frame = 0
 146              		@ frame_needed = 0, uses_anonymous_args = 0
 147              		.loc 1 320 3 view .LVU40
 148              		.loc 1 322 3 view .LVU41
 149              	.LBB90:
 150              	.LBI90:
 151              		.file 3 "ChibiOS/os/rt/include/chsys.h"
 152              		.loc 3 414 20 view .LVU42
 153              		.loc 3 416 3 view .LVU43
 154              	.LBB91:
 155              	.LBI91:
 156              		.file 4 "ChibiOS/os/common/ports/ARMCMx/chcore_v7m.h"
 157              		.loc 4 643 20 view .LVU44
 158              		.loc 4 645 3 view .LVU45
 159              	.LBB92:
 160              	.LBI92:
 161              		.loc 4 604 20 view .LVU46
 162              		.loc 4 612 3 view .LVU47
 163              	.LBB93:
 164              	.LBI93:
 165              		.file 5 "ChibiOS/os/common/ext/CMSIS/include/core_cmFunc.h"
 166              		.loc 5 546 57 view .LVU48
 167              	.LBB94:
 168              		.loc 5 548 3 view .LVU49
 169              	.LBE94:
 170              	.LBE93:
 171              	.LBE92:
ARM GAS  C:\msys64\tmp\ccEoDG2C.s 			page 4


 172              	.LBE91:
 173              	.LBE90:
 174              		.loc 1 319 29 is_stmt 0 view .LVU50
 175 0000 08B5     		push	{r3, lr}
 176              		.cfi_def_cfa_offset 8
 177              		.cfi_offset 3, -8
 178              		.cfi_offset 14, -4
 179              	.LBB99:
 180              	.LBB98:
 181              	.LBB97:
 182              	.LBB96:
 183              	.LBB95:
 184              		.loc 5 548 3 view .LVU51
 185 0002 2023     		movs	r3, #32
 186              		.syntax unified
 187              	@ 548 "ChibiOS/os/common/ext/CMSIS/include/core_cmFunc.h" 1
 188 0004 83F31188 		MSR basepri, r3
 189              	@ 0 "" 2
 190              	.LVL6:
 191              		.loc 5 548 3 view .LVU52
 192              		.thumb
 193              		.syntax unified
 194              	.LBE95:
 195              	.LBE96:
 196              	.LBE97:
 197              	.LBE98:
 198              		.loc 3 417 34 is_stmt 1 view .LVU53
 199              		.loc 3 418 29 view .LVU54
 200              	.LBE99:
 201              		.loc 1 323 3 view .LVU55
 202              		.loc 1 323 13 is_stmt 0 view .LVU56
 203 0008 037D     		ldrb	r3, [r0, #20]	@ zero_extendqisi2
 204              		.loc 1 323 3 view .LVU57
 205 000a 032B     		cmp	r3, #3
 206 000c 10D0     		beq	.L11
 207 000e 042B     		cmp	r3, #4
 208 0010 09D0     		beq	.L12
 209 0012 2BB1     		cbz	r3, .L16
 210              	.L13:
 211              		.loc 1 348 3 is_stmt 1 view .LVU58
 212              		.loc 1 348 16 is_stmt 0 view .LVU59
 213 0014 4FF0FF33 		mov	r3, #-1
 214 0018 8361     		str	r3, [r0, #24]
 215              		.loc 1 349 3 is_stmt 1 view .LVU60
 216              		.loc 1 349 10 is_stmt 0 view .LVU61
 217 001a FFF7FEFF 		bl	chSchReadyI
 218              	.LVL7:
 219              		.loc 1 350 3 is_stmt 1 view .LVU62
 220              	.LBB100:
 221              	.LBI100:
 222              		.loc 3 434 20 view .LVU63
 223              	.LBB101:
 224              		.loc 3 436 31 view .LVU64
 225              		.loc 3 437 33 view .LVU65
 226              		.loc 3 438 3 view .LVU66
 227              	.LBB102:
 228              	.LBI102:
ARM GAS  C:\msys64\tmp\ccEoDG2C.s 			page 5


 229              		.loc 4 654 20 view .LVU67
 230              		.loc 4 656 3 view .LVU68
 231              	.LBB103:
 232              	.LBI103:
 233              		.loc 4 628 20 view .LVU69
 234              		.loc 4 631 3 view .LVU70
 235              	.LBB104:
 236              	.LBI104:
 237              		.loc 5 546 57 view .LVU71
 238              	.LBB105:
 239              		.loc 5 548 3 view .LVU72
 240 001e 0023     		movs	r3, #0
 241              	.LVL8:
 242              	.L16:
 243              		.loc 5 548 3 is_stmt 0 view .LVU73
 244              		.syntax unified
 245              	@ 548 "ChibiOS/os/common/ext/CMSIS/include/core_cmFunc.h" 1
 246 0020 83F31188 		MSR basepri, r3
 247              	@ 0 "" 2
 248              		.thumb
 249              		.syntax unified
 250              	.LBE105:
 251              	.LBE104:
 252              	.LBE103:
 253              	.LBE102:
 254              	.LBE101:
 255              	.LBE100:
 256              		.loc 1 351 1 view .LVU74
 257 0024 08BD     		pop	{r3, pc}
 258              	.LVL9:
 259              	.L12:
 260              		.loc 1 342 5 is_stmt 1 view .LVU75
 261              	.LBB106:
 262              	.LBI106:
 263              		.loc 2 635 25 view .LVU76
 264              	.LBB107:
 265              		.loc 2 637 3 view .LVU77
 266              		.loc 2 637 41 is_stmt 0 view .LVU78
 267 0026 D0E90032 		ldrd	r3, r2, [r0]
 268              		.loc 2 637 30 view .LVU79
 269 002a 1360     		str	r3, [r2]
 270              		.loc 2 638 3 is_stmt 1 view .LVU80
 271              		.loc 2 638 30 is_stmt 0 view .LVU81
 272 002c 5A60     		str	r2, [r3, #4]
 273              		.loc 2 640 3 is_stmt 1 view .LVU82
 274              	.LVL10:
 275              		.loc 2 640 3 is_stmt 0 view .LVU83
 276              	.LBE107:
 277              	.LBE106:
 278              		.loc 1 343 5 is_stmt 1 view .LVU84
 279              	.LBB109:
 280              	.LBB108:
 281              		.loc 2 640 10 is_stmt 0 view .LVU85
 282 002e F1E7     		b	.L13
 283              	.L11:
 284              		.loc 2 640 10 view .LVU86
 285              	.LBE108:
ARM GAS  C:\msys64\tmp\ccEoDG2C.s 			page 6


 286              	.LBE109:
 287              		.loc 1 330 5 is_stmt 1 view .LVU87
 288              		.loc 1 330 11 is_stmt 0 view .LVU88
 289 0030 8369     		ldr	r3, [r0, #24]
 290              		.loc 1 330 18 view .LVU89
 291 0032 0022     		movs	r2, #0
 292 0034 1A60     		str	r2, [r3]
 293              		.loc 1 331 5 is_stmt 1 view .LVU90
 294 0036 EDE7     		b	.L13
 295              		.cfi_endproc
 296              	.LFE206:
 297              		.size	wakeup, .-wakeup
 298              		.section	.text.chSchReadyAheadI,"ax",%progbits
 299              		.align	1
 300              		.p2align 4,,15
 301              		.global	chSchReadyAheadI
 302              		.syntax unified
 303              		.thumb
 304              		.thumb_func
 305              		.type	chSchReadyAheadI, %function
 306              	chSchReadyAheadI:
 307              	.LVL11:
 308              	.LFB204:
 309              		.loc 1 257 42 view -0
 310              		.cfi_startproc
 311              		@ args = 0, pretend = 0, frame = 0
 312              		@ frame_needed = 0, uses_anonymous_args = 0
 313              		@ link register save eliminated.
 314              		.loc 1 258 3 view .LVU92
 315              		.loc 1 260 21 view .LVU93
 316              		.loc 1 261 3 view .LVU94
 317              		.loc 1 261 3 view .LVU95
 318              		.loc 1 261 3 view .LVU96
 319              		.loc 1 262 3 view .LVU97
 320              		.loc 1 262 3 view .LVU98
 321              		.loc 1 262 3 view .LVU99
 322              		.loc 1 266 3 view .LVU100
 323              		.loc 1 266 13 is_stmt 0 view .LVU101
 324 0000 0022     		movs	r2, #0
 325              		.loc 1 270 25 discriminator 1 view .LVU102
 326 0002 8168     		ldr	r1, [r0, #8]
 327              		.loc 1 267 6 view .LVU103
 328 0004 054B     		ldr	r3, .L20
 329              		.loc 1 266 13 view .LVU104
 330 0006 0275     		strb	r2, [r0, #20]
 331              		.loc 1 267 3 is_stmt 1 view .LVU105
 332              	.L18:
 333              	.LVL12:
 334              		.loc 1 268 3 view .LVU106
 335              		.loc 1 269 5 view .LVU107
 336              		.loc 1 269 8 is_stmt 0 view .LVU108
 337 0008 1B68     		ldr	r3, [r3]
 338              	.LVL13:
 339              		.loc 1 270 21 is_stmt 1 discriminator 1 view .LVU109
 340 000a 9A68     		ldr	r2, [r3, #8]
 341 000c 8A42     		cmp	r2, r1
 342 000e FBD8     		bhi	.L18
ARM GAS  C:\msys64\tmp\ccEoDG2C.s 			page 7


 343              		.loc 1 272 3 view .LVU110
 344              		.loc 1 273 41 is_stmt 0 view .LVU111
 345 0010 5A68     		ldr	r2, [r3, #4]
 346              		.loc 1 273 30 view .LVU112
 347 0012 C0E90032 		strd	r3, r2, [r0]
 348              		.loc 1 274 3 is_stmt 1 view .LVU113
 349              		.loc 1 274 30 is_stmt 0 view .LVU114
 350 0016 1060     		str	r0, [r2]
 351              		.loc 1 275 3 is_stmt 1 view .LVU115
 352              		.loc 1 275 30 is_stmt 0 view .LVU116
 353 0018 5860     		str	r0, [r3, #4]
 354              		.loc 1 277 3 is_stmt 1 view .LVU117
 355              		.loc 1 278 1 is_stmt 0 view .LVU118
 356 001a 7047     		bx	lr
 357              	.L21:
 358              		.align	2
 359              	.L20:
 360 001c 00000000 		.word	ch
 361              		.cfi_endproc
 362              	.LFE204:
 363              		.size	chSchReadyAheadI, .-chSchReadyAheadI
 364              		.section	.rodata.chSchGoSleepS.str1.4,"aMS",%progbits,1
 365              		.align	2
 366              	.LC0:
 367 0000 73746163 		.ascii	"stack overflow\000"
 367      6B206F76 
 367      6572666C 
 367      6F7700
 368              		.section	.text.chSchGoSleepS,"ax",%progbits
 369              		.align	1
 370              		.p2align 4,,15
 371              		.global	chSchGoSleepS
 372              		.syntax unified
 373              		.thumb
 374              		.thumb_func
 375              		.type	chSchGoSleepS, %function
 376              	chSchGoSleepS:
 377              	.LVL14:
 378              	.LFB205:
 379              		.loc 1 289 39 is_stmt 1 view -0
 380              		.cfi_startproc
 381              		@ args = 0, pretend = 0, frame = 0
 382              		@ frame_needed = 0, uses_anonymous_args = 0
 383              		.loc 1 290 3 view .LVU120
 384              		.loc 1 289 39 is_stmt 0 view .LVU121
 385 0000 38B5     		push	{r3, r4, r5, lr}
 386              		.cfi_def_cfa_offset 16
 387              		.cfi_offset 3, -16
 388              		.cfi_offset 4, -12
 389              		.cfi_offset 5, -8
 390              		.cfi_offset 14, -4
 391              		.loc 1 290 13 view .LVU122
 392 0002 104C     		ldr	r4, .L26
 393 0004 2569     		ldr	r5, [r4, #16]
 394              	.LVL15:
 395              		.loc 1 292 21 is_stmt 1 view .LVU123
 396              		.loc 1 295 3 view .LVU124
ARM GAS  C:\msys64\tmp\ccEoDG2C.s 			page 8


 397              	.LBB110:
 398              	.LBB111:
 399              		.loc 2 618 13 is_stmt 0 view .LVU125
 400 0006 2368     		ldr	r3, [r4]
 401              	.LBE111:
 402              	.LBE110:
 403              		.loc 1 295 14 view .LVU126
 404 0008 2875     		strb	r0, [r5, #20]
 405              		.loc 1 304 3 is_stmt 1 view .LVU127
 406              	.LVL16:
 407              	.LBB114:
 408              	.LBI110:
 409              		.loc 2 617 25 view .LVU128
 410              	.LBB112:
 411              		.loc 2 618 3 view .LVU129
 412              		.loc 2 620 3 view .LVU130
 413              		.loc 2 620 36 is_stmt 0 view .LVU131
 414 000a 1A68     		ldr	r2, [r3]
 415              		.loc 2 620 25 view .LVU132
 416 000c 2260     		str	r2, [r4]
 417              		.loc 2 621 3 is_stmt 1 view .LVU133
 418              		.loc 2 623 3 view .LVU134
 419              	.LVL17:
 420              		.loc 2 623 3 is_stmt 0 view .LVU135
 421              	.LBE112:
 422              	.LBE114:
 423              		.loc 1 305 16 view .LVU136
 424 000e 0121     		movs	r1, #1
 425              	.LBB115:
 426              	.LBB113:
 427              		.loc 2 621 25 view .LVU137
 428 0010 5460     		str	r4, [r2, #4]
 429              	.LBE113:
 430              	.LBE115:
 431              		.loc 1 304 9 discriminator 1 view .LVU138
 432 0012 2361     		str	r3, [r4, #16]
 433              		.loc 1 305 3 is_stmt 1 view .LVU139
 434              		.loc 1 305 16 is_stmt 0 view .LVU140
 435 0014 1975     		strb	r1, [r3, #20]
 436              		.loc 1 308 3 is_stmt 1 view .LVU141
 437              		.loc 1 309 5 view .LVU142
 438              		.loc 1 309 29 view .LVU143
 439              		.loc 1 313 3 view .LVU144
 440              		.loc 1 313 3 view .LVU145
 441              		.loc 1 313 3 view .LVU146
 442              		.loc 1 313 3 view .LVU147
 443              	.LBB116:
 444              		.loc 1 313 3 view .LVU148
 445              	.LBB117:
 446              	.LBI117:
 447              		.loc 5 426 61 view .LVU149
 448              	.LBB118:
 449              		.loc 5 428 3 view .LVU150
 450              		.loc 5 430 3 view .LVU151
 451              		.syntax unified
 452              	@ 430 "ChibiOS/os/common/ext/CMSIS/include/core_cmFunc.h" 1
 453 0016 EFF30982 		MRS r2, psp
ARM GAS  C:\msys64\tmp\ccEoDG2C.s 			page 9


 454              	
 455              	@ 0 "" 2
 456              	.LVL18:
 457              		.loc 5 431 3 view .LVU152
 458              		.loc 5 431 3 is_stmt 0 view .LVU153
 459              		.thumb
 460              		.syntax unified
 461              	.LBE118:
 462              	.LBE117:
 463              		.loc 1 313 3 is_stmt 1 discriminator 1 view .LVU154
 464 001a 2969     		ldr	r1, [r5, #16]
 465 001c 643A     		subs	r2, r2, #100
 466              	.LVL19:
 467              		.loc 1 313 3 is_stmt 0 discriminator 1 view .LVU155
 468 001e 9142     		cmp	r1, r2
 469 0020 05D8     		bhi	.L25
 470              		.loc 1 313 3 is_stmt 1 discriminator 3 view .LVU156
 471 0022 2946     		mov	r1, r5
 472 0024 1846     		mov	r0, r3
 473              	.LVL20:
 474              		.loc 1 313 3 is_stmt 0 discriminator 3 view .LVU157
 475              	.LBE116:
 476              		.loc 1 314 1 view .LVU158
 477 0026 BDE83840 		pop	{r3, r4, r5, lr}
 478              		.cfi_remember_state
 479              		.cfi_restore 14
 480              		.cfi_restore 5
 481              		.cfi_restore 4
 482              		.cfi_restore 3
 483              		.cfi_def_cfa_offset 0
 484              	.LVL21:
 485              	.LBB119:
 486              		.loc 1 313 3 discriminator 3 view .LVU159
 487 002a FFF7FEBF 		b	_port_switch
 488              	.LVL22:
 489              	.L25:
 490              		.cfi_restore_state
 491              		.loc 1 313 3 is_stmt 1 discriminator 1 view .LVU160
 492 002e 0648     		ldr	r0, .L26+4
 493              	.LVL23:
 494              		.loc 1 313 3 is_stmt 0 discriminator 1 view .LVU161
 495 0030 FFF7FEFF 		bl	chSysHalt
 496              	.LVL24:
 497              		.loc 1 313 3 discriminator 3 view .LVU162
 498 0034 2369     		ldr	r3, [r4, #16]
 499              		.loc 1 313 3 is_stmt 1 discriminator 3 view .LVU163
 500 0036 2946     		mov	r1, r5
 501 0038 1846     		mov	r0, r3
 502              	.LBE119:
 503              		.loc 1 314 1 is_stmt 0 view .LVU164
 504 003a BDE83840 		pop	{r3, r4, r5, lr}
 505              		.cfi_restore 14
 506              		.cfi_restore 5
 507              		.cfi_restore 4
 508              		.cfi_restore 3
 509              		.cfi_def_cfa_offset 0
 510              	.LVL25:
ARM GAS  C:\msys64\tmp\ccEoDG2C.s 			page 10


 511              	.LBB120:
 512              		.loc 1 313 3 discriminator 3 view .LVU165
 513 003e FFF7FEBF 		b	_port_switch
 514              	.LVL26:
 515              	.L27:
 516              		.loc 1 313 3 discriminator 3 view .LVU166
 517 0042 00BF     		.align	2
 518              	.L26:
 519 0044 00000000 		.word	ch
 520 0048 00000000 		.word	.LC0
 521              	.LBE120:
 522              		.cfi_endproc
 523              	.LFE205:
 524              		.size	chSchGoSleepS, .-chSchGoSleepS
 525              		.section	.text.chSchGoSleepTimeoutS,"ax",%progbits
 526              		.align	1
 527              		.p2align 4,,15
 528              		.global	chSchGoSleepTimeoutS
 529              		.syntax unified
 530              		.thumb
 531              		.thumb_func
 532              		.type	chSchGoSleepTimeoutS, %function
 533              	chSchGoSleepTimeoutS:
 534              	.LVL27:
 535              	.LFB207:
 536              		.loc 1 374 63 is_stmt 1 view -0
 537              		.cfi_startproc
 538              		@ args = 0, pretend = 0, frame = 24
 539              		@ frame_needed = 0, uses_anonymous_args = 0
 540              		.loc 1 376 21 view .LVU168
 541              		.loc 1 378 3 view .LVU169
 542              		.loc 1 374 63 is_stmt 0 view .LVU170
 543 0000 30B5     		push	{r4, r5, lr}
 544              		.cfi_def_cfa_offset 12
 545              		.cfi_offset 4, -12
 546              		.cfi_offset 5, -8
 547              		.cfi_offset 14, -4
 548              		.loc 1 378 6 view .LVU171
 549 0002 4B1C     		adds	r3, r1, #1
 550              		.loc 1 374 63 view .LVU172
 551 0004 87B0     		sub	sp, sp, #28
 552              		.cfi_def_cfa_offset 40
 553              		.loc 1 378 6 view .LVU173
 554 0006 12D0     		beq	.L29
 555              	.LBB121:
 556              		.loc 1 379 5 is_stmt 1 view .LVU174
 557              		.loc 1 381 5 view .LVU175
 558              		.loc 1 381 35 is_stmt 0 view .LVU176
 559 0008 0C4D     		ldr	r5, .L36
 560              		.loc 1 381 5 view .LVU177
 561 000a 0D4A     		ldr	r2, .L36+4
 562 000c 2B69     		ldr	r3, [r5, #16]
 563 000e 0446     		mov	r4, r0
 564 0010 01A8     		add	r0, sp, #4
 565              	.LVL28:
 566              		.loc 1 381 5 view .LVU178
 567 0012 FFF7FEFF 		bl	chVTDoSetI
ARM GAS  C:\msys64\tmp\ccEoDG2C.s 			page 11


 568              	.LVL29:
 569              		.loc 1 382 5 is_stmt 1 view .LVU179
 570 0016 2046     		mov	r0, r4
 571 0018 FFF7FEFF 		bl	chSchGoSleepS
 572              	.LVL30:
 573              		.loc 1 383 5 view .LVU180
 574              	.LBB122:
 575              	.LBI122:
 576              		.file 6 "ChibiOS/os/rt/include/chvt.h"
 577              		.loc 6 373 20 view .LVU181
 578              	.LBB123:
 579              		.loc 6 375 21 view .LVU182
 580              		.loc 6 377 3 view .LVU183
 581              		.loc 6 377 3 is_stmt 0 view .LVU184
 582              	.LBE123:
 583              	.LBE122:
 584              		.loc 1 383 8 discriminator 1 view .LVU185
 585 001c 049B     		ldr	r3, [sp, #16]
 586 001e 13B1     		cbz	r3, .L31
 587              		.loc 1 384 7 is_stmt 1 view .LVU186
 588 0020 01A8     		add	r0, sp, #4
 589 0022 FFF7FEFF 		bl	chVTDoResetI
 590              	.LVL31:
 591              	.L31:
 592              	.LBE121:
 593              		.loc 1 391 3 view .LVU187
 594              		.loc 1 391 18 is_stmt 0 view .LVU188
 595 0026 2B69     		ldr	r3, [r5, #16]
 596              		.loc 1 392 1 view .LVU189
 597 0028 9869     		ldr	r0, [r3, #24]
 598 002a 07B0     		add	sp, sp, #28
 599              		.cfi_remember_state
 600              		.cfi_def_cfa_offset 12
 601              		@ sp needed
 602 002c 30BD     		pop	{r4, r5, pc}
 603              	.LVL32:
 604              	.L29:
 605              		.cfi_restore_state
 606              		.loc 1 388 5 is_stmt 1 view .LVU190
 607 002e 034D     		ldr	r5, .L36
 608 0030 FFF7FEFF 		bl	chSchGoSleepS
 609              	.LVL33:
 610              		.loc 1 391 3 view .LVU191
 611              		.loc 1 391 18 is_stmt 0 view .LVU192
 612 0034 2B69     		ldr	r3, [r5, #16]
 613              		.loc 1 392 1 view .LVU193
 614 0036 9869     		ldr	r0, [r3, #24]
 615 0038 07B0     		add	sp, sp, #28
 616              		.cfi_def_cfa_offset 12
 617              		@ sp needed
 618 003a 30BD     		pop	{r4, r5, pc}
 619              	.L37:
 620              		.align	2
 621              	.L36:
 622 003c 00000000 		.word	ch
 623 0040 00000000 		.word	wakeup
 624              		.cfi_endproc
ARM GAS  C:\msys64\tmp\ccEoDG2C.s 			page 12


 625              	.LFE207:
 626              		.size	chSchGoSleepTimeoutS, .-chSchGoSleepTimeoutS
 627              		.section	.text.chSchWakeupS,"ax",%progbits
 628              		.align	1
 629              		.p2align 4,,15
 630              		.global	chSchWakeupS
 631              		.syntax unified
 632              		.thumb
 633              		.thumb_func
 634              		.type	chSchWakeupS, %function
 635              	chSchWakeupS:
 636              	.LVL34:
 637              	.LFB208:
 638              		.loc 1 411 45 is_stmt 1 view -0
 639              		.cfi_startproc
 640              		@ args = 0, pretend = 0, frame = 0
 641              		@ frame_needed = 0, uses_anonymous_args = 0
 642              		.loc 1 412 3 view .LVU195
 643              		.loc 1 411 45 is_stmt 0 view .LVU196
 644 0000 70B5     		push	{r4, r5, r6, lr}
 645              		.cfi_def_cfa_offset 16
 646              		.cfi_offset 4, -16
 647              		.cfi_offset 5, -12
 648              		.cfi_offset 6, -8
 649              		.cfi_offset 14, -4
 650              		.loc 1 412 13 view .LVU197
 651 0002 144E     		ldr	r6, .L43
 652              		.loc 1 422 17 view .LVU198
 653 0004 8161     		str	r1, [r0, #24]
 654              		.loc 1 412 13 view .LVU199
 655 0006 3369     		ldr	r3, [r6, #16]
 656              	.LVL35:
 657              		.loc 1 414 21 is_stmt 1 view .LVU200
 658              		.loc 1 416 3 view .LVU201
 659              		.loc 1 416 3 view .LVU202
 660              		.loc 1 416 3 view .LVU203
 661              		.loc 1 422 3 view .LVU204
 662              		.loc 1 428 3 view .LVU205
 663              		.loc 1 428 6 is_stmt 0 view .LVU206
 664 0008 8168     		ldr	r1, [r0, #8]
 665              	.LVL36:
 666              		.loc 1 428 6 view .LVU207
 667 000a 9A68     		ldr	r2, [r3, #8]
 668 000c 9142     		cmp	r1, r2
 669 000e 03D8     		bhi	.L39
 670              		.loc 1 429 5 is_stmt 1 view .LVU208
 671              		.loc 1 446 1 is_stmt 0 view .LVU209
 672 0010 BDE87040 		pop	{r4, r5, r6, lr}
 673              		.cfi_remember_state
 674              		.cfi_restore 14
 675              		.cfi_restore 6
 676              		.cfi_restore 5
 677              		.cfi_restore 4
 678              		.cfi_def_cfa_offset 0
 679              		.loc 1 429 12 view .LVU210
 680 0014 FFF7FEBF 		b	chSchReadyI
 681              	.LVL37:
ARM GAS  C:\msys64\tmp\ccEoDG2C.s 			page 13


 682              	.L39:
 683              		.cfi_restore_state
 684              		.loc 1 429 12 view .LVU211
 685 0018 0446     		mov	r4, r0
 686              		.loc 1 432 5 is_stmt 1 view .LVU212
 687              		.loc 1 432 11 is_stmt 0 view .LVU213
 688 001a 1846     		mov	r0, r3
 689              	.LVL38:
 690              		.loc 1 432 11 view .LVU214
 691 001c FFF7FEFF 		bl	chSchReadyI
 692              	.LVL39:
 693              		.loc 1 441 16 view .LVU215
 694 0020 0123     		movs	r3, #1
 695              		.loc 1 432 11 view .LVU216
 696 0022 0546     		mov	r5, r0
 697              	.LVL40:
 698              		.loc 1 435 5 is_stmt 1 view .LVU217
 699              		.loc 1 436 7 view .LVU218
 700              		.loc 1 436 31 view .LVU219
 701              		.loc 1 440 5 view .LVU220
 702              		.loc 1 440 11 is_stmt 0 view .LVU221
 703 0024 3461     		str	r4, [r6, #16]
 704              		.loc 1 441 5 is_stmt 1 view .LVU222
 705              		.loc 1 441 16 is_stmt 0 view .LVU223
 706 0026 2375     		strb	r3, [r4, #20]
 707              		.loc 1 444 5 is_stmt 1 view .LVU224
 708              		.loc 1 444 5 view .LVU225
 709              		.loc 1 444 5 view .LVU226
 710              		.loc 1 444 5 view .LVU227
 711              	.LBB124:
 712              		.loc 1 444 5 view .LVU228
 713              	.LBB125:
 714              	.LBI125:
 715              		.loc 5 426 61 view .LVU229
 716              	.LBB126:
 717              		.loc 5 428 3 view .LVU230
 718              		.loc 5 430 3 view .LVU231
 719              		.syntax unified
 720              	@ 430 "ChibiOS/os/common/ext/CMSIS/include/core_cmFunc.h" 1
 721 0028 EFF30983 		MRS r3, psp
 722              	
 723              	@ 0 "" 2
 724              	.LVL41:
 725              		.loc 5 431 3 view .LVU232
 726              		.loc 5 431 3 is_stmt 0 view .LVU233
 727              		.thumb
 728              		.syntax unified
 729              	.LBE126:
 730              	.LBE125:
 731              		.loc 1 444 5 is_stmt 1 discriminator 1 view .LVU234
 732 002c 0269     		ldr	r2, [r0, #16]
 733 002e 643B     		subs	r3, r3, #100
 734              	.LVL42:
 735              		.loc 1 444 5 is_stmt 0 discriminator 1 view .LVU235
 736 0030 9A42     		cmp	r2, r3
 737 0032 05D8     		bhi	.L42
 738              		.loc 1 444 5 is_stmt 1 discriminator 3 view .LVU236
ARM GAS  C:\msys64\tmp\ccEoDG2C.s 			page 14


 739 0034 2946     		mov	r1, r5
 740 0036 2046     		mov	r0, r4
 741              	.LVL43:
 742              		.loc 1 444 5 is_stmt 0 discriminator 3 view .LVU237
 743              	.LBE124:
 744              		.loc 1 446 1 view .LVU238
 745 0038 BDE87040 		pop	{r4, r5, r6, lr}
 746              		.cfi_remember_state
 747              		.cfi_restore 14
 748              		.cfi_restore 6
 749              		.cfi_restore 5
 750              		.cfi_restore 4
 751              		.cfi_def_cfa_offset 0
 752              	.LVL44:
 753              	.LBB127:
 754              		.loc 1 444 5 discriminator 3 view .LVU239
 755 003c FFF7FEBF 		b	_port_switch
 756              	.LVL45:
 757              	.L42:
 758              		.cfi_restore_state
 759              		.loc 1 444 5 is_stmt 1 discriminator 1 view .LVU240
 760 0040 0548     		ldr	r0, .L43+4
 761              	.LVL46:
 762              		.loc 1 444 5 is_stmt 0 discriminator 1 view .LVU241
 763 0042 FFF7FEFF 		bl	chSysHalt
 764              	.LVL47:
 765              		.loc 1 444 5 is_stmt 1 discriminator 3 view .LVU242
 766 0046 2946     		mov	r1, r5
 767 0048 2046     		mov	r0, r4
 768              	.LBE127:
 769              		.loc 1 446 1 is_stmt 0 view .LVU243
 770 004a BDE87040 		pop	{r4, r5, r6, lr}
 771              		.cfi_restore 14
 772              		.cfi_restore 6
 773              		.cfi_restore 5
 774              		.cfi_restore 4
 775              		.cfi_def_cfa_offset 0
 776              	.LVL48:
 777              	.LBB128:
 778              		.loc 1 444 5 discriminator 3 view .LVU244
 779 004e FFF7FEBF 		b	_port_switch
 780              	.LVL49:
 781              	.L44:
 782              		.loc 1 444 5 discriminator 3 view .LVU245
 783 0052 00BF     		.align	2
 784              	.L43:
 785 0054 00000000 		.word	ch
 786 0058 00000000 		.word	.LC0
 787              	.LBE128:
 788              		.cfi_endproc
 789              	.LFE208:
 790              		.size	chSchWakeupS, .-chSchWakeupS
 791              		.section	.text.chSchIsPreemptionRequired,"ax",%progbits
 792              		.align	1
 793              		.p2align 4,,15
 794              		.global	chSchIsPreemptionRequired
 795              		.syntax unified
ARM GAS  C:\msys64\tmp\ccEoDG2C.s 			page 15


 796              		.thumb
 797              		.thumb_func
 798              		.type	chSchIsPreemptionRequired, %function
 799              	chSchIsPreemptionRequired:
 800              	.LFB210:
 801              		.loc 1 477 38 is_stmt 1 view -0
 802              		.cfi_startproc
 803              		@ args = 0, pretend = 0, frame = 0
 804              		@ frame_needed = 0, uses_anonymous_args = 0
 805              		@ link register save eliminated.
 806              		.loc 1 478 3 view .LVU247
 807              	.LVL50:
 808              		.loc 1 479 3 view .LVU248
 809              		.loc 1 490 3 view .LVU249
 810              		.loc 1 478 16 is_stmt 0 view .LVU250
 811 0000 044B     		ldr	r3, .L46
 812              	.LVL51:
 813              		.loc 1 478 11 view .LVU251
 814 0002 1A68     		ldr	r2, [r3]
 815              		.loc 1 479 11 view .LVU252
 816 0004 1B69     		ldr	r3, [r3, #16]
 817              	.LVL52:
 818              		.loc 1 490 13 view .LVU253
 819 0006 9068     		ldr	r0, [r2, #8]
 820 0008 9B68     		ldr	r3, [r3, #8]
 821              		.loc 1 492 1 view .LVU254
 822 000a 9842     		cmp	r0, r3
 823 000c 94BF     		ite	ls
 824 000e 0020     		movls	r0, #0
 825 0010 0120     		movhi	r0, #1
 826 0012 7047     		bx	lr
 827              	.L47:
 828              		.align	2
 829              	.L46:
 830 0014 00000000 		.word	ch
 831              		.cfi_endproc
 832              	.LFE210:
 833              		.size	chSchIsPreemptionRequired, .-chSchIsPreemptionRequired
 834              		.section	.text.chSchDoRescheduleBehind,"ax",%progbits
 835              		.align	1
 836              		.p2align 4,,15
 837              		.global	chSchDoRescheduleBehind
 838              		.syntax unified
 839              		.thumb
 840              		.thumb_func
 841              		.type	chSchDoRescheduleBehind, %function
 842              	chSchDoRescheduleBehind:
 843              	.LFB211:
 844              		.loc 1 504 36 is_stmt 1 view -0
 845              		.cfi_startproc
 846              		@ args = 0, pretend = 0, frame = 0
 847              		@ frame_needed = 0, uses_anonymous_args = 0
 848              		.loc 1 505 3 view .LVU256
 849              		.loc 1 504 36 is_stmt 0 view .LVU257
 850 0000 38B5     		push	{r3, r4, r5, lr}
 851              		.cfi_def_cfa_offset 16
 852              		.cfi_offset 3, -16
ARM GAS  C:\msys64\tmp\ccEoDG2C.s 			page 16


 853              		.cfi_offset 4, -12
 854              		.cfi_offset 5, -8
 855              		.cfi_offset 14, -4
 856              		.loc 1 505 13 view .LVU258
 857 0002 104C     		ldr	r4, .L52
 858              	.LVL53:
 859              		.loc 1 508 3 is_stmt 1 view .LVU259
 860              	.LBB129:
 861              	.LBI129:
 862              		.loc 2 617 25 view .LVU260
 863              	.LBB130:
 864              		.loc 2 618 3 view .LVU261
 865              		.loc 2 618 13 is_stmt 0 view .LVU262
 866 0004 2368     		ldr	r3, [r4]
 867              	.LVL54:
 868              		.loc 2 620 3 is_stmt 1 view .LVU263
 869              	.LBE130:
 870              	.LBE129:
 871              		.loc 1 522 9 is_stmt 0 view .LVU264
 872 0006 2069     		ldr	r0, [r4, #16]
 873              	.LBB133:
 874              	.LBB131:
 875              		.loc 2 620 36 view .LVU265
 876 0008 1A68     		ldr	r2, [r3]
 877              		.loc 2 620 25 view .LVU266
 878 000a 2260     		str	r2, [r4]
 879              		.loc 2 621 3 is_stmt 1 view .LVU267
 880              		.loc 2 623 3 view .LVU268
 881              	.LVL55:
 882              		.loc 2 623 3 is_stmt 0 view .LVU269
 883              	.LBE131:
 884              	.LBE133:
 885              		.loc 1 509 16 view .LVU270
 886 000c 0121     		movs	r1, #1
 887              	.LBB134:
 888              	.LBB132:
 889              		.loc 2 621 25 view .LVU271
 890 000e 5460     		str	r4, [r2, #4]
 891              	.LVL56:
 892              		.loc 2 621 25 view .LVU272
 893              	.LBE132:
 894              	.LBE134:
 895              		.loc 1 509 16 view .LVU273
 896 0010 1975     		strb	r1, [r3, #20]
 897              		.loc 1 508 9 discriminator 1 view .LVU274
 898 0012 2361     		str	r3, [r4, #16]
 899              		.loc 1 509 3 is_stmt 1 view .LVU275
 900              		.loc 1 512 3 view .LVU276
 901              		.loc 1 513 5 view .LVU277
 902              		.loc 1 513 29 view .LVU278
 903              		.loc 1 522 3 view .LVU279
 904              		.loc 1 522 9 is_stmt 0 view .LVU280
 905 0014 FFF7FEFF 		bl	chSchReadyI
 906              	.LVL57:
 907              		.loc 1 522 9 view .LVU281
 908 0018 0546     		mov	r5, r0
 909              	.LVL58:
ARM GAS  C:\msys64\tmp\ccEoDG2C.s 			page 17


 910              		.loc 1 525 3 is_stmt 1 view .LVU282
 911              		.loc 1 525 3 view .LVU283
 912              		.loc 1 525 3 view .LVU284
 913              		.loc 1 525 3 view .LVU285
 914              	.LBB135:
 915              		.loc 1 525 3 view .LVU286
 916              	.LBB136:
 917              	.LBI136:
 918              		.loc 5 426 61 view .LVU287
 919              	.LBB137:
 920              		.loc 5 428 3 view .LVU288
 921              		.loc 5 430 3 view .LVU289
 922              		.syntax unified
 923              	@ 430 "ChibiOS/os/common/ext/CMSIS/include/core_cmFunc.h" 1
 924 001a EFF30983 		MRS r3, psp
 925              	
 926              	@ 0 "" 2
 927              	.LVL59:
 928              		.loc 5 431 3 view .LVU290
 929              		.loc 5 431 3 is_stmt 0 view .LVU291
 930              		.thumb
 931              		.syntax unified
 932              	.LBE137:
 933              	.LBE136:
 934              		.loc 1 525 3 is_stmt 1 discriminator 1 view .LVU292
 935 001e 0269     		ldr	r2, [r0, #16]
 936 0020 643B     		subs	r3, r3, #100
 937              	.LVL60:
 938              		.loc 1 525 3 is_stmt 0 discriminator 1 view .LVU293
 939 0022 9A42     		cmp	r2, r3
 940 0024 05D8     		bhi	.L51
 941              		.loc 1 525 3 is_stmt 1 discriminator 3 view .LVU294
 942 0026 2069     		ldr	r0, [r4, #16]
 943              	.LVL61:
 944              		.loc 1 525 3 is_stmt 0 discriminator 3 view .LVU295
 945 0028 2946     		mov	r1, r5
 946              	.LBE135:
 947              		.loc 1 526 1 view .LVU296
 948 002a BDE83840 		pop	{r3, r4, r5, lr}
 949              		.cfi_remember_state
 950              		.cfi_restore 14
 951              		.cfi_restore 5
 952              		.cfi_restore 4
 953              		.cfi_restore 3
 954              		.cfi_def_cfa_offset 0
 955              	.LVL62:
 956              	.LBB138:
 957              		.loc 1 525 3 discriminator 3 view .LVU297
 958 002e FFF7FEBF 		b	_port_switch
 959              	.LVL63:
 960              	.L51:
 961              		.cfi_restore_state
 962              		.loc 1 525 3 is_stmt 1 discriminator 1 view .LVU298
 963 0032 0548     		ldr	r0, .L52+4
 964              	.LVL64:
 965              		.loc 1 525 3 is_stmt 0 discriminator 1 view .LVU299
 966 0034 FFF7FEFF 		bl	chSysHalt
ARM GAS  C:\msys64\tmp\ccEoDG2C.s 			page 18


 967              	.LVL65:
 968              		.loc 1 525 3 is_stmt 1 discriminator 3 view .LVU300
 969 0038 2069     		ldr	r0, [r4, #16]
 970 003a 2946     		mov	r1, r5
 971              	.LBE138:
 972              		.loc 1 526 1 is_stmt 0 view .LVU301
 973 003c BDE83840 		pop	{r3, r4, r5, lr}
 974              		.cfi_restore 14
 975              		.cfi_restore 5
 976              		.cfi_restore 4
 977              		.cfi_restore 3
 978              		.cfi_def_cfa_offset 0
 979              	.LVL66:
 980              	.LBB139:
 981              		.loc 1 525 3 discriminator 3 view .LVU302
 982 0040 FFF7FEBF 		b	_port_switch
 983              	.LVL67:
 984              	.L53:
 985              		.loc 1 525 3 discriminator 3 view .LVU303
 986              		.align	2
 987              	.L52:
 988 0044 00000000 		.word	ch
 989 0048 00000000 		.word	.LC0
 990              	.LBE139:
 991              		.cfi_endproc
 992              	.LFE211:
 993              		.size	chSchDoRescheduleBehind, .-chSchDoRescheduleBehind
 994              		.section	.text.chSchDoRescheduleAhead,"ax",%progbits
 995              		.align	1
 996              		.p2align 4,,15
 997              		.global	chSchDoRescheduleAhead
 998              		.syntax unified
 999              		.thumb
 1000              		.thumb_func
 1001              		.type	chSchDoRescheduleAhead, %function
 1002              	chSchDoRescheduleAhead:
 1003              	.LFB212:
 1004              		.loc 1 537 35 is_stmt 1 view -0
 1005              		.cfi_startproc
 1006              		@ args = 0, pretend = 0, frame = 0
 1007              		@ frame_needed = 0, uses_anonymous_args = 0
 1008              		.loc 1 538 3 view .LVU305
 1009              		.loc 1 537 35 is_stmt 0 view .LVU306
 1010 0000 38B5     		push	{r3, r4, r5, lr}
 1011              		.cfi_def_cfa_offset 16
 1012              		.cfi_offset 3, -16
 1013              		.cfi_offset 4, -12
 1014              		.cfi_offset 5, -8
 1015              		.cfi_offset 14, -4
 1016              		.loc 1 538 13 view .LVU307
 1017 0002 104C     		ldr	r4, .L58
 1018              	.LVL68:
 1019              		.loc 1 541 3 is_stmt 1 view .LVU308
 1020              	.LBB140:
 1021              	.LBI140:
 1022              		.loc 2 617 25 view .LVU309
 1023              	.LBB141:
ARM GAS  C:\msys64\tmp\ccEoDG2C.s 			page 19


 1024              		.loc 2 618 3 view .LVU310
 1025              		.loc 2 618 13 is_stmt 0 view .LVU311
 1026 0004 2368     		ldr	r3, [r4]
 1027              	.LVL69:
 1028              		.loc 2 620 3 is_stmt 1 view .LVU312
 1029              	.LBE141:
 1030              	.LBE140:
 1031              		.loc 1 550 9 is_stmt 0 view .LVU313
 1032 0006 2069     		ldr	r0, [r4, #16]
 1033              	.LBB144:
 1034              	.LBB142:
 1035              		.loc 2 620 36 view .LVU314
 1036 0008 1A68     		ldr	r2, [r3]
 1037              		.loc 2 620 25 view .LVU315
 1038 000a 2260     		str	r2, [r4]
 1039              		.loc 2 621 3 is_stmt 1 view .LVU316
 1040              		.loc 2 623 3 view .LVU317
 1041              	.LVL70:
 1042              		.loc 2 623 3 is_stmt 0 view .LVU318
 1043              	.LBE142:
 1044              	.LBE144:
 1045              		.loc 1 542 16 view .LVU319
 1046 000c 0121     		movs	r1, #1
 1047              	.LBB145:
 1048              	.LBB143:
 1049              		.loc 2 621 25 view .LVU320
 1050 000e 5460     		str	r4, [r2, #4]
 1051              	.LVL71:
 1052              		.loc 2 621 25 view .LVU321
 1053              	.LBE143:
 1054              	.LBE145:
 1055              		.loc 1 542 16 view .LVU322
 1056 0010 1975     		strb	r1, [r3, #20]
 1057              		.loc 1 541 9 discriminator 1 view .LVU323
 1058 0012 2361     		str	r3, [r4, #16]
 1059              		.loc 1 542 3 is_stmt 1 view .LVU324
 1060              		.loc 1 545 3 view .LVU325
 1061              		.loc 1 546 5 view .LVU326
 1062              		.loc 1 546 29 view .LVU327
 1063              		.loc 1 550 3 view .LVU328
 1064              		.loc 1 550 9 is_stmt 0 view .LVU329
 1065 0014 FFF7FEFF 		bl	chSchReadyAheadI
 1066              	.LVL72:
 1067              		.loc 1 550 9 view .LVU330
 1068 0018 0546     		mov	r5, r0
 1069              	.LVL73:
 1070              		.loc 1 553 3 is_stmt 1 view .LVU331
 1071              		.loc 1 553 3 view .LVU332
 1072              		.loc 1 553 3 view .LVU333
 1073              		.loc 1 553 3 view .LVU334
 1074              	.LBB146:
 1075              		.loc 1 553 3 view .LVU335
 1076              	.LBB147:
 1077              	.LBI147:
 1078              		.loc 5 426 61 view .LVU336
 1079              	.LBB148:
 1080              		.loc 5 428 3 view .LVU337
ARM GAS  C:\msys64\tmp\ccEoDG2C.s 			page 20


 1081              		.loc 5 430 3 view .LVU338
 1082              		.syntax unified
 1083              	@ 430 "ChibiOS/os/common/ext/CMSIS/include/core_cmFunc.h" 1
 1084 001a EFF30983 		MRS r3, psp
 1085              	
 1086              	@ 0 "" 2
 1087              	.LVL74:
 1088              		.loc 5 431 3 view .LVU339
 1089              		.loc 5 431 3 is_stmt 0 view .LVU340
 1090              		.thumb
 1091              		.syntax unified
 1092              	.LBE148:
 1093              	.LBE147:
 1094              		.loc 1 553 3 is_stmt 1 discriminator 1 view .LVU341
 1095 001e 0269     		ldr	r2, [r0, #16]
 1096 0020 643B     		subs	r3, r3, #100
 1097              	.LVL75:
 1098              		.loc 1 553 3 is_stmt 0 discriminator 1 view .LVU342
 1099 0022 9A42     		cmp	r2, r3
 1100 0024 05D8     		bhi	.L57
 1101              		.loc 1 553 3 is_stmt 1 discriminator 3 view .LVU343
 1102 0026 2069     		ldr	r0, [r4, #16]
 1103              	.LVL76:
 1104              		.loc 1 553 3 is_stmt 0 discriminator 3 view .LVU344
 1105 0028 2946     		mov	r1, r5
 1106              	.LBE146:
 1107              		.loc 1 554 1 view .LVU345
 1108 002a BDE83840 		pop	{r3, r4, r5, lr}
 1109              		.cfi_remember_state
 1110              		.cfi_restore 14
 1111              		.cfi_restore 5
 1112              		.cfi_restore 4
 1113              		.cfi_restore 3
 1114              		.cfi_def_cfa_offset 0
 1115              	.LVL77:
 1116              	.LBB149:
 1117              		.loc 1 553 3 discriminator 3 view .LVU346
 1118 002e FFF7FEBF 		b	_port_switch
 1119              	.LVL78:
 1120              	.L57:
 1121              		.cfi_restore_state
 1122              		.loc 1 553 3 is_stmt 1 discriminator 1 view .LVU347
 1123 0032 0548     		ldr	r0, .L58+4
 1124              	.LVL79:
 1125              		.loc 1 553 3 is_stmt 0 discriminator 1 view .LVU348
 1126 0034 FFF7FEFF 		bl	chSysHalt
 1127              	.LVL80:
 1128              		.loc 1 553 3 is_stmt 1 discriminator 3 view .LVU349
 1129 0038 2069     		ldr	r0, [r4, #16]
 1130 003a 2946     		mov	r1, r5
 1131              	.LBE149:
 1132              		.loc 1 554 1 is_stmt 0 view .LVU350
 1133 003c BDE83840 		pop	{r3, r4, r5, lr}
 1134              		.cfi_restore 14
 1135              		.cfi_restore 5
 1136              		.cfi_restore 4
 1137              		.cfi_restore 3
ARM GAS  C:\msys64\tmp\ccEoDG2C.s 			page 21


 1138              		.cfi_def_cfa_offset 0
 1139              	.LVL81:
 1140              	.LBB150:
 1141              		.loc 1 553 3 discriminator 3 view .LVU351
 1142 0040 FFF7FEBF 		b	_port_switch
 1143              	.LVL82:
 1144              	.L59:
 1145              		.loc 1 553 3 discriminator 3 view .LVU352
 1146              		.align	2
 1147              	.L58:
 1148 0044 00000000 		.word	ch
 1149 0048 00000000 		.word	.LC0
 1150              	.LBE150:
 1151              		.cfi_endproc
 1152              	.LFE212:
 1153              		.size	chSchDoRescheduleAhead, .-chSchDoRescheduleAhead
 1154              		.section	.text.chSchRescheduleS,"ax",%progbits
 1155              		.align	1
 1156              		.p2align 4,,15
 1157              		.global	chSchRescheduleS
 1158              		.syntax unified
 1159              		.thumb
 1160              		.thumb_func
 1161              		.type	chSchRescheduleS, %function
 1162              	chSchRescheduleS:
 1163              	.LFB209:
 1164              		.loc 1 455 29 is_stmt 1 view -0
 1165              		.cfi_startproc
 1166              		@ args = 0, pretend = 0, frame = 0
 1167              		@ frame_needed = 0, uses_anonymous_args = 0
 1168              		@ link register save eliminated.
 1169              		.loc 1 457 21 view .LVU354
 1170              		.loc 1 459 3 view .LVU355
 1171              	.LBB151:
 1172              	.LBI151:
 1173              		.loc 2 655 20 view .LVU356
 1174              	.LBB152:
 1175              		.loc 2 657 21 view .LVU357
 1176              		.loc 2 659 3 view .LVU358
 1177              		.loc 2 659 10 is_stmt 0 view .LVU359
 1178 0000 044B     		ldr	r3, .L63
 1179 0002 1A68     		ldr	r2, [r3]
 1180              		.loc 2 659 44 view .LVU360
 1181 0004 1B69     		ldr	r3, [r3, #16]
 1182              	.LBE152:
 1183              	.LBE151:
 1184              		.loc 1 459 6 discriminator 1 view .LVU361
 1185 0006 9268     		ldr	r2, [r2, #8]
 1186 0008 9B68     		ldr	r3, [r3, #8]
 1187 000a 9A42     		cmp	r2, r3
 1188 000c 00D8     		bhi	.L62
 1189              		.loc 1 462 1 view .LVU362
 1190 000e 7047     		bx	lr
 1191              	.L62:
 1192              		.loc 1 460 5 is_stmt 1 view .LVU363
 1193 0010 FFF7FEBF 		b	chSchDoRescheduleAhead
 1194              	.LVL83:
ARM GAS  C:\msys64\tmp\ccEoDG2C.s 			page 22


 1195              	.L64:
 1196              		.align	2
 1197              	.L63:
 1198 0014 00000000 		.word	ch
 1199              		.cfi_endproc
 1200              	.LFE209:
 1201              		.size	chSchRescheduleS, .-chSchRescheduleS
 1202              		.section	.text.chSchDoReschedule,"ax",%progbits
 1203              		.align	1
 1204              		.p2align 4,,15
 1205              		.global	chSchDoReschedule
 1206              		.syntax unified
 1207              		.thumb
 1208              		.thumb_func
 1209              		.type	chSchDoReschedule, %function
 1210              	chSchDoReschedule:
 1211              	.LFB215:
 1212              		.cfi_startproc
 1213              		.loc 1 566 6 view -0
 1214              		@ args = 0, pretend = 0, frame = 0
 1215              		@ frame_needed = 0, uses_anonymous_args = 0
 1216              		@ link register save eliminated.
 1217 0000 FFF7FEBF 		b	chSchDoRescheduleAhead
 1218              		.cfi_endproc
 1219              	.LFE215:
 1220              		.size	chSchDoReschedule, .-chSchDoReschedule
 1221              		.global	ch
 1222              		.section	.bss.ch,"aw",%nobits
 1223              		.align	3
 1224              		.type	ch, %object
 1225              		.size	ch, 68
 1226              	ch:
 1227 0000 00000000 		.space	68
 1227      00000000 
 1227      00000000 
 1227      00000000 
 1227      00000000 
 1228              		.text
 1229              	.Letext0:
 1230              		.file 7 "C:/Program Files (x86)/Arm GNU Toolchain arm-none-eabi/14.3 rel1/arm-none-eabi/include/ma
 1231              		.file 8 "C:/Program Files (x86)/Arm GNU Toolchain arm-none-eabi/14.3 rel1/arm-none-eabi/include/sy
 1232              		.file 9 "ChibiOS/os/common/ports/ARMCMx/compilers/GCC/chtypes.h"
 1233              		.file 10 "ChibiOS/os/rt/include/chsystypes.h"
 1234              		.file 11 "ChibiOS/os/common/ports/ARMCMx/chcore.h"