ARM GAS  C:\msys64\tmp\ccktAOMk.s 			page 1


   1              		.cpu cortex-m4
   2              		.arch armv7e-m
   3              		.fpu fpv4-sp-d16
   4              		.eabi_attribute 27, 1
   5              		.eabi_attribute 28, 1
   6              		.eabi_attribute 23, 1
   7              		.eabi_attribute 24, 1
   8              		.eabi_attribute 25, 1
   9              		.eabi_attribute 26, 1
  10              		.eabi_attribute 30, 2
  11              		.eabi_attribute 34, 1
  12              		.eabi_attribute 18, 4
  13              		.file	"chsys.c"
  14              		.text
  15              	.Ltext0:
  16              		.cfi_sections	.debug_frame
  17              		.file 1 "ChibiOS/os/rt/src/chsys.c"
  18              		.section	.text._idle_thread,"ax",%progbits
  19              		.align	1
  20              		.p2align 4,,15
  21              		.syntax unified
  22              		.thumb
  23              		.thumb_func
  24              		.type	_idle_thread, %function
  25              	_idle_thread:
  26              	.LFB202:
  27              		.loc 1 72 35 view -0
  28              		.cfi_startproc
  29              		@ Volatile: function does not return.
  30              		@ args = 0, pretend = 0, frame = 0
  31              		@ frame_needed = 0, uses_anonymous_args = 0
  32              		@ link register save eliminated.
  33              	.LVL0:
  34              	.L2:
  35              		.loc 1 74 3 view .LVU1
  36              		.loc 1 76 3 view .LVU2
  37              		.loc 1 79 5 discriminator 1 view .LVU3
  38              		.loc 1 81 5 view .LVU4
  39              		.loc 1 81 28 view .LVU5
  40              		.loc 1 76 9 view .LVU6
  41 0000 FEE7     		b	.L2
  42              		.cfi_endproc
  43              	.LFE202:
  44              		.size	_idle_thread, .-_idle_thread
  45 0002 00BF     		.section	.rodata.chSysInit.str1.4,"aMS",%progbits,1
  46              		.align	2
  47              	.LC0:
  48 0000 6D61696E 		.ascii	"main\000"
  48      00
  49              		.section	.text.chSysInit,"ax",%progbits
  50              		.align	1
  51              		.p2align 4,,15
  52              		.global	chSysInit
  53              		.syntax unified
  54              		.thumb
  55              		.thumb_func
  56              		.type	chSysInit, %function
ARM GAS  C:\msys64\tmp\ccktAOMk.s 			page 2


  57              	chSysInit:
  58              	.LFB203:
  59              		.loc 1 100 22 view -0
  60              		.cfi_startproc
  61              		@ args = 0, pretend = 0, frame = 0
  62              		@ frame_needed = 0, uses_anonymous_args = 0
  63              		.loc 1 102 3 view .LVU8
  64              		.loc 1 100 22 is_stmt 0 view .LVU9
  65 0000 38B5     		push	{r3, r4, r5, lr}
  66              		.cfi_def_cfa_offset 16
  67              		.cfi_offset 3, -16
  68              		.cfi_offset 4, -12
  69              		.cfi_offset 5, -8
  70              		.cfi_offset 14, -4
  71              		.loc 1 128 11 view .LVU10
  72 0002 194D     		ldr	r5, .L6
  73              		.loc 1 102 3 view .LVU11
  74 0004 FFF7FEFF 		bl	_scheduler_init
  75              	.LVL1:
  76              		.loc 1 103 3 is_stmt 1 view .LVU12
  77 0008 FFF7FEFF 		bl	_vt_init
  78              	.LVL2:
  79              		.loc 1 104 16 view .LVU13
  80              		.loc 1 128 3 view .LVU14
  81              		.loc 1 128 11 is_stmt 0 view .LVU15
  82 000c 1749     		ldr	r1, .L6+4
  83 000e 8022     		movs	r2, #128
  84 0010 2846     		mov	r0, r5
  85 0012 FFF7FEFF 		bl	_thread_init
  86              	.LVL3:
  87              	.LBB164:
  88              	.LBB165:
  89              		.file 2 "ChibiOS/os/common/ports/ARMCMx/chcore_v7m.h"
  90              		.loc 2 516 13 view .LVU16
  91 0016 164B     		ldr	r3, .L6+8
  92              	.LBE165:
  93              	.LBE164:
  94              	.LBB182:
  95              		.loc 1 140 19 view .LVU17
  96 0018 164A     		ldr	r2, .L6+12
  97              	.LBE182:
  98              		.loc 1 128 9 discriminator 1 view .LVU18
  99 001a 45F8180C 		str	r0, [r5, #-24]
 100              	.LBB183:
 101              		.loc 1 139 5 is_stmt 1 view .LVU19
 102              		.loc 1 140 5 view .LVU20
 103              	.LBE183:
 104              		.loc 1 147 16 is_stmt 0 view .LVU21
 105 001e 0121     		movs	r1, #1
 106              	.LBB184:
 107              	.LBB180:
 108              		.loc 2 516 13 view .LVU22
 109 0020 0024     		movs	r4, #0
 110              	.LBE180:
 111              	.LBE184:
 112              		.loc 1 147 16 view .LVU23
 113 0022 0175     		strb	r1, [r0, #20]
ARM GAS  C:\msys64\tmp\ccktAOMk.s 			page 3


 114              	.LBB185:
 115              		.loc 1 140 19 view .LVU24
 116 0024 0261     		str	r2, [r0, #16]
 117              	.LBE185:
 118              		.loc 1 147 3 is_stmt 1 view .LVU25
 119              		.loc 1 151 3 view .LVU26
 120              	.LBB186:
 121              	.LBI164:
 122              		.loc 2 513 20 view .LVU27
 123              	.LBB181:
 124              		.loc 2 516 3 view .LVU28
 125              		.loc 2 516 13 is_stmt 0 view .LVU29
 126 0026 9C60     		str	r4, [r3, #8]
 127              		.loc 2 519 3 is_stmt 1 view .LVU30
 128              	.LVL4:
 129              	.LBB166:
 130              	.LBI166:
 131              		.file 3 "ChibiOS/os/common/ext/CMSIS/include/core_cm4.h"
 132              		.loc 3 1515 22 view .LVU31
 133              	.LBB167:
 134              		.loc 3 1517 3 view .LVU32
 135              		.loc 3 1518 3 view .LVU33
 136              		.loc 3 1520 3 view .LVU34
 137              		.loc 3 1520 14 is_stmt 0 view .LVU35
 138 0028 D968     		ldr	r1, [r3, #12]
 139              	.LVL5:
 140              		.loc 3 1521 3 is_stmt 1 view .LVU36
 141              		.loc 3 1522 14 is_stmt 0 view .LVU37
 142 002a 134A     		ldr	r2, .L6+16
 143              		.loc 3 1521 13 view .LVU38
 144 002c 4FF6FF00 		movw	r0, #63743
 145 0030 0140     		ands	r1, r1, r0
 146              	.LVL6:
 147              		.loc 3 1522 3 is_stmt 1 view .LVU39
 148              		.loc 3 1522 14 is_stmt 0 view .LVU40
 149 0032 0A43     		orrs	r2, r2, r1
 150              	.LVL7:
 151              		.loc 3 1525 3 is_stmt 1 view .LVU41
 152              		.loc 3 1525 14 is_stmt 0 view .LVU42
 153 0034 DA60     		str	r2, [r3, #12]
 154              	.LVL8:
 155              		.loc 3 1525 14 view .LVU43
 156              	.LBE167:
 157              	.LBE166:
 158              		.loc 2 522 3 is_stmt 1 view .LVU44
 159              		.loc 2 522 12 is_stmt 0 view .LVU45
 160 0036 D3F8FC20 		ldr	r2, [r3, #252]
 161              		.loc 2 526 6 view .LVU46
 162 003a 1049     		ldr	r1, .L6+20
 163              		.loc 2 522 20 view .LVU47
 164 003c 42F08072 		orr	r2, r2, #16777216
 165 0040 C3F8FC20 		str	r2, [r3, #252]
 166              		.loc 2 526 3 is_stmt 1 view .LVU48
 167              		.loc 2 526 6 is_stmt 0 view .LVU49
 168 0044 0A68     		ldr	r2, [r1]
 169              		.loc 2 526 13 view .LVU50
 170 0046 42F00102 		orr	r2, r2, #1
ARM GAS  C:\msys64\tmp\ccktAOMk.s 			page 4


 171 004a 0A60     		str	r2, [r1]
 172              		.loc 2 530 3 is_stmt 1 view .LVU51
 173              	.LVL9:
 174              	.LBB168:
 175              	.LBI168:
 176              		.loc 3 1629 22 view .LVU52
 177              		.loc 3 1631 3 view .LVU53
 178              	.LBB169:
 179              	.LBI169:
 180              		.loc 3 1629 22 view .LVU54
 181              	.LBB170:
 182              		.loc 3 1632 5 view .LVU55
 183              		.loc 3 1632 55 is_stmt 0 view .LVU56
 184 004c 1020     		movs	r0, #16
 185              	.LBE170:
 186              	.LBE169:
 187              	.LBE168:
 188              	.LBB173:
 189              	.LBB174:
 190              	.LBB175:
 191 004e 2022     		movs	r2, #32
 192              	.LBE175:
 193              	.LBE174:
 194              	.LBE173:
 195              	.LBB178:
 196              	.LBB172:
 197              	.LBB171:
 198 0050 D877     		strb	r0, [r3, #31]
 199              	.LVL10:
 200              		.loc 3 1632 55 view .LVU57
 201              	.LBE171:
 202              	.LBE172:
 203              	.LBE178:
 204              		.loc 2 532 3 is_stmt 1 view .LVU58
 205              	.LBB179:
 206              	.LBI173:
 207              		.loc 3 1629 22 view .LVU59
 208              		.loc 3 1631 3 view .LVU60
 209              	.LBB177:
 210              	.LBI174:
 211              		.loc 3 1629 22 view .LVU61
 212              	.LBB176:
 213              		.loc 3 1632 5 view .LVU62
 214              		.loc 3 1632 55 is_stmt 0 view .LVU63
 215 0052 83F82220 		strb	r2, [r3, #34]
 216              	.LVL11:
 217              		.loc 3 1632 55 view .LVU64
 218              	.LBE176:
 219              	.LBE177:
 220              	.LBE179:
 221              	.LBE181:
 222              	.LBE186:
 223              		.loc 1 159 3 is_stmt 1 view .LVU65
 224              	.LBB187:
 225              	.LBI187:
 226              		.file 4 "ChibiOS/os/rt/include/chsys.h"
 227              		.loc 4 363 20 view .LVU66
ARM GAS  C:\msys64\tmp\ccktAOMk.s 			page 5


 228              		.loc 4 365 22 view .LVU67
 229              		.loc 4 366 3 view .LVU68
 230              	.LBB188:
 231              	.LBI188:
 232              		.loc 2 688 20 view .LVU69
 233              		.loc 2 691 3 view .LVU70
 234              	.LBB189:
 235              	.LBI189:
 236              		.file 5 "ChibiOS/os/common/ext/CMSIS/include/core_cmFunc.h"
 237              		.loc 5 546 57 view .LVU71
 238              	.LBB190:
 239              		.loc 5 548 3 view .LVU72
 240              		.syntax unified
 241              	@ 548 "ChibiOS/os/common/ext/CMSIS/include/core_cmFunc.h" 1
 242 0056 84F31188 		MSR basepri, r4
 243              	@ 0 "" 2
 244              	.LVL12:
 245              		.loc 5 548 3 is_stmt 0 view .LVU73
 246              		.thumb
 247              		.syntax unified
 248              	.LBE190:
 249              	.LBE189:
 250              		.loc 2 693 3 is_stmt 1 view .LVU74
 251              	.LBB191:
 252              	.LBI191:
 253              		.loc 5 331 57 view .LVU75
 254              	.LBB192:
 255              		.loc 5 333 3 view .LVU76
 256              		.syntax unified
 257              	@ 333 "ChibiOS/os/common/ext/CMSIS/include/core_cmFunc.h" 1
 258 005a 62B6     		cpsie i
 259              	@ 0 "" 2
 260              		.thumb
 261              		.syntax unified
 262              	.LBE192:
 263              	.LBE191:
 264              	.LBE188:
 265              	.LBE187:
 266              	.LBB193:
 267              		.loc 1 163 5 view .LVU77
 268              		.loc 1 175 5 view .LVU78
 269              		.loc 1 175 12 is_stmt 0 view .LVU79
 270 005c 0848     		ldr	r0, .L6+24
 271              	.LBE193:
 272              		.loc 1 178 1 view .LVU80
 273 005e BDE83840 		pop	{r3, r4, r5, lr}
 274              		.cfi_restore 14
 275              		.cfi_restore 5
 276              		.cfi_restore 4
 277              		.cfi_restore 3
 278              		.cfi_def_cfa_offset 0
 279              	.LBB194:
 280              		.loc 1 175 12 view .LVU81
 281 0062 FFF7FEBF 		b	chThdCreate
 282              	.LVL13:
 283              	.L7:
 284 0066 00BF     		.align	2
ARM GAS  C:\msys64\tmp\ccktAOMk.s 			page 6


 285              	.L6:
 286 0068 28000000 		.word	ch+40
 287 006c 00000000 		.word	.LC0
 288 0070 00ED00E0 		.word	-536810240
 289 0074 00000000 		.word	__main_thread_stack_base__
 290 0078 0003FA05 		.word	100270848
 291 007c 001000E0 		.word	-536866816
 292 0080 00000000 		.word	idle_descriptor.0
 293              	.LBE194:
 294              		.cfi_endproc
 295              	.LFE203:
 296              		.size	chSysInit, .-chSysInit
 297              		.section	.text.chSysHalt,"ax",%progbits
 298              		.align	1
 299              		.p2align 4,,15
 300              		.global	chSysHalt
 301              		.syntax unified
 302              		.thumb
 303              		.thumb_func
 304              		.type	chSysHalt, %function
 305              	chSysHalt:
 306              	.LVL14:
 307              	.LFB204:
 308              		.loc 1 192 36 is_stmt 1 view -0
 309              		.cfi_startproc
 310              		@ Volatile: function does not return.
 311              		@ args = 0, pretend = 0, frame = 0
 312              		@ frame_needed = 0, uses_anonymous_args = 0
 313              		@ link register save eliminated.
 314              		.loc 1 194 3 view .LVU83
 315              	.LBB195:
 316              	.LBI195:
 317              		.loc 2 664 20 view .LVU84
 318              		.loc 2 666 3 view .LVU85
 319              	.LBB196:
 320              	.LBI196:
 321              		.loc 5 342 57 view .LVU86
 322              	.LBB197:
 323              		.loc 5 344 3 view .LVU87
 324              		.syntax unified
 325              	@ 344 "ChibiOS/os/common/ext/CMSIS/include/core_cmFunc.h" 1
 326 0000 72B6     		cpsid i
 327              	@ 0 "" 2
 328              		.thumb
 329              		.syntax unified
 330              	.LBE197:
 331              	.LBE196:
 332              	.LBE195:
 333              		.loc 1 197 3 view .LVU88
 334              		.loc 1 197 34 view .LVU89
 335              		.loc 1 200 22 view .LVU90
 336              		.loc 1 203 3 view .LVU91
 337              		.loc 1 203 20 is_stmt 0 view .LVU92
 338 0002 014B     		ldr	r3, .L10
 339 0004 5862     		str	r0, [r3, #36]
 340              	.L9:
 341              		.loc 1 206 3 is_stmt 1 view .LVU93
ARM GAS  C:\msys64\tmp\ccktAOMk.s 			page 7


 342              		.loc 1 207 3 view .LVU94
 343              		.loc 1 206 9 view .LVU95
 344              		.loc 1 206 3 view .LVU96
 345              		.loc 1 207 3 view .LVU97
 346              		.loc 1 206 9 view .LVU98
 347 0006 FEE7     		b	.L9
 348              	.L11:
 349              		.align	2
 350              	.L10:
 351 0008 00000000 		.word	ch
 352              		.cfi_endproc
 353              	.LFE204:
 354              		.size	chSysHalt, .-chSysHalt
 355              		.section	.text.chSysIntegrityCheckI,"ax",%progbits
 356              		.align	1
 357              		.p2align 4,,15
 358              		.global	chSysIntegrityCheckI
 359              		.syntax unified
 360              		.thumb
 361              		.thumb_func
 362              		.type	chSysIntegrityCheckI, %function
 363              	chSysIntegrityCheckI:
 364              	.LVL15:
 365              	.LFB205:
 366              		.loc 1 234 46 view -0
 367              		.cfi_startproc
 368              		@ args = 0, pretend = 0, frame = 0
 369              		@ frame_needed = 0, uses_anonymous_args = 0
 370              		@ link register save eliminated.
 371              		.loc 1 235 3 view .LVU100
 372              		.loc 1 237 21 view .LVU101
 373              		.loc 1 240 3 view .LVU102
 374              		.loc 1 240 6 is_stmt 0 view .LVU103
 375 0000 C307     		lsls	r3, r0, #31
 376              		.loc 1 234 46 view .LVU104
 377 0002 10B4     		push	{r4}
 378              		.cfi_def_cfa_offset 4
 379              		.cfi_offset 4, -4
 380              		.loc 1 240 6 view .LVU105
 381 0004 12D5     		bpl	.L13
 382              	.LBB198:
 383              		.loc 1 241 5 is_stmt 1 view .LVU106
 384              		.loc 1 244 5 view .LVU107
 385              	.LVL16:
 386              		.loc 1 245 5 view .LVU108
 387              		.loc 1 245 8 is_stmt 0 view .LVU109
 388 0006 1C4C     		ldr	r4, .L38
 389              		.loc 1 252 8 view .LVU110
 390 0008 D4E90021 		ldrd	r2, r1, [r4]
 391              		.loc 1 246 15 view .LVU111
 392 000c A242     		cmp	r2, r4
 393 000e 2ED0     		beq	.L14
 394              		.loc 1 244 7 view .LVU112
 395 0010 0023     		movs	r3, #0
 396              	.LVL17:
 397              	.L15:
 398              		.loc 1 247 7 is_stmt 1 view .LVU113
ARM GAS  C:\msys64\tmp\ccktAOMk.s 			page 8


 399              		.loc 1 248 10 is_stmt 0 view .LVU114
 400 0012 1268     		ldr	r2, [r2]
 401              	.LVL18:
 402              		.loc 1 246 15 view .LVU115
 403 0014 A242     		cmp	r2, r4
 404              		.loc 1 247 8 view .LVU116
 405 0016 03F10103 		add	r3, r3, #1
 406              	.LVL19:
 407              		.loc 1 248 7 is_stmt 1 view .LVU117
 408              		.loc 1 246 15 view .LVU118
 409 001a FAD1     		bne	.L15
 410              		.loc 1 252 5 view .LVU119
 411              	.LVL20:
 412              		.loc 1 253 5 view .LVU120
 413              		.loc 1 253 15 view .LVU121
 414 001c 9142     		cmp	r1, r2
 415 001e 22D0     		beq	.L26
 416              	.LVL21:
 417              	.L19:
 418              		.loc 1 254 7 view .LVU122
 419              		.loc 1 255 10 is_stmt 0 view .LVU123
 420 0020 4968     		ldr	r1, [r1, #4]
 421              	.LVL22:
 422              		.loc 1 253 15 view .LVU124
 423 0022 A142     		cmp	r1, r4
 424              		.loc 1 254 8 view .LVU125
 425 0024 03F1FF33 		add	r3, r3, #-1
 426              	.LVL23:
 427              		.loc 1 255 7 is_stmt 1 view .LVU126
 428              		.loc 1 253 15 view .LVU127
 429 0028 FAD1     		bne	.L19
 430              		.loc 1 259 5 view .LVU128
 431              		.loc 1 259 8 is_stmt 0 view .LVU129
 432 002a E3B9     		cbnz	r3, .L26
 433              	.LVL24:
 434              	.L13:
 435              		.loc 1 259 8 view .LVU130
 436              	.LBE198:
 437              		.loc 1 265 3 is_stmt 1 view .LVU131
 438              		.loc 1 265 6 is_stmt 0 view .LVU132
 439 002c 10F00200 		ands	r0, r0, #2
 440              	.LVL25:
 441              		.loc 1 265 6 view .LVU133
 442 0030 16D0     		beq	.L18
 443              	.LBB199:
 444              		.loc 1 266 5 is_stmt 1 view .LVU134
 445              		.loc 1 269 5 view .LVU135
 446              	.LVL26:
 447              		.loc 1 270 5 view .LVU136
 448              		.loc 1 270 9 is_stmt 0 view .LVU137
 449 0032 114C     		ldr	r4, .L38
 450 0034 2246     		mov	r2, r4
 451              		.loc 1 269 7 view .LVU138
 452 0036 0020     		movs	r0, #0
 453              		.loc 1 270 9 view .LVU139
 454 0038 52F8143F 		ldr	r3, [r2, #20]!
 455              	.LVL27:
ARM GAS  C:\msys64\tmp\ccktAOMk.s 			page 9


 456              		.loc 1 271 5 is_stmt 1 view .LVU140
 457              		.loc 1 271 16 view .LVU141
 458 003c 9342     		cmp	r3, r2
 459 003e 04D0     		beq	.L20
 460              	.LVL28:
 461              	.L21:
 462              		.loc 1 272 7 view .LVU142
 463              		.loc 1 273 11 is_stmt 0 view .LVU143
 464 0040 1B68     		ldr	r3, [r3]
 465              	.LVL29:
 466              		.loc 1 271 16 view .LVU144
 467 0042 9342     		cmp	r3, r2
 468              		.loc 1 272 8 view .LVU145
 469 0044 00F10100 		add	r0, r0, #1
 470              	.LVL30:
 471              		.loc 1 273 7 is_stmt 1 view .LVU146
 472              		.loc 1 271 16 view .LVU147
 473 0048 FAD1     		bne	.L21
 474              	.LVL31:
 475              	.L20:
 476              		.loc 1 277 5 view .LVU148
 477              		.loc 1 277 9 is_stmt 0 view .LVU149
 478 004a A369     		ldr	r3, [r4, #24]
 479              	.LVL32:
 480              		.loc 1 278 5 is_stmt 1 view .LVU150
 481              		.loc 1 278 16 view .LVU151
 482 004c 9342     		cmp	r3, r2
 483 004e 04D0     		beq	.L22
 484              	.L23:
 485              		.loc 1 279 7 view .LVU152
 486              		.loc 1 280 11 is_stmt 0 view .LVU153
 487 0050 5B68     		ldr	r3, [r3, #4]
 488              	.LVL33:
 489              		.loc 1 278 16 view .LVU154
 490 0052 9342     		cmp	r3, r2
 491              		.loc 1 279 8 view .LVU155
 492 0054 00F1FF30 		add	r0, r0, #-1
 493              	.LVL34:
 494              		.loc 1 280 7 is_stmt 1 view .LVU156
 495              		.loc 1 278 16 view .LVU157
 496 0058 FAD1     		bne	.L23
 497              	.L22:
 498              		.loc 1 284 5 view .LVU158
 499              		.loc 1 284 8 is_stmt 0 view .LVU159
 500 005a 0038     		subs	r0, r0, #0
 501              		.loc 1 284 8 view .LVU160
 502 005c 18BF     		it	ne
 503 005e 0120     		movne	r0, #1
 504              	.LVL35:
 505              	.L18:
 506              		.loc 1 284 8 view .LVU161
 507              	.LBE199:
 508              		.loc 1 322 1 view .LVU162
 509 0060 5DF8044B 		ldr	r4, [sp], #4
 510              		.cfi_remember_state
 511              		.cfi_restore 4
 512              		.cfi_def_cfa_offset 0
ARM GAS  C:\msys64\tmp\ccktAOMk.s 			page 10


 513 0064 7047     		bx	lr
 514              	.LVL36:
 515              	.L26:
 516              		.cfi_restore_state
 517              	.LBB200:
 518              		.loc 1 260 14 view .LVU163
 519 0066 0120     		movs	r0, #1
 520              	.LVL37:
 521              		.loc 1 260 14 view .LVU164
 522              	.LBE200:
 523              		.loc 1 322 1 view .LVU165
 524 0068 5DF8044B 		ldr	r4, [sp], #4
 525              		.cfi_remember_state
 526              		.cfi_restore 4
 527              		.cfi_def_cfa_offset 0
 528 006c 7047     		bx	lr
 529              	.LVL38:
 530              	.L14:
 531              		.cfi_restore_state
 532              	.LBB201:
 533              		.loc 1 252 5 is_stmt 1 view .LVU166
 534              		.loc 1 253 5 view .LVU167
 535              		.loc 1 253 15 view .LVU168
 536 006e A142     		cmp	r1, r4
 537              		.loc 1 244 7 is_stmt 0 view .LVU169
 538 0070 18BF     		it	ne
 539 0072 0023     		movne	r3, #0
 540              		.loc 1 253 15 view .LVU170
 541 0074 D4D1     		bne	.L19
 542 0076 D9E7     		b	.L13
 543              	.L39:
 544              		.align	2
 545              	.L38:
 546 0078 00000000 		.word	ch
 547              	.LBE201:
 548              		.cfi_endproc
 549              	.LFE205:
 550              		.size	chSysIntegrityCheckI, .-chSysIntegrityCheckI
 551              		.section	.text.chSysTimerHandlerI,"ax",%progbits
 552              		.align	1
 553              		.p2align 4,,15
 554              		.global	chSysTimerHandlerI
 555              		.syntax unified
 556              		.thumb
 557              		.thumb_func
 558              		.type	chSysTimerHandlerI, %function
 559              	chSysTimerHandlerI:
 560              	.LFB206:
 561              		.loc 1 335 31 is_stmt 1 view -0
 562              		.cfi_startproc
 563              		@ args = 0, pretend = 0, frame = 0
 564              		@ frame_needed = 0, uses_anonymous_args = 0
 565              		.loc 1 337 21 view .LVU172
 566              		.loc 1 349 3 view .LVU173
 567              	.LBB227:
 568              	.LBI227:
 569              		.file 6 "ChibiOS/os/rt/include/chvt.h"
ARM GAS  C:\msys64\tmp\ccktAOMk.s 			page 11


 570              		.loc 6 502 20 view .LVU174
 571              	.LBB228:
 572              		.loc 6 504 21 view .LVU175
 573              		.loc 6 526 3 view .LVU176
 574              		.loc 6 527 3 view .LVU177
 575              		.loc 6 530 3 view .LVU178
 576              	.LBE228:
 577              	.LBE227:
 578              		.loc 1 335 31 is_stmt 0 view .LVU179
 579 0000 2DE9F047 		push	{r4, r5, r6, r7, r8, r9, r10, lr}
 580              		.cfi_def_cfa_offset 32
 581              		.cfi_offset 4, -32
 582              		.cfi_offset 5, -28
 583              		.cfi_offset 6, -24
 584              		.cfi_offset 7, -20
 585              		.cfi_offset 8, -16
 586              		.cfi_offset 9, -12
 587              		.cfi_offset 10, -8
 588              		.cfi_offset 14, -4
 589              	.LBB266:
 590              	.LBB264:
 591              		.loc 6 530 7 view .LVU180
 592 0004 1C4D     		ldr	r5, .L49
 593              	.LBB229:
 594              	.LBB230:
 595              	.LBB231:
 596              	.LBB232:
 597              		.file 7 "ChibiOS/os/hal/ports/STM32/LLD/TIMv1/hal_st_lld.h"
 598              		.loc 7 141 10 view .LVU181
 599 0006 4FF08048 		mov	r8, #1073741824
 600              	.LBE232:
 601              	.LBE231:
 602              	.LBE230:
 603              	.LBE229:
 604              		.loc 6 530 7 view .LVU182
 605 000a 6C69     		ldr	r4, [r5, #20]
 606              	.LVL39:
 607              		.loc 6 531 3 is_stmt 1 view .LVU183
 608              	.LBB236:
 609              	.LBI229:
 610              		.loc 6 228 25 view .LVU184
 611              		.loc 6 233 3 view .LVU185
 612              	.LBB235:
 613              	.LBI230:
 614              		.file 8 "ChibiOS/os/common/ports/ARMCMx/chcore_timer.h"
 615              		.loc 8 105 25 view .LVU186
 616              		.loc 8 107 3 view .LVU187
 617              	.LBB234:
 618              	.LBI231:
 619              		.loc 7 139 25 view .LVU188
 620              	.LBB233:
 621              		.loc 7 141 3 view .LVU189
 622              		.loc 7 141 10 is_stmt 0 view .LVU190
 623 000c D8F82400 		ldr	r0, [r8, #36]
 624              	.LVL40:
 625              		.loc 7 141 10 view .LVU191
 626              	.LBE233:
ARM GAS  C:\msys64\tmp\ccktAOMk.s 			page 12


 627              	.LBE234:
 628              	.LBE235:
 629              	.LBE236:
 630              		.loc 6 537 3 is_stmt 1 view .LVU192
 631              		.loc 6 537 21 view .LVU193
 632              		.loc 6 537 51 is_stmt 0 view .LVU194
 633 0010 296A     		ldr	r1, [r5, #32]
 634              		.loc 6 537 13 view .LVU195
 635 0012 A368     		ldr	r3, [r4, #8]
 636              		.loc 6 537 40 view .LVU196
 637 0014 421A     		subs	r2, r0, r1
 638              		.loc 6 537 21 view .LVU197
 639 0016 9342     		cmp	r3, r2
 640 0018 05F11406 		add	r6, r5, #20
 641 001c 1ED8     		bhi	.L41
 642              	.LBB237:
 643              		.loc 6 546 15 view .LVU198
 644 001e 0027     		movs	r7, #0
 645              	.LBB238:
 646              	.LBB239:
 647              	.LBB240:
 648              	.LBB241:
 649              	.LBB242:
 650              		.loc 5 548 3 view .LVU199
 651 0020 4FF02009 		mov	r9, #32
 652 0024 0DE0     		b	.L43
 653              	.LVL41:
 654              	.L42:
 655              		.loc 5 548 3 view .LVU200
 656              	.LBE242:
 657              	.LBE241:
 658              	.LBE240:
 659              	.LBE239:
 660              	.LBE238:
 661              		.loc 6 556 5 is_stmt 1 view .LVU201
 662              	.LBB247:
 663              	.LBI247:
 664              		.loc 4 434 20 view .LVU202
 665              		.loc 4 436 31 view .LVU203
 666              		.loc 4 437 33 view .LVU204
 667              		.loc 4 438 3 view .LVU205
 668              	.LBB248:
 669              	.LBI248:
 670              		.loc 2 654 20 view .LVU206
 671              		.loc 2 656 3 view .LVU207
 672              	.LBB249:
 673              	.LBI249:
 674              		.loc 2 628 20 view .LVU208
 675              		.loc 2 631 3 view .LVU209
 676              	.LBB250:
 677              	.LBI250:
 678              		.loc 5 546 57 view .LVU210
 679              	.LBB251:
 680              		.loc 5 548 3 view .LVU211
 681              		.syntax unified
 682              	@ 548 "ChibiOS/os/common/ext/CMSIS/include/core_cmFunc.h" 1
 683 0026 87F31188 		MSR basepri, r7
ARM GAS  C:\msys64\tmp\ccktAOMk.s 			page 13


 684              	@ 0 "" 2
 685              	.LVL42:
 686              		.loc 5 548 3 is_stmt 0 view .LVU212
 687              		.thumb
 688              		.syntax unified
 689              	.LBE251:
 690              	.LBE250:
 691              	.LBE249:
 692              	.LBE248:
 693              	.LBE247:
 694              		.loc 6 559 5 is_stmt 1 view .LVU213
 695 002a 2069     		ldr	r0, [r4, #16]
 696 002c D047     		blx	r10
 697              	.LVL43:
 698              		.loc 6 563 5 view .LVU214
 699              	.LBB252:
 700              	.LBI238:
 701              		.loc 4 414 20 view .LVU215
 702              		.loc 4 416 3 view .LVU216
 703              	.LBB246:
 704              	.LBI239:
 705              		.loc 2 643 20 view .LVU217
 706              		.loc 2 645 3 view .LVU218
 707              	.LBB245:
 708              	.LBI240:
 709              		.loc 2 604 20 view .LVU219
 710              		.loc 2 612 3 view .LVU220
 711              	.LBB244:
 712              	.LBI241:
 713              		.loc 5 546 57 view .LVU221
 714              	.LBB243:
 715              		.loc 5 548 3 view .LVU222
 716              		.syntax unified
 717              	@ 548 "ChibiOS/os/common/ext/CMSIS/include/core_cmFunc.h" 1
 718 002e 89F31188 		MSR basepri, r9
 719              	@ 0 "" 2
 720              	.LVL44:
 721              		.loc 5 548 3 is_stmt 0 view .LVU223
 722              		.thumb
 723              		.syntax unified
 724              	.LBE243:
 725              	.LBE244:
 726              	.LBE245:
 727              	.LBE246:
 728              		.loc 4 417 34 is_stmt 1 view .LVU224
 729              		.loc 4 418 29 view .LVU225
 730              	.LBE252:
 731              		.loc 6 567 5 view .LVU226
 732              		.loc 6 567 9 is_stmt 0 view .LVU227
 733 0032 6C69     		ldr	r4, [r5, #20]
 734              	.LVL45:
 735              		.loc 6 568 5 is_stmt 1 view .LVU228
 736              	.LBB253:
 737              	.LBI253:
 738              		.loc 6 228 25 view .LVU229
 739              		.loc 6 233 3 view .LVU230
 740              	.LBB254:
ARM GAS  C:\msys64\tmp\ccktAOMk.s 			page 14


 741              	.LBI254:
 742              		.loc 8 105 25 view .LVU231
 743              		.loc 8 107 3 view .LVU232
 744              	.LBB255:
 745              	.LBI255:
 746              		.loc 7 139 25 view .LVU233
 747              	.LBB256:
 748              		.loc 7 141 3 view .LVU234
 749              		.loc 7 141 10 is_stmt 0 view .LVU235
 750 0034 D8F82400 		ldr	r0, [r8, #36]
 751              	.LVL46:
 752              		.loc 7 141 10 view .LVU236
 753              	.LBE256:
 754              	.LBE255:
 755              	.LBE254:
 756              	.LBE253:
 757              	.LBE237:
 758              		.loc 6 537 21 is_stmt 1 view .LVU237
 759              		.loc 6 537 51 is_stmt 0 view .LVU238
 760 0038 296A     		ldr	r1, [r5, #32]
 761              		.loc 6 537 13 view .LVU239
 762 003a A368     		ldr	r3, [r4, #8]
 763              		.loc 6 537 40 view .LVU240
 764 003c 421A     		subs	r2, r0, r1
 765              		.loc 6 537 21 view .LVU241
 766 003e 9342     		cmp	r3, r2
 767 0040 0CD8     		bhi	.L41
 768              	.LVL47:
 769              	.L43:
 770              	.LBB259:
 771              		.loc 6 538 5 is_stmt 1 view .LVU242
 772              		.loc 6 541 5 view .LVU243
 773              		.loc 6 543 8 is_stmt 0 view .LVU244
 774 0042 2268     		ldr	r2, [r4]
 775              		.loc 6 545 8 view .LVU245
 776 0044 D4F80CA0 		ldr	r10, [r4, #12]
 777              		.loc 6 541 24 view .LVU246
 778 0048 0B44     		add	r3, r3, r1
 779              		.loc 6 549 8 view .LVU247
 780 004a B242     		cmp	r2, r6
 781              		.loc 6 541 24 view .LVU248
 782 004c 2B62     		str	r3, [r5, #32]
 783              		.loc 6 543 5 is_stmt 1 view .LVU249
 784              		.loc 6 543 21 is_stmt 0 view .LVU250
 785 004e 5660     		str	r6, [r2, #4]
 786              		.loc 6 544 5 is_stmt 1 view .LVU251
 787              		.loc 6 544 20 is_stmt 0 view .LVU252
 788 0050 6A61     		str	r2, [r5, #20]
 789              		.loc 6 545 5 is_stmt 1 view .LVU253
 790              	.LVL48:
 791              		.loc 6 546 5 view .LVU254
 792              		.loc 6 546 15 is_stmt 0 view .LVU255
 793 0052 E760     		str	r7, [r4, #12]
 794              		.loc 6 549 5 is_stmt 1 view .LVU256
 795              		.loc 6 549 8 is_stmt 0 view .LVU257
 796 0054 E7D1     		bne	.L42
 797              		.loc 6 550 7 is_stmt 1 view .LVU258
ARM GAS  C:\msys64\tmp\ccktAOMk.s 			page 15


 798              	.LBB257:
 799              	.LBI257:
 800              		.loc 8 81 20 view .LVU259
 801              	.LBB258:
 802              		.loc 8 83 3 view .LVU260
 803 0056 FFF7FEFF 		bl	stStopAlarm
 804              	.LVL49:
 805              		.loc 8 84 1 is_stmt 0 view .LVU261
 806 005a E4E7     		b	.L42
 807              	.LVL50:
 808              	.L41:
 809              		.loc 8 84 1 view .LVU262
 810              	.LBE258:
 811              	.LBE257:
 812              	.LBE259:
 813              		.loc 6 572 3 is_stmt 1 view .LVU263
 814              		.loc 6 572 6 is_stmt 0 view .LVU264
 815 005c B442     		cmp	r4, r6
 816 005e 09D0     		beq	.L40
 817              		.loc 6 577 3 is_stmt 1 view .LVU265
 818              	.LVL51:
 819              		.loc 6 578 3 view .LVU266
 820              		.loc 6 581 3 view .LVU267
 821              	.LBB260:
 822              	.LBI260:
 823              		.loc 8 93 20 view .LVU268
 824              	.LBB261:
 825              		.loc 8 95 3 view .LVU269
 826              	.LBE261:
 827              	.LBE260:
 828              		.loc 6 577 30 is_stmt 0 view .LVU270
 829 0060 0B44     		add	r3, r3, r1
 830              		.loc 6 577 9 view .LVU271
 831 0062 1B1A     		subs	r3, r3, r0
 832              	.LBE264:
 833              	.LBE266:
 834              		.loc 1 351 1 view .LVU272
 835 0064 BDE8F047 		pop	{r4, r5, r6, r7, r8, r9, r10, lr}
 836              		.cfi_remember_state
 837              		.cfi_restore 14
 838              		.cfi_restore 10
 839              		.cfi_restore 9
 840              		.cfi_restore 8
 841              		.cfi_restore 7
 842              		.cfi_restore 6
 843              		.cfi_restore 5
 844              		.cfi_restore 4
 845              		.cfi_def_cfa_offset 0
 846              	.LVL52:
 847              	.LBB267:
 848              	.LBB265:
 849              	.LBB263:
 850              	.LBB262:
 851              		.loc 8 95 3 view .LVU273
 852 0068 022B     		cmp	r3, #2
 853 006a 2CBF     		ite	cs
 854 006c C018     		addcs	r0, r0, r3
ARM GAS  C:\msys64\tmp\ccktAOMk.s 			page 16


 855 006e 0230     		addcc	r0, r0, #2
 856 0070 FFF7FEBF 		b	stSetAlarm
 857              	.LVL53:
 858              	.L40:
 859              		.cfi_restore_state
 860              		.loc 8 95 3 view .LVU274
 861              	.LBE262:
 862              	.LBE263:
 863              	.LBE265:
 864              	.LBE267:
 865              		.loc 1 351 1 view .LVU275
 866 0074 BDE8F087 		pop	{r4, r5, r6, r7, r8, r9, r10, pc}
 867              	.LVL54:
 868              	.L50:
 869              		.loc 1 351 1 view .LVU276
 870              		.align	2
 871              	.L49:
 872 0078 00000000 		.word	ch
 873              		.cfi_endproc
 874              	.LFE206:
 875              		.size	chSysTimerHandlerI, .-chSysTimerHandlerI
 876              		.section	.text.chSysGetStatusAndLockX,"ax",%progbits
 877              		.align	1
 878              		.p2align 4,,15
 879              		.global	chSysGetStatusAndLockX
 880              		.syntax unified
 881              		.thumb
 882              		.thumb_func
 883              		.type	chSysGetStatusAndLockX, %function
 884              	chSysGetStatusAndLockX:
 885              	.LFB207:
 886              		.loc 1 366 39 is_stmt 1 view -0
 887              		.cfi_startproc
 888              		@ args = 0, pretend = 0, frame = 0
 889              		@ frame_needed = 0, uses_anonymous_args = 0
 890              		@ link register save eliminated.
 891              		.loc 1 368 3 view .LVU278
 892              	.LBB268:
 893              	.LBI268:
 894              		.loc 2 558 24 view .LVU279
 895              	.LBB269:
 896              		.loc 2 559 3 view .LVU280
 897              		.loc 2 562 3 view .LVU281
 898              	.LBB270:
 899              	.LBI270:
 900              		.loc 5 531 61 view .LVU282
 901              	.LBB271:
 902              		.loc 5 533 3 view .LVU283
 903              		.loc 5 535 3 view .LVU284
 904              		.syntax unified
 905              	@ 535 "ChibiOS/os/common/ext/CMSIS/include/core_cmFunc.h" 1
 906 0000 EFF31180 		MRS r0, basepri
 907              	@ 0 "" 2
 908              	.LVL55:
 909              		.loc 5 536 3 view .LVU285
 910              		.loc 5 536 3 is_stmt 0 view .LVU286
 911              		.thumb
ARM GAS  C:\msys64\tmp\ccktAOMk.s 			page 17


 912              		.syntax unified
 913              	.LBE271:
 914              	.LBE270:
 915              		.loc 2 566 3 is_stmt 1 view .LVU287
 916              		.loc 2 566 3 is_stmt 0 view .LVU288
 917              	.LBE269:
 918              	.LBE268:
 919              		.loc 1 369 3 is_stmt 1 view .LVU289
 920              		.loc 1 369 6 is_stmt 0 discriminator 1 view .LVU290
 921 0004 20B9     		cbnz	r0, .L51
 922              		.loc 1 370 5 is_stmt 1 view .LVU291
 923              	.LBB272:
 924              	.LBI272:
 925              		.loc 2 594 20 view .LVU292
 926              	.LBB273:
 927              		.loc 2 596 3 view .LVU293
 928              	.LBB274:
 929              	.LBI274:
 930              		.loc 5 381 61 view .LVU294
 931              	.LBB275:
 932              		.loc 5 383 3 view .LVU295
 933              		.loc 5 385 3 view .LVU296
 934              		.syntax unified
 935              	@ 385 "ChibiOS/os/common/ext/CMSIS/include/core_cmFunc.h" 1
 936 0006 EFF30583 		MRS r3, ipsr
 937              	@ 0 "" 2
 938              	.LVL56:
 939              		.loc 5 386 3 view .LVU297
 940              		.loc 5 386 3 is_stmt 0 view .LVU298
 941              		.thumb
 942              		.syntax unified
 943              	.LBE275:
 944              	.LBE274:
 945              	.LBE273:
 946              	.LBE272:
 947              		.loc 1 374 7 is_stmt 1 view .LVU299
 948              	.LBB276:
 949              	.LBI276:
 950              		.loc 4 374 20 view .LVU300
 951              	.LBB277:
 952              		.loc 4 376 3 view .LVU301
 953              	.LBB278:
 954              	.LBI278:
 955              		.loc 2 604 20 view .LVU302
 956              		.loc 2 612 3 view .LVU303
 957              	.LBB279:
 958              	.LBI279:
 959              		.loc 5 546 57 view .LVU304
 960              	.LBB280:
 961              		.loc 5 548 3 view .LVU305
 962 000a 2023     		movs	r3, #32
 963              		.syntax unified
 964              	@ 548 "ChibiOS/os/common/ext/CMSIS/include/core_cmFunc.h" 1
 965 000c 83F31188 		MSR basepri, r3
 966              	@ 0 "" 2
 967              	.LVL57:
 968              		.loc 5 548 3 is_stmt 0 view .LVU306
ARM GAS  C:\msys64\tmp\ccktAOMk.s 			page 18


 969              		.thumb
 970              		.syntax unified
 971              	.LBE280:
 972              	.LBE279:
 973              	.LBE278:
 974              		.loc 4 377 34 is_stmt 1 view .LVU307
 975              		.loc 4 378 20 view .LVU308
 976              	.LBE277:
 977              	.LBE276:
 978              		.loc 1 377 3 view .LVU309
 979              	.L51:
 980              		.loc 1 378 1 is_stmt 0 view .LVU310
 981 0010 7047     		bx	lr
 982              		.cfi_endproc
 983              	.LFE207:
 984              		.size	chSysGetStatusAndLockX, .-chSysGetStatusAndLockX
 985 0012 00BF     		.section	.text.chSysRestoreStatusX,"ax",%progbits
 986              		.align	1
 987              		.p2align 4,,15
 988              		.global	chSysRestoreStatusX
 989              		.syntax unified
 990              		.thumb
 991              		.thumb_func
 992              		.type	chSysRestoreStatusX, %function
 993              	chSysRestoreStatusX:
 994              	.LVL58:
 995              	.LFB208:
 996              		.loc 1 389 40 is_stmt 1 view -0
 997              		.cfi_startproc
 998              		@ args = 0, pretend = 0, frame = 0
 999              		@ frame_needed = 0, uses_anonymous_args = 0
 1000              		.loc 1 391 3 view .LVU312
 1001              		.loc 1 391 6 is_stmt 0 discriminator 1 view .LVU313
 1002 0000 40B9     		cbnz	r0, .L58
 1003              		.loc 1 392 5 is_stmt 1 view .LVU314
 1004              	.LBB281:
 1005              	.LBI281:
 1006              		.loc 2 594 20 view .LVU315
 1007              	.LBB282:
 1008              		.loc 2 596 3 view .LVU316
 1009              	.LBB283:
 1010              	.LBI283:
 1011              		.loc 5 381 61 view .LVU317
 1012              	.LBB284:
 1013              		.loc 5 383 3 view .LVU318
 1014              		.loc 5 385 3 view .LVU319
 1015              	.LBE284:
 1016              	.LBE283:
 1017              	.LBE282:
 1018              	.LBE281:
 1019              		.loc 1 389 40 is_stmt 0 view .LVU320
 1020 0002 10B5     		push	{r4, lr}
 1021              		.cfi_def_cfa_offset 8
 1022              		.cfi_offset 4, -8
 1023              		.cfi_offset 14, -4
 1024              	.LBB288:
 1025              	.LBB287:
ARM GAS  C:\msys64\tmp\ccktAOMk.s 			page 19


 1026              	.LBB286:
 1027              	.LBB285:
 1028              		.loc 5 385 3 view .LVU321
 1029              		.syntax unified
 1030              	@ 385 "ChibiOS/os/common/ext/CMSIS/include/core_cmFunc.h" 1
 1031 0004 EFF30584 		MRS r4, ipsr
 1032              	@ 0 "" 2
 1033              	.LVL59:
 1034              		.loc 5 386 3 is_stmt 1 view .LVU322
 1035              		.loc 5 386 3 is_stmt 0 view .LVU323
 1036              		.thumb
 1037              		.syntax unified
 1038              	.LBE285:
 1039              	.LBE286:
 1040              		.loc 2 596 31 discriminator 1 view .LVU324
 1041 0008 C4F30804 		ubfx	r4, r4, #0, #9
 1042              	.LBE287:
 1043              	.LBE288:
 1044              		.loc 1 392 8 discriminator 1 view .LVU325
 1045 000c 1CB1     		cbz	r4, .L56
 1046              		.loc 1 393 7 is_stmt 1 view .LVU326
 1047              	.LBB289:
 1048              	.LBI289:
 1049              		.loc 4 434 20 view .LVU327
 1050              	.LBB290:
 1051              		.loc 4 436 31 view .LVU328
 1052              		.loc 4 437 33 view .LVU329
 1053              		.loc 4 438 3 view .LVU330
 1054              	.LBB291:
 1055              	.LBI291:
 1056              		.loc 2 654 20 view .LVU331
 1057              		.loc 2 656 3 view .LVU332
 1058              	.LBB292:
 1059              	.LBI292:
 1060              		.loc 2 628 20 view .LVU333
 1061              		.loc 2 631 3 view .LVU334
 1062              	.LVL60:
 1063              	.LBB293:
 1064              	.LBI293:
 1065              		.loc 5 546 57 view .LVU335
 1066              	.LBB294:
 1067              		.loc 5 548 3 view .LVU336
 1068              		.syntax unified
 1069              	@ 548 "ChibiOS/os/common/ext/CMSIS/include/core_cmFunc.h" 1
 1070 000e 80F31188 		MSR basepri, r0
 1071              	@ 0 "" 2
 1072              	.LVL61:
 1073              		.loc 5 548 3 is_stmt 0 view .LVU337
 1074              		.thumb
 1075              		.syntax unified
 1076              	.LBE294:
 1077              	.LBE293:
 1078              	.LBE292:
 1079              	.LBE291:
 1080              	.LBE290:
 1081              	.LBE289:
 1082              		.loc 1 400 1 view .LVU338
ARM GAS  C:\msys64\tmp\ccktAOMk.s 			page 20


 1083 0012 10BD     		pop	{r4, pc}
 1084              	.L58:
 1085              		.cfi_def_cfa_offset 0
 1086              		.cfi_restore 4
 1087              		.cfi_restore 14
 1088 0014 7047     		bx	lr
 1089              	.L56:
 1090              		.cfi_def_cfa_offset 8
 1091              		.cfi_offset 4, -8
 1092              		.cfi_offset 14, -4
 1093              		.loc 1 396 7 is_stmt 1 view .LVU339
 1094 0016 FFF7FEFF 		bl	chSchRescheduleS
 1095              	.LVL62:
 1096              		.loc 1 397 7 view .LVU340
 1097              	.LBB295:
 1098              	.LBI295:
 1099              		.loc 4 386 20 view .LVU341
 1100              	.LBB296:
 1101              		.loc 4 388 22 view .LVU342
 1102              		.loc 4 389 33 view .LVU343
 1103              		.loc 4 395 3 view .LVU344
 1104              		.loc 4 395 3 view .LVU345
 1105              		.loc 4 395 3 view .LVU346
 1106              		.loc 4 399 3 view .LVU347
 1107              	.LBB297:
 1108              	.LBI297:
 1109              		.loc 2 628 20 view .LVU348
 1110              		.loc 2 631 3 view .LVU349
 1111              	.LBB298:
 1112              	.LBI298:
 1113              		.loc 5 546 57 view .LVU350
 1114              	.LBB299:
 1115              		.loc 5 548 3 view .LVU351
 1116              		.syntax unified
 1117              	@ 548 "ChibiOS/os/common/ext/CMSIS/include/core_cmFunc.h" 1
 1118 001a 84F31188 		MSR basepri, r4
 1119              	@ 0 "" 2
 1120              	.LVL63:
 1121              		.loc 5 548 3 is_stmt 0 view .LVU352
 1122              		.thumb
 1123              		.syntax unified
 1124              	.LBE299:
 1125              	.LBE298:
 1126              	.LBE297:
 1127              	.LBE296:
 1128              	.LBE295:
 1129              		.loc 1 400 1 view .LVU353
 1130 001e 10BD     		pop	{r4, pc}
 1131              		.cfi_endproc
 1132              	.LFE208:
 1133              		.size	chSysRestoreStatusX, .-chSysRestoreStatusX
 1134              		.section	.text.chSysIsCounterWithinX,"ax",%progbits
 1135              		.align	1
 1136              		.p2align 4,,15
 1137              		.global	chSysIsCounterWithinX
 1138              		.syntax unified
 1139              		.thumb
ARM GAS  C:\msys64\tmp\ccktAOMk.s 			page 21


 1140              		.thumb_func
 1141              		.type	chSysIsCounterWithinX, %function
 1142              	chSysIsCounterWithinX:
 1143              	.LVL64:
 1144              	.LFB209:
 1145              		.loc 1 421 69 is_stmt 1 view -0
 1146              		.cfi_startproc
 1147              		@ args = 0, pretend = 0, frame = 0
 1148              		@ frame_needed = 0, uses_anonymous_args = 0
 1149              		@ link register save eliminated.
 1150              		.loc 1 423 3 view .LVU355
 1151              		.loc 1 423 22 is_stmt 0 view .LVU356
 1152 0000 401A     		subs	r0, r0, r1
 1153              	.LVL65:
 1154              		.loc 1 423 38 view .LVU357
 1155 0002 521A     		subs	r2, r2, r1
 1156              	.LVL66:
 1157              		.loc 1 424 1 view .LVU358
 1158 0004 9042     		cmp	r0, r2
 1159 0006 2CBF     		ite	cs
 1160 0008 0020     		movcs	r0, #0
 1161 000a 0120     		movcc	r0, #1
 1162 000c 7047     		bx	lr
 1163              		.cfi_endproc
 1164              	.LFE209:
 1165              		.size	chSysIsCounterWithinX, .-chSysIsCounterWithinX
 1166 000e 00BF     		.section	.text.chSysPolledDelayX,"ax",%progbits
 1167              		.align	1
 1168              		.p2align 4,,15
 1169              		.global	chSysPolledDelayX
 1170              		.syntax unified
 1171              		.thumb
 1172              		.thumb_func
 1173              		.type	chSysPolledDelayX, %function
 1174              	chSysPolledDelayX:
 1175              	.LVL67:
 1176              	.LFB210:
 1177              		.loc 1 437 40 is_stmt 1 view -0
 1178              		.cfi_startproc
 1179              		@ args = 0, pretend = 0, frame = 0
 1180              		@ frame_needed = 0, uses_anonymous_args = 0
 1181              		@ link register save eliminated.
 1182              		.loc 1 438 3 view .LVU360
 1183              	.LBB306:
 1184              	.LBI306:
 1185              		.loc 2 716 23 view .LVU361
 1186              	.LBB307:
 1187              		.loc 2 718 3 view .LVU362
 1188              		.loc 2 718 13 is_stmt 0 view .LVU363
 1189 0000 034A     		ldr	r2, .L65
 1190 0002 5168     		ldr	r1, [r2, #4]
 1191              	.LVL68:
 1192              		.loc 2 718 13 view .LVU364
 1193              	.LBE307:
 1194              	.LBE306:
 1195              		.loc 1 439 3 is_stmt 1 view .LVU365
 1196              		.loc 1 441 3 view .LVU366
ARM GAS  C:\msys64\tmp\ccktAOMk.s 			page 22


 1197              	.L63:
 1198              		.loc 1 442 3 view .LVU367
 1199              		.loc 1 441 10 discriminator 1 view .LVU368
 1200              	.LBB308:
 1201              	.LBI308:
 1202              		.loc 2 716 23 view .LVU369
 1203              	.LBB309:
 1204              		.loc 2 718 3 view .LVU370
 1205              		.loc 2 718 13 is_stmt 0 view .LVU371
 1206 0004 5368     		ldr	r3, [r2, #4]
 1207              	.LVL69:
 1208              		.loc 2 718 13 view .LVU372
 1209              	.LBE309:
 1210              	.LBE308:
 1211              	.LBB310:
 1212              	.LBI310:
 1213              		.loc 1 421 6 is_stmt 1 view .LVU373
 1214              	.LBB311:
 1215              		.loc 1 423 3 view .LVU374
 1216              		.loc 1 423 22 is_stmt 0 view .LVU375
 1217 0006 5B1A     		subs	r3, r3, r1
 1218              	.LBE311:
 1219              	.LBE310:
 1220              		.loc 1 441 10 discriminator 1 view .LVU376
 1221 0008 9842     		cmp	r0, r3
 1222 000a FBD8     		bhi	.L63
 1223              		.loc 1 443 1 view .LVU377
 1224 000c 7047     		bx	lr
 1225              	.L66:
 1226 000e 00BF     		.align	2
 1227              	.L65:
 1228 0010 001000E0 		.word	-536866816
 1229              		.cfi_endproc
 1230              	.LFE210:
 1231              		.size	chSysPolledDelayX, .-chSysPolledDelayX
 1232              		.section	.rodata.str1.4,"aMS",%progbits,1
 1233              		.align	2
 1234              	.LC1:
 1235 0000 69646C65 		.ascii	"idle\000"
 1235      00
 1236              		.section	.rodata.idle_descriptor.0,"a"
 1237              		.align	2
 1238              		.type	idle_descriptor.0, %object
 1239              		.size	idle_descriptor.0, 24
 1240              	idle_descriptor.0:
 1241 0000 00000000 		.word	.LC1
 1242 0004 00000000 		.word	ch_idle_thread_wa
 1243 0008 38010000 		.word	ch_idle_thread_wa+312
 1244 000c 01000000 		.word	1
 1245 0010 00000000 		.word	_idle_thread
 1246 0014 00000000 		.word	0
 1247              		.global	ch_idle_thread_wa
 1248              		.section	.bss.ch_idle_thread_wa,"aw",%nobits
 1249              		.align	3
 1250              		.type	ch_idle_thread_wa, %object
 1251              		.size	ch_idle_thread_wa, 312
 1252              	ch_idle_thread_wa:
ARM GAS  C:\msys64\tmp\ccktAOMk.s 			page 23


 1253 0000 00000000 		.space	312
 1253      00000000 
 1253      00000000 
 1253      00000000 
 1253      00000000 
 1254              		.text
 1255              	.Letext0:
 1256              		.file 9 "C:/Program Files (x86)/Arm GNU Toolchain arm-none-eabi/14.3 rel1/lib/gcc/arm-none-eabi/14
 1257              		.file 10 "C:/Program Files (x86)/Arm GNU Toolchain arm-none-eabi/14.3 rel1/arm-none-eabi/include/m
 1258              		.file 11 "C:/Program Files (x86)/Arm GNU Toolchain arm-none-eabi/14.3 rel1/arm-none-eabi/include/s
 1259              		.file 12 "ChibiOS/os/common/ports/ARMCMx/compilers/GCC/chtypes.h"
 1260              		.file 13 "ChibiOS/os/rt/include/chsystypes.h"
 1261              		.file 14 "ChibiOS/os/rt/include/chschd.h"
 1262              		.file 15 "ChibiOS/os/common/ext/CMSIS/ST/STM32F3xx/stm32f303xc.h"
 1263              		.file 16 "ChibiOS/os/common/ports/ARMCMx/chcore.h"
 1264              		.file 17 "ChibiOS/os/hal/ports/STM32/LLD/TIMv1/stm32_tim.h"
 1265              		.file 18 "ChibiOS/os/rt/include/chthreads.h"
 1266              		.file 19 "ChibiOS/os/hal/include/hal_st.h"