ARM GAS  C:\msys64\tmp\ccOIYPIK.s 			page 1


   1              		.cpu cortex-m4
   2              		.arch armv7e-m
   3              		.fpu fpv4-sp-d16
   4              		.eabi_attribute 27, 1
   5              		.eabi_attribute 28, 1
   6              		.eabi_attribute 23, 1
   7              		.eabi_attribute 24, 1
   8              		.eabi_attribute 25, 1
   9              		.eabi_attribute 26, 1
  10              		.eabi_attribute 30, 2
  11              		.eabi_attribute 34, 1
  12              		.eabi_attribute 18, 4
  13              		.file	"chthreads.c"
  14              		.text
  15              	.Ltext0:
  16              		.cfi_sections	.debug_frame
  17              		.file 1 "ChibiOS/os/rt/src/chthreads.c"
  18              		.section	.text._thread_init,"ax",%progbits
  19              		.align	1
  20              		.p2align 4,,15
  21              		.global	_thread_init
  22              		.syntax unified
  23              		.thumb
  24              		.thumb_func
  25              		.type	_thread_init, %function
  26              	_thread_init:
  27              	.LVL0:
  28              	.LFB202:
  29              		.loc 1 88 70 view -0
  30              		.cfi_startproc
  31              		@ args = 0, pretend = 0, frame = 0
  32              		@ frame_needed = 0, uses_anonymous_args = 0
  33              		@ link register save eliminated.
  34              		.loc 1 90 3 view .LVU1
  35              		.loc 1 91 17 is_stmt 0 view .LVU2
  36 0000 0221     		movs	r1, #2
  37              	.LVL1:
  38              		.loc 1 90 17 view .LVU3
  39 0002 8260     		str	r2, [r0, #8]
  40              		.loc 1 91 3 is_stmt 1 view .LVU4
  41              		.loc 1 92 3 view .LVU5
  42              		.loc 1 91 17 is_stmt 0 view .LVU6
  43 0004 8182     		strh	r1, [r0, #20]	@ movhi
  44              		.loc 1 111 3 is_stmt 1 view .LVU7
  45              		.loc 1 122 3 view .LVU8
  46              		.loc 1 122 30 view .LVU9
  47              		.loc 1 123 3 view .LVU10
  48              		.loc 1 124 1 is_stmt 0 view .LVU11
  49 0006 7047     		bx	lr
  50              		.cfi_endproc
  51              	.LFE202:
  52              		.size	_thread_init, .-_thread_init
  53              		.section	.text._thread_memfill,"ax",%progbits
  54              		.align	1
  55              		.p2align 4,,15
  56              		.global	_thread_memfill
  57              		.syntax unified
ARM GAS  C:\msys64\tmp\ccOIYPIK.s 			page 2


  58              		.thumb
  59              		.thumb_func
  60              		.type	_thread_memfill, %function
  61              	_thread_memfill:
  62              	.LVL2:
  63              	.LFB203:
  64              		.loc 1 136 65 is_stmt 1 view -0
  65              		.cfi_startproc
  66              		@ args = 0, pretend = 0, frame = 0
  67              		@ frame_needed = 0, uses_anonymous_args = 0
  68              		@ link register save eliminated.
  69              		.loc 1 138 3 view .LVU13
  70              		.loc 1 138 17 view .LVU14
  71              		.loc 1 136 65 is_stmt 0 view .LVU15
  72 0000 8C46     		mov	ip, r1
  73              		.loc 1 138 17 view .LVU16
  74 0002 6045     		cmp	r0, ip
  75              		.loc 1 136 65 view .LVU17
  76 0004 1146     		mov	r1, r2
  77              	.LVL3:
  78              		.loc 1 138 17 view .LVU18
  79 0006 03D2     		bcs	.L3
  80              		.loc 1 139 15 view .LVU19
  81 0008 ACEB0002 		sub	r2, ip, r0
  82              	.LVL4:
  83              		.loc 1 139 15 view .LVU20
  84 000c FFF7FEBF 		b	memset
  85              	.LVL5:
  86              	.L3:
  87              		.loc 1 141 1 view .LVU21
  88 0010 7047     		bx	lr
  89              		.cfi_endproc
  90              	.LFE203:
  91              		.size	_thread_memfill, .-_thread_memfill
  92 0012 00BF     		.section	.text.chThdCreateSuspendedI,"ax",%progbits
  93              		.align	1
  94              		.p2align 4,,15
  95              		.global	chThdCreateSuspendedI
  96              		.syntax unified
  97              		.thumb
  98              		.thumb_func
  99              		.type	chThdCreateSuspendedI, %function
 100              	chThdCreateSuspendedI:
 101              	.LVL6:
 102              	.LFB204:
 103              		.loc 1 167 65 is_stmt 1 view -0
 104              		.cfi_startproc
 105              		@ args = 0, pretend = 0, frame = 0
 106              		@ frame_needed = 0, uses_anonymous_args = 0
 107              		@ link register save eliminated.
 108              		.loc 1 168 3 view .LVU23
 109              		.loc 1 170 21 view .LVU24
 110              		.loc 1 171 3 view .LVU25
 111              		.loc 1 171 3 view .LVU26
 112              		.loc 1 171 3 view .LVU27
 113              		.loc 1 172 3 view .LVU28
 114              		.loc 1 172 3 view .LVU29
ARM GAS  C:\msys64\tmp\ccOIYPIK.s 			page 3


 115              		.loc 1 172 3 view .LVU30
 116              		.loc 1 176 3 view .LVU31
 117              		.loc 1 176 3 view .LVU32
 118              		.loc 1 176 3 view .LVU33
 119              		.loc 1 181 3 view .LVU34
 120              		.loc 1 167 65 is_stmt 0 view .LVU35
 121 0000 30B4     		push	{r4, r5}
 122              		.cfi_def_cfa_offset 8
 123              		.cfi_offset 4, -8
 124              		.cfi_offset 5, -4
 125              		.loc 1 186 14 view .LVU36
 126 0002 D0E90113 		ldrd	r1, r3, [r0, #4]
 127              		.loc 1 190 3 view .LVU37
 128 0006 0269     		ldr	r2, [r0, #16]
 129 0008 43F8442C 		str	r2, [r3, #-68]
 130 000c A3F18405 		sub	r5, r3, #132
 131              	.LBB181:
 132              	.LBB182:
 133              		.loc 1 91 17 view .LVU38
 134 0010 0222     		movs	r2, #2
 135              	.LBE182:
 136              	.LBE181:
 137              		.loc 1 186 14 view .LVU39
 138 0012 43E90551 		strd	r5, r1, [r3, #-20]
 139              		.loc 1 190 3 is_stmt 1 view .LVU40
 140              		.loc 1 190 3 view .LVU41
 141              		.loc 1 190 3 view .LVU42
 142 0016 074C     		ldr	r4, .L7
 143 0018 4569     		ldr	r5, [r0, #20]
 144              	.LBB186:
 145              	.LBB183:
 146              		.loc 1 90 17 is_stmt 0 view .LVU43
 147 001a C168     		ldr	r1, [r0, #12]
 148              		.loc 1 91 17 view .LVU44
 149 001c 23F80C2C 		strh	r2, [r3, #-12]	@ movhi
 150              	.LBE183:
 151              	.LBE186:
 152              		.loc 1 190 3 view .LVU45
 153 0020 43F8405C 		str	r5, [r3, #-64]
 154              		.loc 1 190 3 is_stmt 1 view .LVU46
 155 0024 43F8244C 		str	r4, [r3, #-36]
 156              		.loc 1 190 63 view .LVU47
 157              		.loc 1 193 3 view .LVU48
 158              	.LVL7:
 159              	.LBB187:
 160              	.LBI181:
 161              		.loc 1 88 11 view .LVU49
 162              	.LBB184:
 163              		.loc 1 90 3 view .LVU50
 164              	.LBE184:
 165              	.LBE187:
 166              		.loc 1 194 1 is_stmt 0 view .LVU51
 167 0028 A3F12000 		sub	r0, r3, #32
 168              	.LVL8:
 169              		.loc 1 194 1 view .LVU52
 170 002c 30BC     		pop	{r4, r5}
 171              		.cfi_restore 5
ARM GAS  C:\msys64\tmp\ccOIYPIK.s 			page 4


 172              		.cfi_restore 4
 173              		.cfi_def_cfa_offset 0
 174              	.LBB188:
 175              	.LBB185:
 176              		.loc 1 90 17 view .LVU53
 177 002e 43F8181C 		str	r1, [r3, #-24]
 178              		.loc 1 91 3 is_stmt 1 view .LVU54
 179              		.loc 1 92 3 view .LVU55
 180              		.loc 1 111 3 view .LVU56
 181              		.loc 1 122 3 view .LVU57
 182              		.loc 1 122 30 view .LVU58
 183              		.loc 1 123 3 view .LVU59
 184              	.LVL9:
 185              		.loc 1 123 3 is_stmt 0 view .LVU60
 186              	.LBE185:
 187              	.LBE188:
 188              		.loc 1 194 1 view .LVU61
 189 0032 7047     		bx	lr
 190              	.L8:
 191              		.align	2
 192              	.L7:
 193 0034 00000000 		.word	_port_thread_start
 194              		.cfi_endproc
 195              	.LFE204:
 196              		.size	chThdCreateSuspendedI, .-chThdCreateSuspendedI
 197              		.section	.text.chThdCreateSuspended,"ax",%progbits
 198              		.align	1
 199              		.p2align 4,,15
 200              		.global	chThdCreateSuspended
 201              		.syntax unified
 202              		.thumb
 203              		.thumb_func
 204              		.type	chThdCreateSuspended, %function
 205              	chThdCreateSuspended:
 206              	.LVL10:
 207              	.LFB205:
 208              		.loc 1 217 64 is_stmt 1 view -0
 209              		.cfi_startproc
 210              		@ args = 0, pretend = 0, frame = 0
 211              		@ frame_needed = 0, uses_anonymous_args = 0
 212              		.loc 1 218 3 view .LVU63
 213              		.loc 1 226 3 view .LVU64
 214              		.loc 1 217 64 is_stmt 0 view .LVU65
 215 0000 10B5     		push	{r4, lr}
 216              		.cfi_def_cfa_offset 8
 217              		.cfi_offset 4, -8
 218              		.cfi_offset 14, -4
 219              		.loc 1 217 64 view .LVU66
 220 0002 0446     		mov	r4, r0
 221              		.loc 1 226 33 view .LVU67
 222 0004 4068     		ldr	r0, [r0, #4]
 223              	.LVL11:
 224              		.loc 1 227 33 view .LVU68
 225 0006 A268     		ldr	r2, [r4, #8]
 226              	.LVL12:
 227              	.LBB200:
 228              	.LBI200:
ARM GAS  C:\msys64\tmp\ccOIYPIK.s 			page 5


 229              		.loc 1 136 6 is_stmt 1 view .LVU69
 230              	.LBB201:
 231              		.loc 1 138 3 view .LVU70
 232              		.loc 1 138 17 view .LVU71
 233 0008 9042     		cmp	r0, r2
 234 000a 03D2     		bcs	.L10
 235              		.loc 1 139 15 is_stmt 0 view .LVU72
 236 000c 121A     		subs	r2, r2, r0
 237              	.LVL13:
 238              		.loc 1 139 15 view .LVU73
 239 000e 5521     		movs	r1, #85
 240 0010 FFF7FEFF 		bl	memset
 241              	.LVL14:
 242              	.L10:
 243              		.loc 1 139 15 view .LVU74
 244              	.LBE201:
 245              	.LBE200:
 246              		.loc 1 231 3 is_stmt 1 view .LVU75
 247              	.LBB202:
 248              	.LBI202:
 249              		.file 2 "ChibiOS/os/rt/include/chsys.h"
 250              		.loc 2 374 20 view .LVU76
 251              		.loc 2 376 3 view .LVU77
 252              	.LBB203:
 253              	.LBI203:
 254              		.file 3 "ChibiOS/os/common/ports/ARMCMx/chcore_v7m.h"
 255              		.loc 3 604 20 view .LVU78
 256              		.loc 3 612 3 view .LVU79
 257              	.LBB204:
 258              	.LBI204:
 259              		.file 4 "ChibiOS/os/common/ext/CMSIS/include/core_cmFunc.h"
 260              		.loc 4 546 57 view .LVU80
 261              	.LBB205:
 262              		.loc 4 548 3 view .LVU81
 263 0014 2023     		movs	r3, #32
 264              		.syntax unified
 265              	@ 548 "ChibiOS/os/common/ext/CMSIS/include/core_cmFunc.h" 1
 266 0016 83F31188 		MSR basepri, r3
 267              	@ 0 "" 2
 268              	.LVL15:
 269              		.loc 4 548 3 is_stmt 0 view .LVU82
 270              		.thumb
 271              		.syntax unified
 272              	.LBE205:
 273              	.LBE204:
 274              	.LBE203:
 275              		.loc 2 377 34 is_stmt 1 view .LVU83
 276              		.loc 2 378 20 view .LVU84
 277              	.LBE202:
 278              		.loc 1 232 3 view .LVU85
 279              		.loc 1 232 8 is_stmt 0 view .LVU86
 280 001a 2046     		mov	r0, r4
 281 001c FFF7FEFF 		bl	chThdCreateSuspendedI
 282              	.LVL16:
 283              		.loc 1 233 3 is_stmt 1 view .LVU87
 284              	.LBB206:
 285              	.LBI206:
ARM GAS  C:\msys64\tmp\ccOIYPIK.s 			page 6


 286              		.loc 2 386 20 view .LVU88
 287              	.LBB207:
 288              		.loc 2 388 22 view .LVU89
 289              		.loc 2 389 33 view .LVU90
 290              		.loc 2 395 3 view .LVU91
 291              		.loc 2 395 3 view .LVU92
 292              		.loc 2 395 3 view .LVU93
 293              		.loc 2 399 3 view .LVU94
 294              	.LBB208:
 295              	.LBI208:
 296              		.loc 3 628 20 view .LVU95
 297              		.loc 3 631 3 view .LVU96
 298              	.LBB209:
 299              	.LBI209:
 300              		.loc 4 546 57 view .LVU97
 301              	.LBB210:
 302              		.loc 4 548 3 view .LVU98
 303 0020 0023     		movs	r3, #0
 304              		.syntax unified
 305              	@ 548 "ChibiOS/os/common/ext/CMSIS/include/core_cmFunc.h" 1
 306 0022 83F31188 		MSR basepri, r3
 307              	@ 0 "" 2
 308              	.LVL17:
 309              		.loc 4 548 3 is_stmt 0 view .LVU99
 310              		.thumb
 311              		.syntax unified
 312              	.LBE210:
 313              	.LBE209:
 314              	.LBE208:
 315              	.LBE207:
 316              	.LBE206:
 317              		.loc 1 235 3 is_stmt 1 view .LVU100
 318              		.loc 1 236 1 is_stmt 0 view .LVU101
 319 0026 10BD     		pop	{r4, pc}
 320              		.loc 1 236 1 view .LVU102
 321              		.cfi_endproc
 322              	.LFE205:
 323              		.size	chThdCreateSuspended, .-chThdCreateSuspended
 324              		.section	.text.chThdCreateI,"ax",%progbits
 325              		.align	1
 326              		.p2align 4,,15
 327              		.global	chThdCreateI
 328              		.syntax unified
 329              		.thumb
 330              		.thumb_func
 331              		.type	chThdCreateI, %function
 332              	chThdCreateI:
 333              	.LVL18:
 334              	.LFB206:
 335              		.loc 1 260 56 is_stmt 1 view -0
 336              		.cfi_startproc
 337              		@ args = 0, pretend = 0, frame = 0
 338              		@ frame_needed = 0, uses_anonymous_args = 0
 339              		.loc 1 262 3 view .LVU104
 340              		.loc 1 260 56 is_stmt 0 view .LVU105
 341 0000 08B5     		push	{r3, lr}
 342              		.cfi_def_cfa_offset 8
ARM GAS  C:\msys64\tmp\ccOIYPIK.s 			page 7


 343              		.cfi_offset 3, -8
 344              		.cfi_offset 14, -4
 345              		.loc 1 262 10 view .LVU106
 346 0002 FFF7FEFF 		bl	chThdCreateSuspendedI
 347              	.LVL19:
 348              		.loc 1 263 1 view .LVU107
 349 0006 BDE80840 		pop	{r3, lr}
 350              		.cfi_restore 14
 351              		.cfi_restore 3
 352              		.cfi_def_cfa_offset 0
 353              		.loc 1 262 10 discriminator 1 view .LVU108
 354 000a FFF7FEBF 		b	chSchReadyI
 355              	.LVL20:
 356              		.cfi_endproc
 357              	.LFE206:
 358              		.size	chThdCreateI, .-chThdCreateI
 359 000e 00BF     		.section	.text.chThdCreate,"ax",%progbits
 360              		.align	1
 361              		.p2align 4,,15
 362              		.global	chThdCreate
 363              		.syntax unified
 364              		.thumb
 365              		.thumb_func
 366              		.type	chThdCreate, %function
 367              	chThdCreate:
 368              	.LVL21:
 369              	.LFB207:
 370              		.loc 1 281 55 is_stmt 1 view -0
 371              		.cfi_startproc
 372              		@ args = 0, pretend = 0, frame = 0
 373              		@ frame_needed = 0, uses_anonymous_args = 0
 374              		.loc 1 282 3 view .LVU110
 375              		.loc 1 290 3 view .LVU111
 376              		.loc 1 281 55 is_stmt 0 view .LVU112
 377 0000 10B5     		push	{r4, lr}
 378              		.cfi_def_cfa_offset 8
 379              		.cfi_offset 4, -8
 380              		.cfi_offset 14, -4
 381              		.loc 1 281 55 view .LVU113
 382 0002 0446     		mov	r4, r0
 383              		.loc 1 290 33 view .LVU114
 384 0004 4068     		ldr	r0, [r0, #4]
 385              	.LVL22:
 386              		.loc 1 291 33 view .LVU115
 387 0006 A268     		ldr	r2, [r4, #8]
 388              	.LVL23:
 389              	.LBB222:
 390              	.LBI222:
 391              		.loc 1 136 6 is_stmt 1 view .LVU116
 392              	.LBB223:
 393              		.loc 1 138 3 view .LVU117
 394              		.loc 1 138 17 view .LVU118
 395 0008 9042     		cmp	r0, r2
 396 000a 03D2     		bcs	.L15
 397              		.loc 1 139 15 is_stmt 0 view .LVU119
 398 000c 121A     		subs	r2, r2, r0
 399              	.LVL24:
ARM GAS  C:\msys64\tmp\ccOIYPIK.s 			page 8


 400              		.loc 1 139 15 view .LVU120
 401 000e 5521     		movs	r1, #85
 402 0010 FFF7FEFF 		bl	memset
 403              	.LVL25:
 404              	.L15:
 405              		.loc 1 139 15 view .LVU121
 406              	.LBE223:
 407              	.LBE222:
 408              		.loc 1 295 3 is_stmt 1 view .LVU122
 409              	.LBB224:
 410              	.LBI224:
 411              		.loc 2 374 20 view .LVU123
 412              		.loc 2 376 3 view .LVU124
 413              	.LBB225:
 414              	.LBI225:
 415              		.loc 3 604 20 view .LVU125
 416              		.loc 3 612 3 view .LVU126
 417              	.LBB226:
 418              	.LBI226:
 419              		.loc 4 546 57 view .LVU127
 420              	.LBB227:
 421              		.loc 4 548 3 view .LVU128
 422 0014 2023     		movs	r3, #32
 423              		.syntax unified
 424              	@ 548 "ChibiOS/os/common/ext/CMSIS/include/core_cmFunc.h" 1
 425 0016 83F31188 		MSR basepri, r3
 426              	@ 0 "" 2
 427              	.LVL26:
 428              		.loc 4 548 3 is_stmt 0 view .LVU129
 429              		.thumb
 430              		.syntax unified
 431              	.LBE227:
 432              	.LBE226:
 433              	.LBE225:
 434              		.loc 2 377 34 is_stmt 1 view .LVU130
 435              		.loc 2 378 20 view .LVU131
 436              	.LBE224:
 437              		.loc 1 296 3 view .LVU132
 438              		.loc 1 296 8 is_stmt 0 view .LVU133
 439 001a 2046     		mov	r0, r4
 440 001c FFF7FEFF 		bl	chThdCreateSuspendedI
 441              	.LVL27:
 442              		.loc 1 297 3 view .LVU134
 443 0020 0021     		movs	r1, #0
 444              		.loc 1 296 8 view .LVU135
 445 0022 0446     		mov	r4, r0
 446              	.LVL28:
 447              		.loc 1 297 3 is_stmt 1 view .LVU136
 448 0024 FFF7FEFF 		bl	chSchWakeupS
 449              	.LVL29:
 450              		.loc 1 298 3 view .LVU137
 451              	.LBB228:
 452              	.LBI228:
 453              		.loc 2 386 20 view .LVU138
 454              	.LBB229:
 455              		.loc 2 388 22 view .LVU139
 456              		.loc 2 389 33 view .LVU140
ARM GAS  C:\msys64\tmp\ccOIYPIK.s 			page 9


 457              		.loc 2 395 3 view .LVU141
 458              		.loc 2 395 3 view .LVU142
 459              		.loc 2 395 3 view .LVU143
 460              		.loc 2 399 3 view .LVU144
 461              	.LBB230:
 462              	.LBI230:
 463              		.loc 3 628 20 view .LVU145
 464              		.loc 3 631 3 view .LVU146
 465              	.LBB231:
 466              	.LBI231:
 467              		.loc 4 546 57 view .LVU147
 468              	.LBB232:
 469              		.loc 4 548 3 view .LVU148
 470 0028 0023     		movs	r3, #0
 471              		.syntax unified
 472              	@ 548 "ChibiOS/os/common/ext/CMSIS/include/core_cmFunc.h" 1
 473 002a 83F31188 		MSR basepri, r3
 474              	@ 0 "" 2
 475              	.LVL30:
 476              		.loc 4 548 3 is_stmt 0 view .LVU149
 477              		.thumb
 478              		.syntax unified
 479              	.LBE232:
 480              	.LBE231:
 481              	.LBE230:
 482              	.LBE229:
 483              	.LBE228:
 484              		.loc 1 300 3 is_stmt 1 view .LVU150
 485              		.loc 1 301 1 is_stmt 0 view .LVU151
 486 002e 2046     		mov	r0, r4
 487 0030 10BD     		pop	{r4, pc}
 488              		.loc 1 301 1 view .LVU152
 489              		.cfi_endproc
 490              	.LFE207:
 491              		.size	chThdCreate, .-chThdCreate
 492 0032 00BF     		.section	.text.chThdCreateStatic,"ax",%progbits
 493              		.align	1
 494              		.p2align 4,,15
 495              		.global	chThdCreateStatic
 496              		.syntax unified
 497              		.thumb
 498              		.thumb_func
 499              		.type	chThdCreateStatic, %function
 500              	chThdCreateStatic:
 501              	.LVL31:
 502              	.LFB208:
 503              		.loc 1 324 66 is_stmt 1 view -0
 504              		.cfi_startproc
 505              		@ args = 4, pretend = 0, frame = 0
 506              		@ frame_needed = 0, uses_anonymous_args = 0
 507              		.loc 1 325 3 view .LVU154
 508              		.loc 1 327 3 view .LVU155
 509              		.loc 1 327 3 view .LVU156
 510              		.loc 1 327 3 view .LVU157
 511              		.loc 1 339 3 view .LVU158
 512              		.loc 1 324 66 is_stmt 0 view .LVU159
 513 0000 F8B5     		push	{r3, r4, r5, r6, r7, lr}
ARM GAS  C:\msys64\tmp\ccOIYPIK.s 			page 10


 514              		.cfi_def_cfa_offset 24
 515              		.cfi_offset 3, -24
 516              		.cfi_offset 4, -20
 517              		.cfi_offset 5, -16
 518              		.cfi_offset 6, -12
 519              		.cfi_offset 7, -8
 520              		.cfi_offset 14, -4
 521              		.loc 1 324 66 view .LVU160
 522 0002 1F46     		mov	r7, r3
 523              		.loc 1 339 3 view .LVU161
 524 0004 4318     		adds	r3, r0, r1
 525              	.LVL32:
 526              	.LBB246:
 527              	.LBB247:
 528              		.loc 1 138 17 view .LVU162
 529 0006 9842     		cmp	r0, r3
 530              	.LBE247:
 531              	.LBE246:
 532              		.loc 1 324 66 view .LVU163
 533 0008 0546     		mov	r5, r0
 534              	.LVL33:
 535              		.loc 1 324 66 view .LVU164
 536 000a 0C46     		mov	r4, r1
 537              	.LVL34:
 538              	.LBB250:
 539              	.LBI246:
 540              		.loc 1 136 6 is_stmt 1 view .LVU165
 541              	.LBB248:
 542              		.loc 1 138 3 view .LVU166
 543              		.loc 1 138 17 view .LVU167
 544              	.LBE248:
 545              	.LBE250:
 546              		.loc 1 324 66 is_stmt 0 view .LVU168
 547 000c 1646     		mov	r6, r2
 548              	.LBB251:
 549              	.LBB249:
 550              		.loc 1 138 17 view .LVU169
 551 000e 03D2     		bcs	.L18
 552              		.loc 1 139 15 view .LVU170
 553 0010 0A46     		mov	r2, r1
 554              	.LVL35:
 555              		.loc 1 139 15 view .LVU171
 556 0012 5521     		movs	r1, #85
 557              	.LVL36:
 558              		.loc 1 139 15 view .LVU172
 559 0014 FFF7FEFF 		bl	memset
 560              	.LVL37:
 561              	.L18:
 562              		.loc 1 139 15 view .LVU173
 563              	.LBE249:
 564              	.LBE251:
 565              		.loc 1 344 3 is_stmt 1 view .LVU174
 566              	.LBB252:
 567              	.LBI252:
 568              		.loc 2 374 20 view .LVU175
 569              		.loc 2 376 3 view .LVU176
 570              	.LBB253:
ARM GAS  C:\msys64\tmp\ccOIYPIK.s 			page 11


 571              	.LBI253:
 572              		.loc 3 604 20 view .LVU177
 573              		.loc 3 612 3 view .LVU178
 574              	.LBB254:
 575              	.LBI254:
 576              		.loc 4 546 57 view .LVU179
 577              	.LBB255:
 578              		.loc 4 548 3 view .LVU180
 579 0018 2023     		movs	r3, #32
 580              		.syntax unified
 581              	@ 548 "ChibiOS/os/common/ext/CMSIS/include/core_cmFunc.h" 1
 582 001a 83F31188 		MSR basepri, r3
 583              	@ 0 "" 2
 584              	.LVL38:
 585              		.loc 4 548 3 is_stmt 0 view .LVU181
 586              		.thumb
 587              		.syntax unified
 588              	.LBE255:
 589              	.LBE254:
 590              	.LBE253:
 591              		.loc 2 377 34 is_stmt 1 view .LVU182
 592              		.loc 2 378 20 view .LVU183
 593              	.LBE252:
 594              		.loc 1 349 3 view .LVU184
 595              		.loc 1 349 43 is_stmt 0 view .LVU185
 596 001e 203C     		subs	r4, r4, #32
 597              	.LVL39:
 598              		.loc 1 349 6 view .LVU186
 599 0020 2C44     		add	r4, r4, r5
 600              	.LVL40:
 601              		.loc 1 354 3 is_stmt 1 view .LVU187
 602              		.loc 1 358 3 is_stmt 0 view .LVU188
 603 0022 A4F16403 		sub	r3, r4, #100
 604 0026 0699     		ldr	r1, [sp, #24]
 605 0028 0A4A     		ldr	r2, .L20
 606 002a E360     		str	r3, [r4, #12]
 607              	.LBB256:
 608              	.LBB257:
 609              		.loc 1 91 17 view .LVU189
 610 002c 0223     		movs	r3, #2
 611              	.LBE257:
 612              	.LBE256:
 613              		.loc 1 358 3 view .LVU190
 614 002e 44F8201C 		str	r1, [r4, #-32]
 615              	.LBB260:
 616              	.LBB258:
 617              		.loc 1 91 17 view .LVU191
 618 0032 A382     		strh	r3, [r4, #20]	@ movhi
 619              	.LBE258:
 620              	.LBE260:
 621              		.loc 1 358 3 view .LVU192
 622 0034 44F8247C 		str	r7, [r4, #-36]
 623              		.loc 1 354 14 view .LVU193
 624 0038 2561     		str	r5, [r4, #16]
 625              		.loc 1 358 3 is_stmt 1 view .LVU194
 626              		.loc 1 358 3 view .LVU195
 627              		.loc 1 358 3 view .LVU196
ARM GAS  C:\msys64\tmp\ccOIYPIK.s 			page 12


 628              		.loc 1 358 3 view .LVU197
 629 003a 44F8042C 		str	r2, [r4, #-4]
 630              		.loc 1 358 43 view .LVU198
 631              		.loc 1 360 3 view .LVU199
 632              	.LVL41:
 633              	.LBB261:
 634              	.LBI256:
 635              		.loc 1 88 11 view .LVU200
 636              	.LBB259:
 637              		.loc 1 90 3 view .LVU201
 638              		.loc 1 90 17 is_stmt 0 view .LVU202
 639 003e A660     		str	r6, [r4, #8]
 640              		.loc 1 91 3 is_stmt 1 view .LVU203
 641              		.loc 1 92 3 view .LVU204
 642              		.loc 1 111 3 view .LVU205
 643              		.loc 1 122 3 view .LVU206
 644              		.loc 1 122 30 view .LVU207
 645              		.loc 1 123 3 view .LVU208
 646              	.LVL42:
 647              		.loc 1 123 3 is_stmt 0 view .LVU209
 648              	.LBE259:
 649              	.LBE261:
 650              		.loc 1 363 3 is_stmt 1 view .LVU210
 651 0040 0021     		movs	r1, #0
 652 0042 2046     		mov	r0, r4
 653 0044 FFF7FEFF 		bl	chSchWakeupS
 654              	.LVL43:
 655              		.loc 1 364 3 view .LVU211
 656              	.LBB262:
 657              	.LBI262:
 658              		.loc 2 386 20 view .LVU212
 659              	.LBB263:
 660              		.loc 2 388 22 view .LVU213
 661              		.loc 2 389 33 view .LVU214
 662              		.loc 2 395 3 view .LVU215
 663              		.loc 2 395 3 view .LVU216
 664              		.loc 2 395 3 view .LVU217
 665              		.loc 2 399 3 view .LVU218
 666              	.LBB264:
 667              	.LBI264:
 668              		.loc 3 628 20 view .LVU219
 669              		.loc 3 631 3 view .LVU220
 670              	.LBB265:
 671              	.LBI265:
 672              		.loc 4 546 57 view .LVU221
 673              	.LBB266:
 674              		.loc 4 548 3 view .LVU222
 675 0048 0023     		movs	r3, #0
 676              		.syntax unified
 677              	@ 548 "ChibiOS/os/common/ext/CMSIS/include/core_cmFunc.h" 1
 678 004a 83F31188 		MSR basepri, r3
 679              	@ 0 "" 2
 680              	.LVL44:
 681              		.loc 4 548 3 is_stmt 0 view .LVU223
 682              		.thumb
 683              		.syntax unified
 684              	.LBE266:
ARM GAS  C:\msys64\tmp\ccOIYPIK.s 			page 13


 685              	.LBE265:
 686              	.LBE264:
 687              	.LBE263:
 688              	.LBE262:
 689              		.loc 1 366 3 is_stmt 1 view .LVU224
 690              		.loc 1 367 1 is_stmt 0 view .LVU225
 691 004e 2046     		mov	r0, r4
 692 0050 F8BD     		pop	{r3, r4, r5, r6, r7, pc}
 693              	.LVL45:
 694              	.L21:
 695              		.loc 1 367 1 view .LVU226
 696 0052 00BF     		.align	2
 697              	.L20:
 698 0054 00000000 		.word	_port_thread_start
 699              		.cfi_endproc
 700              	.LFE208:
 701              		.size	chThdCreateStatic, .-chThdCreateStatic
 702              		.section	.text.chThdStart,"ax",%progbits
 703              		.align	1
 704              		.p2align 4,,15
 705              		.global	chThdStart
 706              		.syntax unified
 707              		.thumb
 708              		.thumb_func
 709              		.type	chThdStart, %function
 710              	chThdStart:
 711              	.LVL46:
 712              	.LFB209:
 713              		.loc 1 378 36 is_stmt 1 view -0
 714              		.cfi_startproc
 715              		@ args = 0, pretend = 0, frame = 0
 716              		@ frame_needed = 0, uses_anonymous_args = 0
 717              		.loc 1 380 3 view .LVU228
 718              	.LBB267:
 719              	.LBI267:
 720              		.loc 2 374 20 view .LVU229
 721              		.loc 2 376 3 view .LVU230
 722              	.LBB268:
 723              	.LBI268:
 724              		.loc 3 604 20 view .LVU231
 725              		.loc 3 612 3 view .LVU232
 726              	.LBB269:
 727              	.LBI269:
 728              		.loc 4 546 57 view .LVU233
 729              	.LBB270:
 730              		.loc 4 548 3 view .LVU234
 731              	.LBE270:
 732              	.LBE269:
 733              	.LBE268:
 734              	.LBE267:
 735              		.loc 1 378 36 is_stmt 0 view .LVU235
 736 0000 08B5     		push	{r3, lr}
 737              		.cfi_def_cfa_offset 8
 738              		.cfi_offset 3, -8
 739              		.cfi_offset 14, -4
 740              	.LBB274:
 741              	.LBB273:
ARM GAS  C:\msys64\tmp\ccOIYPIK.s 			page 14


 742              	.LBB272:
 743              	.LBB271:
 744              		.loc 4 548 3 view .LVU236
 745 0002 2023     		movs	r3, #32
 746              		.syntax unified
 747              	@ 548 "ChibiOS/os/common/ext/CMSIS/include/core_cmFunc.h" 1
 748 0004 83F31188 		MSR basepri, r3
 749              	@ 0 "" 2
 750              	.LVL47:
 751              		.loc 4 548 3 view .LVU237
 752              		.thumb
 753              		.syntax unified
 754              	.LBE271:
 755              	.LBE272:
 756              	.LBE273:
 757              		.loc 2 377 34 is_stmt 1 view .LVU238
 758              		.loc 2 378 20 view .LVU239
 759              	.LBE274:
 760              		.loc 1 381 3 view .LVU240
 761              	.LBB275:
 762              	.LBI275:
 763              		.file 5 "ChibiOS/os/rt/include/chthreads.h"
 764              		.loc 5 362 25 view .LVU241
 765              	.LBB276:
 766              		.loc 5 364 3 view .LVU242
 767              		.loc 5 364 3 view .LVU243
 768              		.loc 5 364 3 view .LVU244
 769              		.loc 5 366 3 view .LVU245
 770              		.loc 5 366 10 is_stmt 0 view .LVU246
 771 0008 FFF7FEFF 		bl	chSchReadyI
 772              	.LVL48:
 773              		.loc 5 366 10 view .LVU247
 774              	.LBE276:
 775              	.LBE275:
 776              		.loc 1 382 3 is_stmt 1 view .LVU248
 777              	.LBB277:
 778              	.LBI277:
 779              		.loc 2 386 20 view .LVU249
 780              	.LBB278:
 781              		.loc 2 388 22 view .LVU250
 782              		.loc 2 389 33 view .LVU251
 783              		.loc 2 395 3 view .LVU252
 784              		.loc 2 395 3 view .LVU253
 785              		.loc 2 395 3 view .LVU254
 786              		.loc 2 399 3 view .LVU255
 787              	.LBB279:
 788              	.LBI279:
 789              		.loc 3 628 20 view .LVU256
 790              		.loc 3 631 3 view .LVU257
 791              	.LBB280:
 792              	.LBI280:
 793              		.loc 4 546 57 view .LVU258
 794              	.LBB281:
 795              		.loc 4 548 3 view .LVU259
 796 000c 0023     		movs	r3, #0
 797              		.syntax unified
 798              	@ 548 "ChibiOS/os/common/ext/CMSIS/include/core_cmFunc.h" 1
ARM GAS  C:\msys64\tmp\ccOIYPIK.s 			page 15


 799 000e 83F31188 		MSR basepri, r3
 800              	@ 0 "" 2
 801              	.LVL49:
 802              		.loc 4 548 3 is_stmt 0 view .LVU260
 803              		.thumb
 804              		.syntax unified
 805              	.LBE281:
 806              	.LBE280:
 807              	.LBE279:
 808              	.LBE278:
 809              	.LBE277:
 810              		.loc 1 384 3 is_stmt 1 view .LVU261
 811              		.loc 1 385 1 is_stmt 0 view .LVU262
 812 0012 08BD     		pop	{r3, pc}
 813              		.cfi_endproc
 814              	.LFE209:
 815              		.size	chThdStart, .-chThdStart
 816              		.section	.text.chThdExitS,"ax",%progbits
 817              		.align	1
 818              		.p2align 4,,15
 819              		.global	chThdExitS
 820              		.syntax unified
 821              		.thumb
 822              		.thumb_func
 823              		.type	chThdExitS, %function
 824              	chThdExitS:
 825              	.LVL50:
 826              	.LFB211:
 827              		.loc 1 499 28 is_stmt 1 view -0
 828              		.cfi_startproc
 829              		@ args = 0, pretend = 0, frame = 0
 830              		@ frame_needed = 0, uses_anonymous_args = 0
 831              		@ link register save eliminated.
 832              		.loc 1 500 3 view .LVU264
 833              		.loc 1 503 3 view .LVU265
 834              		.loc 1 500 13 is_stmt 0 view .LVU266
 835 0000 034B     		ldr	r3, .L25
 836              		.loc 1 503 18 view .LVU267
 837 0002 1B69     		ldr	r3, [r3, #16]
 838              		.loc 1 499 28 view .LVU268
 839 0004 0246     		mov	r2, r0
 840              		.loc 1 503 18 view .LVU269
 841 0006 9A61     		str	r2, [r3, #24]
 842              		.loc 1 506 3 is_stmt 1 view .LVU270
 843              		.loc 1 506 30 view .LVU271
 844              		.loc 1 531 3 view .LVU272
 845 0008 0F20     		movs	r0, #15
 846              	.LVL51:
 847              		.loc 1 531 3 is_stmt 0 view .LVU273
 848 000a FFF7FEBF 		b	chSchGoSleepS
 849              	.LVL52:
 850              	.L26:
 851              		.loc 1 531 3 view .LVU274
 852 000e 00BF     		.align	2
 853              	.L25:
 854 0010 00000000 		.word	ch
 855              		.cfi_endproc
ARM GAS  C:\msys64\tmp\ccOIYPIK.s 			page 16


 856              	.LFE211:
 857              		.size	chThdExitS, .-chThdExitS
 858              		.section	.text.chThdExit,"ax",%progbits
 859              		.align	1
 860              		.p2align 4,,15
 861              		.global	chThdExit
 862              		.syntax unified
 863              		.thumb
 864              		.thumb_func
 865              		.type	chThdExit, %function
 866              	chThdExit:
 867              	.LVL53:
 868              	.LFB210:
 869              		.loc 1 475 27 is_stmt 1 view -0
 870              		.cfi_startproc
 871              		@ args = 0, pretend = 0, frame = 0
 872              		@ frame_needed = 0, uses_anonymous_args = 0
 873              		@ link register save eliminated.
 874              		.loc 1 477 3 view .LVU276
 875              	.LBB282:
 876              	.LBI282:
 877              		.loc 2 374 20 view .LVU277
 878              		.loc 2 376 3 view .LVU278
 879              	.LBB283:
 880              	.LBI283:
 881              		.loc 3 604 20 view .LVU279
 882              		.loc 3 612 3 view .LVU280
 883              	.LBB284:
 884              	.LBI284:
 885              		.loc 4 546 57 view .LVU281
 886              	.LBB285:
 887              		.loc 4 548 3 view .LVU282
 888 0000 2023     		movs	r3, #32
 889              		.syntax unified
 890              	@ 548 "ChibiOS/os/common/ext/CMSIS/include/core_cmFunc.h" 1
 891 0002 83F31188 		MSR basepri, r3
 892              	@ 0 "" 2
 893              	.LVL54:
 894              		.loc 4 548 3 is_stmt 0 view .LVU283
 895              		.thumb
 896              		.syntax unified
 897              	.LBE285:
 898              	.LBE284:
 899              	.LBE283:
 900              		.loc 2 377 34 is_stmt 1 view .LVU284
 901              		.loc 2 378 20 view .LVU285
 902              	.LBE282:
 903              		.loc 1 478 3 view .LVU286
 904 0006 FFF7FEBF 		b	chThdExitS
 905              	.LVL55:
 906              		.loc 1 478 3 is_stmt 0 view .LVU287
 907              		.cfi_endproc
 908              	.LFE210:
 909              		.size	chThdExit, .-chThdExit
 910 000a 00BF     		.section	.text.chThdSetPriority,"ax",%progbits
 911              		.align	1
 912              		.p2align 4,,15
ARM GAS  C:\msys64\tmp\ccOIYPIK.s 			page 17


 913              		.global	chThdSetPriority
 914              		.syntax unified
 915              		.thumb
 916              		.thumb_func
 917              		.type	chThdSetPriority, %function
 918              	chThdSetPriority:
 919              	.LVL56:
 920              	.LFB212:
 921              		.loc 1 596 43 is_stmt 1 view -0
 922              		.cfi_startproc
 923              		@ args = 0, pretend = 0, frame = 0
 924              		@ frame_needed = 0, uses_anonymous_args = 0
 925              		.loc 1 597 3 view .LVU289
 926              		.loc 1 599 3 view .LVU290
 927              		.loc 1 599 3 view .LVU291
 928              		.loc 1 599 3 view .LVU292
 929              		.loc 1 601 3 view .LVU293
 930              	.LBB286:
 931              	.LBI286:
 932              		.loc 2 374 20 view .LVU294
 933              		.loc 2 376 3 view .LVU295
 934              	.LBB287:
 935              	.LBI287:
 936              		.loc 3 604 20 view .LVU296
 937              		.loc 3 612 3 view .LVU297
 938              	.LBB288:
 939              	.LBI288:
 940              		.loc 4 546 57 view .LVU298
 941              	.LBB289:
 942              		.loc 4 548 3 view .LVU299
 943              	.LBE289:
 944              	.LBE288:
 945              	.LBE287:
 946              	.LBE286:
 947              		.loc 1 596 43 is_stmt 0 view .LVU300
 948 0000 10B5     		push	{r4, lr}
 949              		.cfi_def_cfa_offset 8
 950              		.cfi_offset 4, -8
 951              		.cfi_offset 14, -4
 952              	.LBB293:
 953              	.LBB292:
 954              	.LBB291:
 955              	.LBB290:
 956              		.loc 4 548 3 view .LVU301
 957 0002 2022     		movs	r2, #32
 958              		.syntax unified
 959              	@ 548 "ChibiOS/os/common/ext/CMSIS/include/core_cmFunc.h" 1
 960 0004 82F31188 		MSR basepri, r2
 961              	@ 0 "" 2
 962              	.LVL57:
 963              		.loc 4 548 3 view .LVU302
 964              		.thumb
 965              		.syntax unified
 966              	.LBE290:
 967              	.LBE291:
 968              	.LBE292:
 969              		.loc 2 377 34 is_stmt 1 view .LVU303
ARM GAS  C:\msys64\tmp\ccOIYPIK.s 			page 18


 970              		.loc 2 378 20 view .LVU304
 971              	.LBE293:
 972              		.loc 1 609 3 view .LVU305
 973              		.loc 1 609 13 is_stmt 0 view .LVU306
 974 0008 054A     		ldr	r2, .L30
 975 000a 1269     		ldr	r2, [r2, #16]
 976              		.loc 1 609 11 view .LVU307
 977 000c 9468     		ldr	r4, [r2, #8]
 978              	.LVL58:
 979              		.loc 1 610 3 is_stmt 1 view .LVU308
 980              		.loc 1 610 15 is_stmt 0 view .LVU309
 981 000e 9060     		str	r0, [r2, #8]
 982              		.loc 1 612 3 is_stmt 1 view .LVU310
 983 0010 FFF7FEFF 		bl	chSchRescheduleS
 984              	.LVL59:
 985              		.loc 1 613 3 view .LVU311
 986              	.LBB294:
 987              	.LBI294:
 988              		.loc 2 386 20 view .LVU312
 989              	.LBB295:
 990              		.loc 2 388 22 view .LVU313
 991              		.loc 2 389 33 view .LVU314
 992              		.loc 2 395 3 view .LVU315
 993              		.loc 2 395 3 view .LVU316
 994              		.loc 2 395 3 view .LVU317
 995              		.loc 2 399 3 view .LVU318
 996              	.LBB296:
 997              	.LBI296:
 998              		.loc 3 628 20 view .LVU319
 999              		.loc 3 631 3 view .LVU320
 1000              	.LBB297:
 1001              	.LBI297:
 1002              		.loc 4 546 57 view .LVU321
 1003              	.LBB298:
 1004              		.loc 4 548 3 view .LVU322
 1005 0014 0023     		movs	r3, #0
 1006              		.syntax unified
 1007              	@ 548 "ChibiOS/os/common/ext/CMSIS/include/core_cmFunc.h" 1
 1008 0016 83F31188 		MSR basepri, r3
 1009              	@ 0 "" 2
 1010              	.LVL60:
 1011              		.loc 4 548 3 is_stmt 0 view .LVU323
 1012              		.thumb
 1013              		.syntax unified
 1014              	.LBE298:
 1015              	.LBE297:
 1016              	.LBE296:
 1017              	.LBE295:
 1018              	.LBE294:
 1019              		.loc 1 615 3 is_stmt 1 view .LVU324
 1020              		.loc 1 616 1 is_stmt 0 view .LVU325
 1021 001a 2046     		mov	r0, r4
 1022 001c 10BD     		pop	{r4, pc}
 1023              	.LVL61:
 1024              	.L31:
 1025              		.loc 1 616 1 view .LVU326
 1026 001e 00BF     		.align	2
ARM GAS  C:\msys64\tmp\ccOIYPIK.s 			page 19


 1027              	.L30:
 1028 0020 00000000 		.word	ch
 1029              		.cfi_endproc
 1030              	.LFE212:
 1031              		.size	chThdSetPriority, .-chThdSetPriority
 1032              		.section	.text.chThdTerminate,"ax",%progbits
 1033              		.align	1
 1034              		.p2align 4,,15
 1035              		.global	chThdTerminate
 1036              		.syntax unified
 1037              		.thumb
 1038              		.thumb_func
 1039              		.type	chThdTerminate, %function
 1040              	chThdTerminate:
 1041              	.LVL62:
 1042              	.LFB213:
 1043              		.loc 1 630 35 is_stmt 1 view -0
 1044              		.cfi_startproc
 1045              		@ args = 0, pretend = 0, frame = 0
 1046              		@ frame_needed = 0, uses_anonymous_args = 0
 1047              		@ link register save eliminated.
 1048              		.loc 1 632 3 view .LVU328
 1049              	.LBB299:
 1050              	.LBI299:
 1051              		.loc 2 374 20 view .LVU329
 1052              		.loc 2 376 3 view .LVU330
 1053              	.LBB300:
 1054              	.LBI300:
 1055              		.loc 3 604 20 view .LVU331
 1056              		.loc 3 612 3 view .LVU332
 1057              	.LBB301:
 1058              	.LBI301:
 1059              		.loc 4 546 57 view .LVU333
 1060              	.LBB302:
 1061              		.loc 4 548 3 view .LVU334
 1062 0000 2023     		movs	r3, #32
 1063              		.syntax unified
 1064              	@ 548 "ChibiOS/os/common/ext/CMSIS/include/core_cmFunc.h" 1
 1065 0002 83F31188 		MSR basepri, r3
 1066              	@ 0 "" 2
 1067              	.LVL63:
 1068              		.loc 4 548 3 is_stmt 0 view .LVU335
 1069              		.thumb
 1070              		.syntax unified
 1071              	.LBE302:
 1072              	.LBE301:
 1073              	.LBE300:
 1074              		.loc 2 377 34 is_stmt 1 view .LVU336
 1075              		.loc 2 378 20 view .LVU337
 1076              	.LBE299:
 1077              		.loc 1 633 3 view .LVU338
 1078              		.loc 1 633 13 is_stmt 0 view .LVU339
 1079 0006 437D     		ldrb	r3, [r0, #21]	@ zero_extendqisi2
 1080 0008 43F00403 		orr	r3, r3, #4
 1081              	.LBB303:
 1082              	.LBB304:
 1083              	.LBB305:
ARM GAS  C:\msys64\tmp\ccOIYPIK.s 			page 20


 1084              	.LBB306:
 1085              	.LBB307:
 1086              		.loc 4 548 3 view .LVU340
 1087 000c 0022     		movs	r2, #0
 1088              	.LBE307:
 1089              	.LBE306:
 1090              	.LBE305:
 1091              	.LBE304:
 1092              	.LBE303:
 1093              		.loc 1 633 13 view .LVU341
 1094 000e 4375     		strb	r3, [r0, #21]
 1095              		.loc 1 634 3 is_stmt 1 view .LVU342
 1096              	.LBB312:
 1097              	.LBI303:
 1098              		.loc 2 386 20 view .LVU343
 1099              	.LBB311:
 1100              		.loc 2 388 22 view .LVU344
 1101              		.loc 2 389 33 view .LVU345
 1102              		.loc 2 395 3 view .LVU346
 1103              		.loc 2 395 3 view .LVU347
 1104              		.loc 2 395 3 view .LVU348
 1105              		.loc 2 399 3 view .LVU349
 1106              	.LBB310:
 1107              	.LBI305:
 1108              		.loc 3 628 20 view .LVU350
 1109              		.loc 3 631 3 view .LVU351
 1110              	.LVL64:
 1111              	.LBB309:
 1112              	.LBI306:
 1113              		.loc 4 546 57 view .LVU352
 1114              	.LBB308:
 1115              		.loc 4 548 3 view .LVU353
 1116              		.syntax unified
 1117              	@ 548 "ChibiOS/os/common/ext/CMSIS/include/core_cmFunc.h" 1
 1118 0010 82F31188 		MSR basepri, r2
 1119              	@ 0 "" 2
 1120              	.LVL65:
 1121              		.loc 4 548 3 is_stmt 0 view .LVU354
 1122              		.thumb
 1123              		.syntax unified
 1124              	.LBE308:
 1125              	.LBE309:
 1126              	.LBE310:
 1127              	.LBE311:
 1128              	.LBE312:
 1129              		.loc 1 635 1 view .LVU355
 1130 0014 7047     		bx	lr
 1131              		.cfi_endproc
 1132              	.LFE213:
 1133              		.size	chThdTerminate, .-chThdTerminate
 1134 0016 00BF     		.section	.text.chThdSleep,"ax",%progbits
 1135              		.align	1
 1136              		.p2align 4,,15
 1137              		.global	chThdSleep
 1138              		.syntax unified
 1139              		.thumb
 1140              		.thumb_func
ARM GAS  C:\msys64\tmp\ccOIYPIK.s 			page 21


 1141              		.type	chThdSleep, %function
 1142              	chThdSleep:
 1143              	.LVL66:
 1144              	.LFB214:
 1145              		.loc 1 649 33 is_stmt 1 view -0
 1146              		.cfi_startproc
 1147              		@ args = 0, pretend = 0, frame = 0
 1148              		@ frame_needed = 0, uses_anonymous_args = 0
 1149              		.loc 1 651 3 view .LVU357
 1150              	.LBB313:
 1151              	.LBI313:
 1152              		.loc 2 374 20 view .LVU358
 1153              		.loc 2 376 3 view .LVU359
 1154              	.LBB314:
 1155              	.LBI314:
 1156              		.loc 3 604 20 view .LVU360
 1157              		.loc 3 612 3 view .LVU361
 1158              	.LBB315:
 1159              	.LBI315:
 1160              		.loc 4 546 57 view .LVU362
 1161              	.LBB316:
 1162              		.loc 4 548 3 view .LVU363
 1163              	.LBE316:
 1164              	.LBE315:
 1165              	.LBE314:
 1166              	.LBE313:
 1167              		.loc 1 649 33 is_stmt 0 view .LVU364
 1168 0000 08B5     		push	{r3, lr}
 1169              		.cfi_def_cfa_offset 8
 1170              		.cfi_offset 3, -8
 1171              		.cfi_offset 14, -4
 1172              		.loc 1 649 33 view .LVU365
 1173 0002 0146     		mov	r1, r0
 1174              	.LBB320:
 1175              	.LBB319:
 1176              	.LBB318:
 1177              	.LBB317:
 1178              		.loc 4 548 3 view .LVU366
 1179 0004 2023     		movs	r3, #32
 1180              		.syntax unified
 1181              	@ 548 "ChibiOS/os/common/ext/CMSIS/include/core_cmFunc.h" 1
 1182 0006 83F31188 		MSR basepri, r3
 1183              	@ 0 "" 2
 1184              	.LVL67:
 1185              		.loc 4 548 3 view .LVU367
 1186              		.thumb
 1187              		.syntax unified
 1188              	.LBE317:
 1189              	.LBE318:
 1190              	.LBE319:
 1191              		.loc 2 377 34 is_stmt 1 view .LVU368
 1192              		.loc 2 378 20 view .LVU369
 1193              	.LBE320:
 1194              		.loc 1 652 3 view .LVU370
 1195              	.LBB321:
 1196              	.LBI321:
 1197              		.loc 5 381 20 view .LVU371
ARM GAS  C:\msys64\tmp\ccOIYPIK.s 			page 22


 1198              	.LBB322:
 1199              		.loc 5 383 3 view .LVU372
 1200              		.loc 5 383 3 view .LVU373
 1201              		.loc 5 383 3 view .LVU374
 1202              		.loc 5 385 3 view .LVU375
 1203              		.loc 5 385 10 is_stmt 0 view .LVU376
 1204 000a 0820     		movs	r0, #8
 1205              	.LVL68:
 1206              		.loc 5 385 10 view .LVU377
 1207 000c FFF7FEFF 		bl	chSchGoSleepTimeoutS
 1208              	.LVL69:
 1209              		.loc 5 385 10 view .LVU378
 1210              	.LBE322:
 1211              	.LBE321:
 1212              		.loc 1 653 3 is_stmt 1 view .LVU379
 1213              	.LBB323:
 1214              	.LBI323:
 1215              		.loc 2 386 20 view .LVU380
 1216              	.LBB324:
 1217              		.loc 2 388 22 view .LVU381
 1218              		.loc 2 389 33 view .LVU382
 1219              		.loc 2 395 3 view .LVU383
 1220              		.loc 2 395 3 view .LVU384
 1221              		.loc 2 395 3 view .LVU385
 1222              		.loc 2 399 3 view .LVU386
 1223              	.LBB325:
 1224              	.LBI325:
 1225              		.loc 3 628 20 view .LVU387
 1226              		.loc 3 631 3 view .LVU388
 1227              	.LBB326:
 1228              	.LBI326:
 1229              		.loc 4 546 57 view .LVU389
 1230              	.LBB327:
 1231              		.loc 4 548 3 view .LVU390
 1232 0010 0023     		movs	r3, #0
 1233              		.syntax unified
 1234              	@ 548 "ChibiOS/os/common/ext/CMSIS/include/core_cmFunc.h" 1
 1235 0012 83F31188 		MSR basepri, r3
 1236              	@ 0 "" 2
 1237              	.LVL70:
 1238              		.loc 4 548 3 is_stmt 0 view .LVU391
 1239              		.thumb
 1240              		.syntax unified
 1241              	.LBE327:
 1242              	.LBE326:
 1243              	.LBE325:
 1244              	.LBE324:
 1245              	.LBE323:
 1246              		.loc 1 654 1 view .LVU392
 1247 0016 08BD     		pop	{r3, pc}
 1248              		.cfi_endproc
 1249              	.LFE214:
 1250              		.size	chThdSleep, .-chThdSleep
 1251              		.section	.text.chThdSleepUntil,"ax",%progbits
 1252              		.align	1
 1253              		.p2align 4,,15
 1254              		.global	chThdSleepUntil
ARM GAS  C:\msys64\tmp\ccOIYPIK.s 			page 23


 1255              		.syntax unified
 1256              		.thumb
 1257              		.thumb_func
 1258              		.type	chThdSleepUntil, %function
 1259              	chThdSleepUntil:
 1260              	.LVL71:
 1261              	.LFB215:
 1262              		.loc 1 669 38 is_stmt 1 view -0
 1263              		.cfi_startproc
 1264              		@ args = 0, pretend = 0, frame = 0
 1265              		@ frame_needed = 0, uses_anonymous_args = 0
 1266              		.loc 1 671 3 view .LVU394
 1267              	.LBB328:
 1268              	.LBI328:
 1269              		.loc 2 374 20 view .LVU395
 1270              		.loc 2 376 3 view .LVU396
 1271              	.LBB329:
 1272              	.LBI329:
 1273              		.loc 3 604 20 view .LVU397
 1274              		.loc 3 612 3 view .LVU398
 1275              	.LBB330:
 1276              	.LBI330:
 1277              		.loc 4 546 57 view .LVU399
 1278              	.LBB331:
 1279              		.loc 4 548 3 view .LVU400
 1280              	.LBE331:
 1281              	.LBE330:
 1282              	.LBE329:
 1283              	.LBE328:
 1284              		.loc 1 669 38 is_stmt 0 view .LVU401
 1285 0000 08B5     		push	{r3, lr}
 1286              		.cfi_def_cfa_offset 8
 1287              		.cfi_offset 3, -8
 1288              		.cfi_offset 14, -4
 1289              	.LBB335:
 1290              	.LBB334:
 1291              	.LBB333:
 1292              	.LBB332:
 1293              		.loc 4 548 3 view .LVU402
 1294 0002 2023     		movs	r3, #32
 1295              		.syntax unified
 1296              	@ 548 "ChibiOS/os/common/ext/CMSIS/include/core_cmFunc.h" 1
 1297 0004 83F31188 		MSR basepri, r3
 1298              	@ 0 "" 2
 1299              	.LVL72:
 1300              		.loc 4 548 3 view .LVU403
 1301              		.thumb
 1302              		.syntax unified
 1303              	.LBE332:
 1304              	.LBE333:
 1305              	.LBE334:
 1306              		.loc 2 377 34 is_stmt 1 view .LVU404
 1307              		.loc 2 378 20 view .LVU405
 1308              	.LBE335:
 1309              		.loc 1 672 3 view .LVU406
 1310              	.LBB336:
 1311              	.LBI336:
ARM GAS  C:\msys64\tmp\ccOIYPIK.s 			page 24


 1312              		.file 6 "ChibiOS/os/rt/include/chvt.h"
 1313              		.loc 6 228 25 view .LVU407
 1314              		.loc 6 233 3 view .LVU408
 1315              	.LBB337:
 1316              	.LBI337:
 1317              		.file 7 "ChibiOS/os/common/ports/ARMCMx/chcore_timer.h"
 1318              		.loc 7 105 25 view .LVU409
 1319              		.loc 7 107 3 view .LVU410
 1320              	.LBB338:
 1321              	.LBI338:
 1322              		.file 8 "ChibiOS/os/hal/ports/STM32/LLD/TIMv1/hal_st_lld.h"
 1323              		.loc 8 139 25 view .LVU411
 1324              	.LBB339:
 1325              		.loc 8 141 3 view .LVU412
 1326              		.loc 8 141 10 is_stmt 0 view .LVU413
 1327 0008 4FF08043 		mov	r3, #1073741824
 1328 000c 596A     		ldr	r1, [r3, #36]
 1329              	.LVL73:
 1330              		.loc 8 141 10 view .LVU414
 1331              	.LBE339:
 1332              	.LBE338:
 1333              	.LBE337:
 1334              	.LBE336:
 1335              		.loc 1 673 3 is_stmt 1 view .LVU415
 1336              		.loc 1 673 6 is_stmt 0 view .LVU416
 1337 000e 411A     		subs	r1, r0, r1
 1338              	.LVL74:
 1339              		.loc 1 673 6 view .LVU417
 1340 0010 03D1     		bne	.L41
 1341              		.loc 1 676 3 is_stmt 1 view .LVU418
 1342              	.LBB340:
 1343              	.LBI340:
 1344              		.loc 2 386 20 view .LVU419
 1345              	.LBB341:
 1346              		.loc 2 388 22 view .LVU420
 1347              		.loc 2 389 33 view .LVU421
 1348              		.loc 2 395 3 view .LVU422
 1349              		.loc 2 395 3 view .LVU423
 1350              		.loc 2 395 3 view .LVU424
 1351              		.loc 2 399 3 view .LVU425
 1352              	.LBB342:
 1353              	.LBI342:
 1354              		.loc 3 628 20 view .LVU426
 1355              		.loc 3 631 3 view .LVU427
 1356              	.LVL75:
 1357              	.LBB343:
 1358              	.LBI343:
 1359              		.loc 4 546 57 view .LVU428
 1360              	.LBB344:
 1361              		.loc 4 548 3 view .LVU429
 1362 0012 0023     		movs	r3, #0
 1363              		.syntax unified
 1364              	@ 548 "ChibiOS/os/common/ext/CMSIS/include/core_cmFunc.h" 1
 1365 0014 83F31188 		MSR basepri, r3
 1366              	@ 0 "" 2
 1367              	.LVL76:
 1368              		.loc 4 548 3 is_stmt 0 view .LVU430
ARM GAS  C:\msys64\tmp\ccOIYPIK.s 			page 25


 1369              		.thumb
 1370              		.syntax unified
 1371              	.LBE344:
 1372              	.LBE343:
 1373              	.LBE342:
 1374              	.LBE341:
 1375              	.LBE340:
 1376              		.loc 1 677 1 view .LVU431
 1377 0018 08BD     		pop	{r3, pc}
 1378              	.L41:
 1379              		.loc 1 674 5 is_stmt 1 view .LVU432
 1380              	.LVL77:
 1381              	.LBB349:
 1382              	.LBI349:
 1383              		.loc 5 381 20 view .LVU433
 1384              	.LBB350:
 1385              		.loc 5 383 3 view .LVU434
 1386              		.loc 5 383 3 view .LVU435
 1387              		.loc 5 383 3 view .LVU436
 1388              		.loc 5 385 3 view .LVU437
 1389              		.loc 5 385 10 is_stmt 0 view .LVU438
 1390 001a 0820     		movs	r0, #8
 1391 001c FFF7FEFF 		bl	chSchGoSleepTimeoutS
 1392              	.LVL78:
 1393              		.loc 5 385 10 view .LVU439
 1394              	.LBE350:
 1395              	.LBE349:
 1396              		.loc 1 676 3 is_stmt 1 view .LVU440
 1397              	.LBB351:
 1398              		.loc 2 386 20 view .LVU441
 1399              	.LBB348:
 1400              		.loc 2 388 22 view .LVU442
 1401              		.loc 2 389 33 view .LVU443
 1402              		.loc 2 395 3 view .LVU444
 1403              		.loc 2 395 3 view .LVU445
 1404              		.loc 2 395 3 view .LVU446
 1405              		.loc 2 399 3 view .LVU447
 1406              	.LBB347:
 1407              		.loc 3 628 20 view .LVU448
 1408              		.loc 3 631 3 view .LVU449
 1409              	.LBB346:
 1410              		.loc 4 546 57 view .LVU450
 1411              	.LBB345:
 1412              		.loc 4 548 3 view .LVU451
 1413 0020 0023     		movs	r3, #0
 1414              		.syntax unified
 1415              	@ 548 "ChibiOS/os/common/ext/CMSIS/include/core_cmFunc.h" 1
 1416 0022 83F31188 		MSR basepri, r3
 1417              	@ 0 "" 2
 1418              	.LVL79:
 1419              		.loc 4 548 3 is_stmt 0 view .LVU452
 1420              		.thumb
 1421              		.syntax unified
 1422              	.LBE345:
 1423              	.LBE346:
 1424              	.LBE347:
 1425              	.LBE348:
ARM GAS  C:\msys64\tmp\ccOIYPIK.s 			page 26


 1426              	.LBE351:
 1427              		.loc 1 677 1 view .LVU453
 1428 0026 08BD     		pop	{r3, pc}
 1429              		.cfi_endproc
 1430              	.LFE215:
 1431              		.size	chThdSleepUntil, .-chThdSleepUntil
 1432              		.section	.text.chThdSleepUntilWindowed,"ax",%progbits
 1433              		.align	1
 1434              		.p2align 4,,15
 1435              		.global	chThdSleepUntilWindowed
 1436              		.syntax unified
 1437              		.thumb
 1438              		.thumb_func
 1439              		.type	chThdSleepUntilWindowed, %function
 1440              	chThdSleepUntilWindowed:
 1441              	.LVL80:
 1442              	.LFB216:
 1443              		.loc 1 693 67 is_stmt 1 view -0
 1444              		.cfi_startproc
 1445              		@ args = 0, pretend = 0, frame = 0
 1446              		@ frame_needed = 0, uses_anonymous_args = 0
 1447              		.loc 1 694 3 view .LVU455
 1448              		.loc 1 696 3 view .LVU456
 1449              	.LBB352:
 1450              	.LBI352:
 1451              		.loc 2 374 20 view .LVU457
 1452              		.loc 2 376 3 view .LVU458
 1453              	.LBB353:
 1454              	.LBI353:
 1455              		.loc 3 604 20 view .LVU459
 1456              		.loc 3 612 3 view .LVU460
 1457              	.LBB354:
 1458              	.LBI354:
 1459              		.loc 4 546 57 view .LVU461
 1460              	.LBB355:
 1461              		.loc 4 548 3 view .LVU462
 1462              	.LBE355:
 1463              	.LBE354:
 1464              	.LBE353:
 1465              	.LBE352:
 1466              		.loc 1 693 67 is_stmt 0 view .LVU463
 1467 0000 10B5     		push	{r4, lr}
 1468              		.cfi_def_cfa_offset 8
 1469              		.cfi_offset 4, -8
 1470              		.cfi_offset 14, -4
 1471              	.LBB362:
 1472              	.LBB360:
 1473              	.LBB358:
 1474              	.LBB356:
 1475              		.loc 4 548 3 view .LVU464
 1476 0002 2023     		movs	r3, #32
 1477              	.LBE356:
 1478              	.LBE358:
 1479              	.LBE360:
 1480              	.LBE362:
 1481              		.loc 1 693 67 view .LVU465
 1482 0004 0C46     		mov	r4, r1
ARM GAS  C:\msys64\tmp\ccOIYPIK.s 			page 27


 1483              	.LBB363:
 1484              	.LBB361:
 1485              	.LBB359:
 1486              	.LBB357:
 1487              		.loc 4 548 3 view .LVU466
 1488              		.syntax unified
 1489              	@ 548 "ChibiOS/os/common/ext/CMSIS/include/core_cmFunc.h" 1
 1490 0006 83F31188 		MSR basepri, r3
 1491              	@ 0 "" 2
 1492              	.LVL81:
 1493              		.loc 4 548 3 view .LVU467
 1494              		.thumb
 1495              		.syntax unified
 1496              	.LBE357:
 1497              	.LBE359:
 1498              	.LBE361:
 1499              		.loc 2 377 34 is_stmt 1 view .LVU468
 1500              		.loc 2 378 20 view .LVU469
 1501              	.LBE363:
 1502              		.loc 1 697 3 view .LVU470
 1503              	.LBB364:
 1504              	.LBI364:
 1505              		.loc 6 228 25 view .LVU471
 1506              		.loc 6 233 3 view .LVU472
 1507              	.LBB365:
 1508              	.LBI365:
 1509              		.loc 7 105 25 view .LVU473
 1510              		.loc 7 107 3 view .LVU474
 1511              	.LBB366:
 1512              	.LBI366:
 1513              		.loc 8 139 25 view .LVU475
 1514              	.LBB367:
 1515              		.loc 8 141 3 view .LVU476
 1516              		.loc 8 141 10 is_stmt 0 view .LVU477
 1517 000a 4FF08042 		mov	r2, #1073741824
 1518              	.LBE367:
 1519              	.LBE366:
 1520              	.LBE365:
 1521              	.LBE364:
 1522              	.LBB371:
 1523              	.LBB372:
 1524              		.loc 6 288 61 view .LVU478
 1525 000e 0B1A     		subs	r3, r1, r0
 1526              	.LBE372:
 1527              	.LBE371:
 1528              	.LBB374:
 1529              	.LBB370:
 1530              	.LBB369:
 1531              	.LBB368:
 1532              		.loc 8 141 10 view .LVU479
 1533 0010 516A     		ldr	r1, [r2, #36]
 1534              	.LVL82:
 1535              		.loc 8 141 10 view .LVU480
 1536              	.LBE368:
 1537              	.LBE369:
 1538              	.LBE370:
 1539              	.LBE374:
ARM GAS  C:\msys64\tmp\ccOIYPIK.s 			page 28


 1540              		.loc 1 698 3 is_stmt 1 view .LVU481
 1541              	.LBB375:
 1542              	.LBI371:
 1543              		.loc 6 284 20 view .LVU482
 1544              	.LBB373:
 1545              		.loc 6 288 3 view .LVU483
 1546              		.loc 6 288 34 is_stmt 0 view .LVU484
 1547 0012 081A     		subs	r0, r1, r0
 1548              	.LVL83:
 1549              		.loc 6 288 34 view .LVU485
 1550              	.LBE373:
 1551              	.LBE375:
 1552              		.loc 1 698 6 discriminator 1 view .LVU486
 1553 0014 9842     		cmp	r0, r3
 1554 0016 04D3     		bcc	.L45
 1555              		.loc 1 701 3 is_stmt 1 view .LVU487
 1556              	.LBB376:
 1557              	.LBI376:
 1558              		.loc 2 386 20 view .LVU488
 1559              	.LBB377:
 1560              		.loc 2 388 22 view .LVU489
 1561              		.loc 2 389 33 view .LVU490
 1562              		.loc 2 395 3 view .LVU491
 1563              		.loc 2 395 3 view .LVU492
 1564              		.loc 2 395 3 view .LVU493
 1565              		.loc 2 399 3 view .LVU494
 1566              	.LBB378:
 1567              	.LBI378:
 1568              		.loc 3 628 20 view .LVU495
 1569              		.loc 3 631 3 view .LVU496
 1570              	.LVL84:
 1571              	.LBB379:
 1572              	.LBI379:
 1573              		.loc 4 546 57 view .LVU497
 1574              	.LBB380:
 1575              		.loc 4 548 3 view .LVU498
 1576 0018 0023     		movs	r3, #0
 1577              		.syntax unified
 1578              	@ 548 "ChibiOS/os/common/ext/CMSIS/include/core_cmFunc.h" 1
 1579 001a 83F31188 		MSR basepri, r3
 1580              	@ 0 "" 2
 1581              	.LVL85:
 1582              		.loc 4 548 3 is_stmt 0 view .LVU499
 1583              		.thumb
 1584              		.syntax unified
 1585              	.LBE380:
 1586              	.LBE379:
 1587              	.LBE378:
 1588              	.LBE377:
 1589              	.LBE376:
 1590              		.loc 1 703 3 is_stmt 1 view .LVU500
 1591              		.loc 1 704 1 is_stmt 0 view .LVU501
 1592 001e 2046     		mov	r0, r4
 1593 0020 10BD     		pop	{r4, pc}
 1594              	.LVL86:
 1595              	.L45:
 1596              		.loc 1 699 5 is_stmt 1 view .LVU502
ARM GAS  C:\msys64\tmp\ccOIYPIK.s 			page 29


 1597              	.LBB385:
 1598              	.LBI385:
 1599              		.loc 5 381 20 view .LVU503
 1600              	.LBB386:
 1601              		.loc 5 383 3 view .LVU504
 1602              		.loc 5 383 3 view .LVU505
 1603              		.loc 5 383 3 view .LVU506
 1604              		.loc 5 385 3 view .LVU507
 1605              		.loc 5 385 10 is_stmt 0 view .LVU508
 1606 0022 611A     		subs	r1, r4, r1
 1607              	.LVL87:
 1608              		.loc 5 385 10 view .LVU509
 1609 0024 0820     		movs	r0, #8
 1610 0026 FFF7FEFF 		bl	chSchGoSleepTimeoutS
 1611              	.LVL88:
 1612              		.loc 5 385 10 view .LVU510
 1613              	.LBE386:
 1614              	.LBE385:
 1615              		.loc 1 701 3 is_stmt 1 view .LVU511
 1616              	.LBB387:
 1617              		.loc 2 386 20 view .LVU512
 1618              	.LBB384:
 1619              		.loc 2 388 22 view .LVU513
 1620              		.loc 2 389 33 view .LVU514
 1621              		.loc 2 395 3 view .LVU515
 1622              		.loc 2 395 3 view .LVU516
 1623              		.loc 2 395 3 view .LVU517
 1624              		.loc 2 399 3 view .LVU518
 1625              	.LBB383:
 1626              		.loc 3 628 20 view .LVU519
 1627              		.loc 3 631 3 view .LVU520
 1628              	.LBB382:
 1629              		.loc 4 546 57 view .LVU521
 1630              	.LBB381:
 1631              		.loc 4 548 3 view .LVU522
 1632 002a 0023     		movs	r3, #0
 1633              		.syntax unified
 1634              	@ 548 "ChibiOS/os/common/ext/CMSIS/include/core_cmFunc.h" 1
 1635 002c 83F31188 		MSR basepri, r3
 1636              	@ 0 "" 2
 1637              	.LVL89:
 1638              		.loc 4 548 3 is_stmt 0 view .LVU523
 1639              		.thumb
 1640              		.syntax unified
 1641              	.LBE381:
 1642              	.LBE382:
 1643              	.LBE383:
 1644              	.LBE384:
 1645              	.LBE387:
 1646              		.loc 1 703 3 is_stmt 1 view .LVU524
 1647              		.loc 1 704 1 is_stmt 0 view .LVU525
 1648 0030 2046     		mov	r0, r4
 1649 0032 10BD     		pop	{r4, pc}
 1650              		.loc 1 704 1 view .LVU526
 1651              		.cfi_endproc
 1652              	.LFE216:
 1653              		.size	chThdSleepUntilWindowed, .-chThdSleepUntilWindowed
ARM GAS  C:\msys64\tmp\ccOIYPIK.s 			page 30


 1654              		.section	.text.chThdYield,"ax",%progbits
 1655              		.align	1
 1656              		.p2align 4,,15
 1657              		.global	chThdYield
 1658              		.syntax unified
 1659              		.thumb
 1660              		.thumb_func
 1661              		.type	chThdYield, %function
 1662              	chThdYield:
 1663              	.LFB217:
 1664              		.loc 1 713 23 is_stmt 1 view -0
 1665              		.cfi_startproc
 1666              		@ args = 0, pretend = 0, frame = 0
 1667              		@ frame_needed = 0, uses_anonymous_args = 0
 1668              		.loc 1 715 3 view .LVU528
 1669              	.LBB401:
 1670              	.LBI401:
 1671              		.loc 2 374 20 view .LVU529
 1672              		.loc 2 376 3 view .LVU530
 1673              	.LBB402:
 1674              	.LBI402:
 1675              		.loc 3 604 20 view .LVU531
 1676              		.loc 3 612 3 view .LVU532
 1677              	.LVL90:
 1678              	.LBB403:
 1679              	.LBI403:
 1680              		.loc 4 546 57 view .LVU533
 1681              	.LBB404:
 1682              		.loc 4 548 3 view .LVU534
 1683              	.LBE404:
 1684              	.LBE403:
 1685              	.LBE402:
 1686              	.LBE401:
 1687              		.loc 1 713 23 is_stmt 0 view .LVU535
 1688 0000 08B5     		push	{r3, lr}
 1689              		.cfi_def_cfa_offset 8
 1690              		.cfi_offset 3, -8
 1691              		.cfi_offset 14, -4
 1692              	.LBB408:
 1693              	.LBB407:
 1694              	.LBB406:
 1695              	.LBB405:
 1696              		.loc 4 548 3 view .LVU536
 1697 0002 2023     		movs	r3, #32
 1698              		.syntax unified
 1699              	@ 548 "ChibiOS/os/common/ext/CMSIS/include/core_cmFunc.h" 1
 1700 0004 83F31188 		MSR basepri, r3
 1701              	@ 0 "" 2
 1702              	.LVL91:
 1703              		.loc 4 548 3 view .LVU537
 1704              		.thumb
 1705              		.syntax unified
 1706              	.LBE405:
 1707              	.LBE406:
 1708              	.LBE407:
 1709              		.loc 2 377 34 is_stmt 1 view .LVU538
 1710              		.loc 2 378 20 view .LVU539
ARM GAS  C:\msys64\tmp\ccOIYPIK.s 			page 31


 1711              	.LBE408:
 1712              		.loc 1 716 3 view .LVU540
 1713              	.LBB409:
 1714              	.LBI409:
 1715              		.file 9 "ChibiOS/os/rt/include/chschd.h"
 1716              		.loc 9 687 20 view .LVU541
 1717              	.LBB410:
 1718              		.loc 9 689 21 view .LVU542
 1719              		.loc 9 691 3 view .LVU543
 1720              	.LBB411:
 1721              	.LBI411:
 1722              		.loc 9 673 20 view .LVU544
 1723              	.LBB412:
 1724              		.loc 9 675 21 view .LVU545
 1725              		.loc 9 677 3 view .LVU546
 1726              		.loc 9 677 10 is_stmt 0 view .LVU547
 1727 0008 084B     		ldr	r3, .L50
 1728 000a 1A68     		ldr	r2, [r3]
 1729              		.loc 9 677 45 view .LVU548
 1730 000c 1B69     		ldr	r3, [r3, #16]
 1731              	.LBE412:
 1732              	.LBE411:
 1733              		.loc 9 691 6 discriminator 1 view .LVU549
 1734 000e 9268     		ldr	r2, [r2, #8]
 1735 0010 9B68     		ldr	r3, [r3, #8]
 1736 0012 9A42     		cmp	r2, r3
 1737 0014 03D2     		bcs	.L49
 1738              	.LBE410:
 1739              	.LBE409:
 1740              		.loc 1 717 3 is_stmt 1 view .LVU550
 1741              	.LBB414:
 1742              	.LBI414:
 1743              		.loc 2 386 20 view .LVU551
 1744              	.LBB415:
 1745              		.loc 2 388 22 view .LVU552
 1746              		.loc 2 389 33 view .LVU553
 1747              		.loc 2 395 3 view .LVU554
 1748              		.loc 2 395 3 view .LVU555
 1749              		.loc 2 395 3 view .LVU556
 1750              		.loc 2 399 3 view .LVU557
 1751              	.LBB416:
 1752              	.LBI416:
 1753              		.loc 3 628 20 view .LVU558
 1754              		.loc 3 631 3 view .LVU559
 1755              	.LVL92:
 1756              	.LBB417:
 1757              	.LBI417:
 1758              		.loc 4 546 57 view .LVU560
 1759              	.LBB418:
 1760              		.loc 4 548 3 view .LVU561
 1761 0016 0023     		movs	r3, #0
 1762              		.syntax unified
 1763              	@ 548 "ChibiOS/os/common/ext/CMSIS/include/core_cmFunc.h" 1
 1764 0018 83F31188 		MSR basepri, r3
 1765              	@ 0 "" 2
 1766              	.LVL93:
 1767              		.loc 4 548 3 is_stmt 0 view .LVU562
ARM GAS  C:\msys64\tmp\ccOIYPIK.s 			page 32


 1768              		.thumb
 1769              		.syntax unified
 1770              	.LBE418:
 1771              	.LBE417:
 1772              	.LBE416:
 1773              	.LBE415:
 1774              	.LBE414:
 1775              		.loc 1 718 1 view .LVU563
 1776 001c 08BD     		pop	{r3, pc}
 1777              	.L49:
 1778              	.LBB423:
 1779              	.LBB413:
 1780              		.loc 9 692 5 is_stmt 1 view .LVU564
 1781 001e FFF7FEFF 		bl	chSchDoRescheduleBehind
 1782              	.LVL94:
 1783              	.LBE413:
 1784              	.LBE423:
 1785              		.loc 1 717 3 view .LVU565
 1786              	.LBB424:
 1787              		.loc 2 386 20 view .LVU566
 1788              	.LBB422:
 1789              		.loc 2 388 22 view .LVU567
 1790              		.loc 2 389 33 view .LVU568
 1791              		.loc 2 395 3 view .LVU569
 1792              		.loc 2 395 3 view .LVU570
 1793              		.loc 2 395 3 view .LVU571
 1794              		.loc 2 399 3 view .LVU572
 1795              	.LBB421:
 1796              		.loc 3 628 20 view .LVU573
 1797              		.loc 3 631 3 view .LVU574
 1798              	.LBB420:
 1799              		.loc 4 546 57 view .LVU575
 1800              	.LBB419:
 1801              		.loc 4 548 3 view .LVU576
 1802 0022 0023     		movs	r3, #0
 1803              		.syntax unified
 1804              	@ 548 "ChibiOS/os/common/ext/CMSIS/include/core_cmFunc.h" 1
 1805 0024 83F31188 		MSR basepri, r3
 1806              	@ 0 "" 2
 1807              	.LVL95:
 1808              		.loc 4 548 3 is_stmt 0 view .LVU577
 1809              		.thumb
 1810              		.syntax unified
 1811              	.LBE419:
 1812              	.LBE420:
 1813              	.LBE421:
 1814              	.LBE422:
 1815              	.LBE424:
 1816              		.loc 1 718 1 view .LVU578
 1817 0028 08BD     		pop	{r3, pc}
 1818              	.L51:
 1819 002a 00BF     		.align	2
 1820              	.L50:
 1821 002c 00000000 		.word	ch
 1822              		.cfi_endproc
 1823              	.LFE217:
 1824              		.size	chThdYield, .-chThdYield
ARM GAS  C:\msys64\tmp\ccOIYPIK.s 			page 33


 1825              		.section	.text.chThdSuspendS,"ax",%progbits
 1826              		.align	1
 1827              		.p2align 4,,15
 1828              		.global	chThdSuspendS
 1829              		.syntax unified
 1830              		.thumb
 1831              		.thumb_func
 1832              		.type	chThdSuspendS, %function
 1833              	chThdSuspendS:
 1834              	.LVL96:
 1835              	.LFB218:
 1836              		.loc 1 730 46 is_stmt 1 view -0
 1837              		.cfi_startproc
 1838              		@ args = 0, pretend = 0, frame = 0
 1839              		@ frame_needed = 0, uses_anonymous_args = 0
 1840              		.loc 1 731 3 view .LVU580
 1841              	.LBB425:
 1842              	.LBI425:
 1843              		.loc 5 275 25 view .LVU581
 1844              	.LBB426:
 1845              		.loc 5 277 3 view .LVU582
 1846              	.LBE426:
 1847              	.LBE425:
 1848              		.loc 1 730 46 is_stmt 0 view .LVU583
 1849 0000 10B5     		push	{r4, lr}
 1850              		.cfi_def_cfa_offset 8
 1851              		.cfi_offset 4, -8
 1852              		.cfi_offset 14, -4
 1853              	.LBB429:
 1854              	.LBB427:
 1855              		.loc 5 277 18 view .LVU584
 1856 0002 054C     		ldr	r4, .L54
 1857              	.LBE427:
 1858              	.LBE429:
 1859              		.loc 1 730 46 view .LVU585
 1860 0004 0346     		mov	r3, r0
 1861              	.LBB430:
 1862              	.LBB428:
 1863              		.loc 5 277 18 view .LVU586
 1864 0006 2269     		ldr	r2, [r4, #16]
 1865              	.LVL97:
 1866              		.loc 5 277 18 view .LVU587
 1867              	.LBE428:
 1868              	.LBE430:
 1869              		.loc 1 733 3 is_stmt 1 view .LVU588
 1870              		.loc 1 733 3 view .LVU589
 1871              		.loc 1 733 3 view .LVU590
 1872              		.loc 1 735 3 view .LVU591
 1873              		.loc 1 735 8 is_stmt 0 view .LVU592
 1874 0008 1A60     		str	r2, [r3]
 1875              		.loc 1 736 3 is_stmt 1 view .LVU593
 1876              		.loc 1 737 3 is_stmt 0 view .LVU594
 1877 000a 0320     		movs	r0, #3
 1878              	.LVL98:
 1879              		.loc 1 736 15 view .LVU595
 1880 000c 9361     		str	r3, [r2, #24]
 1881              		.loc 1 737 3 is_stmt 1 view .LVU596
ARM GAS  C:\msys64\tmp\ccOIYPIK.s 			page 34


 1882 000e FFF7FEFF 		bl	chSchGoSleepS
 1883              	.LVL99:
 1884              		.loc 1 739 3 view .LVU597
 1885              	.LBB431:
 1886              	.LBI431:
 1887              		.loc 5 275 25 view .LVU598
 1888              	.LBB432:
 1889              		.loc 5 277 3 view .LVU599
 1890              	.LBE432:
 1891              	.LBE431:
 1892              		.loc 1 739 28 is_stmt 0 discriminator 1 view .LVU600
 1893 0012 2369     		ldr	r3, [r4, #16]
 1894              		.loc 1 740 1 view .LVU601
 1895 0014 9869     		ldr	r0, [r3, #24]
 1896 0016 10BD     		pop	{r4, pc}
 1897              	.L55:
 1898              		.align	2
 1899              	.L54:
 1900 0018 00000000 		.word	ch
 1901              		.cfi_endproc
 1902              	.LFE218:
 1903              		.size	chThdSuspendS, .-chThdSuspendS
 1904              		.section	.text.chThdSuspendTimeoutS,"ax",%progbits
 1905              		.align	1
 1906              		.p2align 4,,15
 1907              		.global	chThdSuspendTimeoutS
 1908              		.syntax unified
 1909              		.thumb
 1910              		.thumb_func
 1911              		.type	chThdSuspendTimeoutS, %function
 1912              	chThdSuspendTimeoutS:
 1913              	.LVL100:
 1914              	.LFB219:
 1915              		.loc 1 761 72 is_stmt 1 view -0
 1916              		.cfi_startproc
 1917              		@ args = 0, pretend = 0, frame = 0
 1918              		@ frame_needed = 0, uses_anonymous_args = 0
 1919              		@ link register save eliminated.
 1920              		.loc 1 762 3 view .LVU603
 1921              	.LBB433:
 1922              	.LBI433:
 1923              		.loc 5 275 25 view .LVU604
 1924              	.LBB434:
 1925              		.loc 5 277 3 view .LVU605
 1926              		.loc 5 277 18 is_stmt 0 view .LVU606
 1927 0000 054B     		ldr	r3, .L58
 1928 0002 1A69     		ldr	r2, [r3, #16]
 1929              	.LVL101:
 1930              		.loc 5 277 18 view .LVU607
 1931              	.LBE434:
 1932              	.LBE433:
 1933              		.loc 1 764 3 is_stmt 1 view .LVU608
 1934              		.loc 1 764 3 view .LVU609
 1935              		.loc 1 764 3 view .LVU610
 1936              		.loc 1 766 3 view .LVU611
 1937              		.loc 1 761 72 is_stmt 0 view .LVU612
 1938 0004 0346     		mov	r3, r0
ARM GAS  C:\msys64\tmp\ccOIYPIK.s 			page 35


 1939              		.loc 1 766 6 view .LVU613
 1940 0006 21B1     		cbz	r1, .L57
 1941              		.loc 1 770 3 is_stmt 1 view .LVU614
 1942              		.loc 1 770 8 is_stmt 0 view .LVU615
 1943 0008 0260     		str	r2, [r0]
 1944              		.loc 1 771 3 is_stmt 1 view .LVU616
 1945              		.loc 1 773 10 is_stmt 0 view .LVU617
 1946 000a 0320     		movs	r0, #3
 1947              	.LVL102:
 1948              		.loc 1 771 15 view .LVU618
 1949 000c 9361     		str	r3, [r2, #24]
 1950              		.loc 1 773 3 is_stmt 1 view .LVU619
 1951              		.loc 1 773 10 is_stmt 0 view .LVU620
 1952 000e FFF7FEBF 		b	chSchGoSleepTimeoutS
 1953              	.LVL103:
 1954              	.L57:
 1955              		.loc 1 774 1 view .LVU621
 1956 0012 4FF0FF30 		mov	r0, #-1
 1957              	.LVL104:
 1958              		.loc 1 774 1 view .LVU622
 1959 0016 7047     		bx	lr
 1960              	.L59:
 1961              		.align	2
 1962              	.L58:
 1963 0018 00000000 		.word	ch
 1964              		.cfi_endproc
 1965              	.LFE219:
 1966              		.size	chThdSuspendTimeoutS, .-chThdSuspendTimeoutS
 1967              		.section	.text.chThdResumeI,"ax",%progbits
 1968              		.align	1
 1969              		.p2align 4,,15
 1970              		.global	chThdResumeI
 1971              		.syntax unified
 1972              		.thumb
 1973              		.thumb_func
 1974              		.type	chThdResumeI, %function
 1975              	chThdResumeI:
 1976              	.LVL105:
 1977              	.LFB220:
 1978              		.loc 1 786 55 is_stmt 1 view -0
 1979              		.cfi_startproc
 1980              		@ args = 0, pretend = 0, frame = 0
 1981              		@ frame_needed = 0, uses_anonymous_args = 0
 1982              		@ link register save eliminated.
 1983              		.loc 1 788 3 view .LVU624
 1984              		.loc 1 786 55 is_stmt 0 view .LVU625
 1985 0000 0346     		mov	r3, r0
 1986              		.loc 1 788 7 view .LVU626
 1987 0002 0068     		ldr	r0, [r0]
 1988              	.LVL106:
 1989              		.loc 1 788 6 view .LVU627
 1990 0004 20B1     		cbz	r0, .L60
 1991              	.LBB435:
 1992              		.loc 1 789 5 is_stmt 1 view .LVU628
 1993              	.LVL107:
 1994              		.loc 1 791 5 view .LVU629
 1995              		.loc 1 791 5 view .LVU630
ARM GAS  C:\msys64\tmp\ccOIYPIK.s 			page 36


 1996              		.loc 1 791 5 view .LVU631
 1997              		.loc 1 793 5 view .LVU632
 1998              		.loc 1 793 10 is_stmt 0 view .LVU633
 1999 0006 0022     		movs	r2, #0
 2000 0008 1A60     		str	r2, [r3]
 2001              		.loc 1 794 5 is_stmt 1 view .LVU634
 2002              		.loc 1 794 18 is_stmt 0 view .LVU635
 2003 000a 8161     		str	r1, [r0, #24]
 2004              		.loc 1 795 5 is_stmt 1 view .LVU636
 2005              		.loc 1 795 12 is_stmt 0 view .LVU637
 2006 000c FFF7FEBF 		b	chSchReadyI
 2007              	.LVL108:
 2008              	.L60:
 2009              		.loc 1 795 12 view .LVU638
 2010              	.LBE435:
 2011              		.loc 1 797 1 view .LVU639
 2012 0010 7047     		bx	lr
 2013              		.cfi_endproc
 2014              	.LFE220:
 2015              		.size	chThdResumeI, .-chThdResumeI
 2016 0012 00BF     		.section	.text.chThdResumeS,"ax",%progbits
 2017              		.align	1
 2018              		.p2align 4,,15
 2019              		.global	chThdResumeS
 2020              		.syntax unified
 2021              		.thumb
 2022              		.thumb_func
 2023              		.type	chThdResumeS, %function
 2024              	chThdResumeS:
 2025              	.LVL109:
 2026              	.LFB221:
 2027              		.loc 1 809 55 is_stmt 1 view -0
 2028              		.cfi_startproc
 2029              		@ args = 0, pretend = 0, frame = 0
 2030              		@ frame_needed = 0, uses_anonymous_args = 0
 2031              		@ link register save eliminated.
 2032              		.loc 1 811 3 view .LVU641
 2033              		.loc 1 809 55 is_stmt 0 view .LVU642
 2034 0000 0346     		mov	r3, r0
 2035              		.loc 1 811 7 view .LVU643
 2036 0002 0068     		ldr	r0, [r0]
 2037              	.LVL110:
 2038              		.loc 1 811 6 view .LVU644
 2039 0004 18B1     		cbz	r0, .L62
 2040              	.LBB436:
 2041              		.loc 1 812 5 is_stmt 1 view .LVU645
 2042              	.LVL111:
 2043              		.loc 1 814 5 view .LVU646
 2044              		.loc 1 814 5 view .LVU647
 2045              		.loc 1 814 5 view .LVU648
 2046              		.loc 1 816 5 view .LVU649
 2047              		.loc 1 816 10 is_stmt 0 view .LVU650
 2048 0006 0022     		movs	r2, #0
 2049 0008 1A60     		str	r2, [r3]
 2050              		.loc 1 817 5 is_stmt 1 view .LVU651
 2051 000a FFF7FEBF 		b	chSchWakeupS
 2052              	.LVL112:
ARM GAS  C:\msys64\tmp\ccOIYPIK.s 			page 37


 2053              	.L62:
 2054              		.loc 1 817 5 is_stmt 0 view .LVU652
 2055              	.LBE436:
 2056              		.loc 1 819 1 view .LVU653
 2057 000e 7047     		bx	lr
 2058              		.cfi_endproc
 2059              	.LFE221:
 2060              		.size	chThdResumeS, .-chThdResumeS
 2061              		.section	.text.chThdResume,"ax",%progbits
 2062              		.align	1
 2063              		.p2align 4,,15
 2064              		.global	chThdResume
 2065              		.syntax unified
 2066              		.thumb
 2067              		.thumb_func
 2068              		.type	chThdResume, %function
 2069              	chThdResume:
 2070              	.LVL113:
 2071              	.LFB222:
 2072              		.loc 1 831 54 is_stmt 1 view -0
 2073              		.cfi_startproc
 2074              		@ args = 0, pretend = 0, frame = 0
 2075              		@ frame_needed = 0, uses_anonymous_args = 0
 2076              		.loc 1 833 3 view .LVU655
 2077              	.LBB437:
 2078              	.LBI437:
 2079              		.loc 2 374 20 view .LVU656
 2080              		.loc 2 376 3 view .LVU657
 2081              	.LBB438:
 2082              	.LBI438:
 2083              		.loc 3 604 20 view .LVU658
 2084              		.loc 3 612 3 view .LVU659
 2085              	.LBB439:
 2086              	.LBI439:
 2087              		.loc 4 546 57 view .LVU660
 2088              	.LBB440:
 2089              		.loc 4 548 3 view .LVU661
 2090              	.LBE440:
 2091              	.LBE439:
 2092              	.LBE438:
 2093              	.LBE437:
 2094              		.loc 1 831 54 is_stmt 0 view .LVU662
 2095 0000 08B5     		push	{r3, lr}
 2096              		.cfi_def_cfa_offset 8
 2097              		.cfi_offset 3, -8
 2098              		.cfi_offset 14, -4
 2099              	.LBB444:
 2100              	.LBB443:
 2101              	.LBB442:
 2102              	.LBB441:
 2103              		.loc 4 548 3 view .LVU663
 2104 0002 2023     		movs	r3, #32
 2105              		.syntax unified
 2106              	@ 548 "ChibiOS/os/common/ext/CMSIS/include/core_cmFunc.h" 1
 2107 0004 83F31188 		MSR basepri, r3
 2108              	@ 0 "" 2
 2109              	.LVL114:
ARM GAS  C:\msys64\tmp\ccOIYPIK.s 			page 38


 2110              		.loc 4 548 3 view .LVU664
 2111              		.thumb
 2112              		.syntax unified
 2113              	.LBE441:
 2114              	.LBE442:
 2115              	.LBE443:
 2116              		.loc 2 377 34 is_stmt 1 view .LVU665
 2117              		.loc 2 378 20 view .LVU666
 2118              	.LBE444:
 2119              		.loc 1 834 3 view .LVU667
 2120 0008 FFF7FEFF 		bl	chThdResumeS
 2121              	.LVL115:
 2122              		.loc 1 835 3 view .LVU668
 2123              	.LBB445:
 2124              	.LBI445:
 2125              		.loc 2 386 20 view .LVU669
 2126              	.LBB446:
 2127              		.loc 2 388 22 view .LVU670
 2128              		.loc 2 389 33 view .LVU671
 2129              		.loc 2 395 3 view .LVU672
 2130              		.loc 2 395 3 view .LVU673
 2131              		.loc 2 395 3 view .LVU674
 2132              		.loc 2 399 3 view .LVU675
 2133              	.LBB447:
 2134              	.LBI447:
 2135              		.loc 3 628 20 view .LVU676
 2136              		.loc 3 631 3 view .LVU677
 2137              	.LBB448:
 2138              	.LBI448:
 2139              		.loc 4 546 57 view .LVU678
 2140              	.LBB449:
 2141              		.loc 4 548 3 view .LVU679
 2142 000c 0023     		movs	r3, #0
 2143              		.syntax unified
 2144              	@ 548 "ChibiOS/os/common/ext/CMSIS/include/core_cmFunc.h" 1
 2145 000e 83F31188 		MSR basepri, r3
 2146              	@ 0 "" 2
 2147              	.LVL116:
 2148              		.loc 4 548 3 is_stmt 0 view .LVU680
 2149              		.thumb
 2150              		.syntax unified
 2151              	.LBE449:
 2152              	.LBE448:
 2153              	.LBE447:
 2154              	.LBE446:
 2155              	.LBE445:
 2156              		.loc 1 836 1 view .LVU681
 2157 0012 08BD     		pop	{r3, pc}
 2158              		.cfi_endproc
 2159              	.LFE222:
 2160              		.size	chThdResume, .-chThdResume
 2161              		.section	.text.chThdEnqueueTimeoutS,"ax",%progbits
 2162              		.align	1
 2163              		.p2align 4,,15
 2164              		.global	chThdEnqueueTimeoutS
 2165              		.syntax unified
 2166              		.thumb
ARM GAS  C:\msys64\tmp\ccOIYPIK.s 			page 39


 2167              		.thumb_func
 2168              		.type	chThdEnqueueTimeoutS, %function
 2169              	chThdEnqueueTimeoutS:
 2170              	.LVL117:
 2171              	.LFB223:
 2172              		.loc 1 861 69 is_stmt 1 view -0
 2173              		.cfi_startproc
 2174              		@ args = 0, pretend = 0, frame = 0
 2175              		@ frame_needed = 0, uses_anonymous_args = 0
 2176              		@ link register save eliminated.
 2177              		.loc 1 863 3 view .LVU683
 2178              		.loc 1 863 6 is_stmt 0 view .LVU684
 2179 0000 69B1     		cbz	r1, .L67
 2180              		.loc 1 867 3 view .LVU685
 2181 0002 084A     		ldr	r2, .L71
 2182              		.loc 1 861 69 view .LVU686
 2183 0004 10B4     		push	{r4}
 2184              		.cfi_def_cfa_offset 4
 2185              		.cfi_offset 4, -4
 2186              		.loc 1 867 3 view .LVU687
 2187 0006 1269     		ldr	r2, [r2, #16]
 2188              	.LBB450:
 2189              	.LBB451:
 2190              		.loc 9 612 35 view .LVU688
 2191 0008 4468     		ldr	r4, [r0, #4]
 2192 000a 0346     		mov	r3, r0
 2193              	.LBE451:
 2194              	.LBE450:
 2195              		.loc 1 867 3 is_stmt 1 view .LVU689
 2196              	.LVL118:
 2197              	.LBB455:
 2198              	.LBI450:
 2199              		.loc 9 609 20 view .LVU690
 2200              	.LBB452:
 2201              		.loc 9 611 3 view .LVU691
 2202              		.loc 9 612 30 is_stmt 0 view .LVU692
 2203 000c C2E90034 		strd	r3, r4, [r2]
 2204              		.loc 9 613 3 is_stmt 1 view .LVU693
 2205              	.LBE452:
 2206              	.LBE455:
 2207              		.loc 1 869 10 is_stmt 0 view .LVU694
 2208 0010 0420     		movs	r0, #4
 2209              	.LVL119:
 2210              	.LBB456:
 2211              	.LBB453:
 2212              		.loc 9 613 30 view .LVU695
 2213 0012 2260     		str	r2, [r4]
 2214              		.loc 9 614 3 is_stmt 1 view .LVU696
 2215              	.LBE453:
 2216              	.LBE456:
 2217              		.loc 1 870 1 is_stmt 0 view .LVU697
 2218 0014 5DF8044B 		ldr	r4, [sp], #4
 2219              		.cfi_restore 4
 2220              		.cfi_def_cfa_offset 0
 2221              	.LBB457:
 2222              	.LBB454:
 2223              		.loc 9 614 30 view .LVU698
ARM GAS  C:\msys64\tmp\ccOIYPIK.s 			page 40


 2224 0018 5A60     		str	r2, [r3, #4]
 2225              	.LVL120:
 2226              		.loc 9 614 30 view .LVU699
 2227              	.LBE454:
 2228              	.LBE457:
 2229              		.loc 1 869 3 is_stmt 1 view .LVU700
 2230              		.loc 1 869 10 is_stmt 0 view .LVU701
 2231 001a FFF7FEBF 		b	chSchGoSleepTimeoutS
 2232              	.LVL121:
 2233              	.L67:
 2234              		.loc 1 870 1 view .LVU702
 2235 001e 4FF0FF30 		mov	r0, #-1
 2236              	.LVL122:
 2237              		.loc 1 870 1 view .LVU703
 2238 0022 7047     		bx	lr
 2239              	.L72:
 2240              		.align	2
 2241              	.L71:
 2242 0024 00000000 		.word	ch
 2243              		.cfi_endproc
 2244              	.LFE223:
 2245              		.size	chThdEnqueueTimeoutS, .-chThdEnqueueTimeoutS
 2246              		.section	.text.chThdDequeueNextI,"ax",%progbits
 2247              		.align	1
 2248              		.p2align 4,,15
 2249              		.global	chThdDequeueNextI
 2250              		.syntax unified
 2251              		.thumb
 2252              		.thumb_func
 2253              		.type	chThdDequeueNextI, %function
 2254              	chThdDequeueNextI:
 2255              	.LVL123:
 2256              	.LFB224:
 2257              		.loc 1 881 57 is_stmt 1 view -0
 2258              		.cfi_startproc
 2259              		@ args = 0, pretend = 0, frame = 0
 2260              		@ frame_needed = 0, uses_anonymous_args = 0
 2261              		@ link register save eliminated.
 2262              		.loc 1 883 3 view .LVU705
 2263              		.loc 1 881 57 is_stmt 0 view .LVU706
 2264 0000 0346     		mov	r3, r0
 2265              	.LVL124:
 2266              	.LBB458:
 2267              	.LBI458:
 2268              		.loc 9 575 20 is_stmt 1 view .LVU707
 2269              	.LBB459:
 2270              		.loc 9 577 3 view .LVU708
 2271              		.loc 9 577 20 is_stmt 0 view .LVU709
 2272 0002 0068     		ldr	r0, [r0]
 2273              	.LVL125:
 2274              		.loc 9 577 20 view .LVU710
 2275              	.LBE459:
 2276              	.LBE458:
 2277              		.loc 1 883 6 discriminator 1 view .LVU711
 2278 0004 8342     		cmp	r3, r0
 2279 0006 05D0     		beq	.L73
 2280              		.loc 1 884 5 is_stmt 1 view .LVU712
ARM GAS  C:\msys64\tmp\ccOIYPIK.s 			page 41


 2281              	.LVL126:
 2282              	.LBB460:
 2283              	.LBI460:
 2284              		.loc 5 429 20 view .LVU713
 2285              	.LBB461:
 2286              		.loc 5 430 3 view .LVU714
 2287              		.loc 5 432 3 view .LVU715
 2288              		.loc 5 432 3 view .LVU716
 2289              		.loc 5 432 3 view .LVU717
 2290              		.loc 5 434 3 view .LVU718
 2291              	.LBB462:
 2292              	.LBI462:
 2293              		.loc 9 617 25 view .LVU719
 2294              	.LBB463:
 2295              		.loc 9 618 3 view .LVU720
 2296              		.loc 9 620 3 view .LVU721
 2297              		.loc 9 620 36 is_stmt 0 view .LVU722
 2298 0008 0268     		ldr	r2, [r0]
 2299              		.loc 9 620 25 view .LVU723
 2300 000a 1A60     		str	r2, [r3]
 2301              		.loc 9 621 3 is_stmt 1 view .LVU724
 2302              		.loc 9 621 25 is_stmt 0 view .LVU725
 2303 000c 5360     		str	r3, [r2, #4]
 2304              		.loc 9 623 3 is_stmt 1 view .LVU726
 2305              	.LVL127:
 2306              		.loc 9 623 3 is_stmt 0 view .LVU727
 2307              	.LBE463:
 2308              	.LBE462:
 2309              		.loc 5 436 3 is_stmt 1 view .LVU728
 2310              		.loc 5 436 3 view .LVU729
 2311              		.loc 5 436 3 view .LVU730
 2312              		.loc 5 438 3 view .LVU731
 2313              		.loc 5 438 16 is_stmt 0 view .LVU732
 2314 000e 8161     		str	r1, [r0, #24]
 2315              		.loc 5 439 3 is_stmt 1 view .LVU733
 2316              		.loc 5 439 10 is_stmt 0 view .LVU734
 2317 0010 FFF7FEBF 		b	chSchReadyI
 2318              	.LVL128:
 2319              	.L73:
 2320              		.loc 5 439 10 view .LVU735
 2321              	.LBE461:
 2322              	.LBE460:
 2323              		.loc 1 886 1 view .LVU736
 2324 0014 7047     		bx	lr
 2325              		.cfi_endproc
 2326              	.LFE224:
 2327              		.size	chThdDequeueNextI, .-chThdDequeueNextI
 2328 0016 00BF     		.section	.text.chThdDequeueAllI,"ax",%progbits
 2329              		.align	1
 2330              		.p2align 4,,15
 2331              		.global	chThdDequeueAllI
 2332              		.syntax unified
 2333              		.thumb
 2334              		.thumb_func
 2335              		.type	chThdDequeueAllI, %function
 2336              	chThdDequeueAllI:
 2337              	.LVL129:
ARM GAS  C:\msys64\tmp\ccOIYPIK.s 			page 42


 2338              	.LFB225:
 2339              		.loc 1 896 56 is_stmt 1 view -0
 2340              		.cfi_startproc
 2341              		@ args = 0, pretend = 0, frame = 0
 2342              		@ frame_needed = 0, uses_anonymous_args = 0
 2343              		.loc 1 898 3 view .LVU738
 2344              		.loc 1 898 10 view .LVU739
 2345              		.loc 1 896 56 is_stmt 0 view .LVU740
 2346 0000 38B5     		push	{r3, r4, r5, lr}
 2347              		.cfi_def_cfa_offset 16
 2348              		.cfi_offset 3, -16
 2349              		.cfi_offset 4, -12
 2350              		.cfi_offset 5, -8
 2351              		.cfi_offset 14, -4
 2352              		.loc 1 896 56 view .LVU741
 2353 0002 0446     		mov	r4, r0
 2354              	.LVL130:
 2355              	.LBB464:
 2356              	.LBI464:
 2357              		.loc 9 575 20 is_stmt 1 view .LVU742
 2358              	.LBB465:
 2359              		.loc 9 577 3 view .LVU743
 2360              		.loc 9 577 20 is_stmt 0 view .LVU744
 2361 0004 0068     		ldr	r0, [r0]
 2362              	.LVL131:
 2363              		.loc 9 577 20 view .LVU745
 2364              	.LBE465:
 2365              	.LBE464:
 2366              		.loc 1 898 10 discriminator 1 view .LVU746
 2367 0006 8442     		cmp	r4, r0
 2368 0008 09D0     		beq	.L75
 2369 000a 0D46     		mov	r5, r1
 2370              	.LVL132:
 2371              	.L77:
 2372              		.loc 1 899 5 is_stmt 1 view .LVU747
 2373              	.LBB467:
 2374              	.LBI467:
 2375              		.loc 5 429 20 view .LVU748
 2376              	.LBB468:
 2377              		.loc 5 430 3 view .LVU749
 2378              		.loc 5 432 3 view .LVU750
 2379              		.loc 5 432 3 view .LVU751
 2380              		.loc 5 432 3 view .LVU752
 2381              		.loc 5 434 3 view .LVU753
 2382              	.LBB469:
 2383              	.LBI469:
 2384              		.loc 9 617 25 view .LVU754
 2385              	.LBB470:
 2386              		.loc 9 618 3 view .LVU755
 2387              		.loc 9 620 3 view .LVU756
 2388              		.loc 9 620 36 is_stmt 0 view .LVU757
 2389 000c 0368     		ldr	r3, [r0]
 2390              		.loc 9 620 25 view .LVU758
 2391 000e 2360     		str	r3, [r4]
 2392              		.loc 9 621 3 is_stmt 1 view .LVU759
 2393              		.loc 9 621 25 is_stmt 0 view .LVU760
 2394 0010 5C60     		str	r4, [r3, #4]
ARM GAS  C:\msys64\tmp\ccOIYPIK.s 			page 43


 2395              		.loc 9 623 3 is_stmt 1 view .LVU761
 2396              	.LVL133:
 2397              		.loc 9 623 3 is_stmt 0 view .LVU762
 2398              	.LBE470:
 2399              	.LBE469:
 2400              		.loc 5 436 3 is_stmt 1 view .LVU763
 2401              		.loc 5 436 3 view .LVU764
 2402              		.loc 5 436 3 view .LVU765
 2403              		.loc 5 438 3 view .LVU766
 2404              		.loc 5 438 16 is_stmt 0 view .LVU767
 2405 0012 8561     		str	r5, [r0, #24]
 2406              		.loc 5 439 3 is_stmt 1 view .LVU768
 2407              		.loc 5 439 10 is_stmt 0 view .LVU769
 2408 0014 FFF7FEFF 		bl	chSchReadyI
 2409              	.LVL134:
 2410              		.loc 5 439 10 view .LVU770
 2411              	.LBE468:
 2412              	.LBE467:
 2413              		.loc 1 898 10 is_stmt 1 view .LVU771
 2414              	.LBB471:
 2415              		.loc 9 575 20 view .LVU772
 2416              	.LBB466:
 2417              		.loc 9 577 3 view .LVU773
 2418              		.loc 9 577 20 is_stmt 0 view .LVU774
 2419 0018 2068     		ldr	r0, [r4]
 2420              	.LVL135:
 2421              		.loc 9 577 20 view .LVU775
 2422              	.LBE466:
 2423              	.LBE471:
 2424              		.loc 1 898 10 discriminator 1 view .LVU776
 2425 001a 8442     		cmp	r4, r0
 2426 001c F6D1     		bne	.L77
 2427              	.LVL136:
 2428              	.L75:
 2429              		.loc 1 901 1 view .LVU777
 2430 001e 38BD     		pop	{r3, r4, r5, pc}
 2431              		.loc 1 901 1 view .LVU778
 2432              		.cfi_endproc
 2433              	.LFE225:
 2434              		.size	chThdDequeueAllI, .-chThdDequeueAllI
 2435              		.text
 2436              	.Letext0:
 2437              		.file 10 "C:/Program Files (x86)/Arm GNU Toolchain arm-none-eabi/14.3 rel1/lib/gcc/arm-none-eabi/1
 2438              		.file 11 "C:/Program Files (x86)/Arm GNU Toolchain arm-none-eabi/14.3 rel1/arm-none-eabi/include/m
 2439              		.file 12 "C:/Program Files (x86)/Arm GNU Toolchain arm-none-eabi/14.3 rel1/arm-none-eabi/include/s
 2440              		.file 13 "ChibiOS/os/common/ports/ARMCMx/compilers/GCC/chtypes.h"
 2441              		.file 14 "ChibiOS/os/rt/include/chsystypes.h"
 2442              		.file 15 "ChibiOS/os/common/ports/ARMCMx/chcore.h"
 2443              		.file 16 "ChibiOS/os/hal/ports/STM32/LLD/TIMv1/stm32_tim.h"
 2444              		.file 17 "<built-in>"