ARM GAS  C:\msys64\tmp\cc9eAW7y.s 			page 1


   1              		.cpu cortex-m4
   2              		.arch armv7e-m
   3              		.fpu fpv4-sp-d16
   4              		.eabi_attribute 27, 1
   5              		.eabi_attribute 28, 1
   6              		.eabi_attribute 23, 1
   7              		.eabi_attribute 24, 1
   8              		.eabi_attribute 25, 1
   9              		.eabi_attribute 26, 1
  10              		.eabi_attribute 30, 2
  11              		.eabi_attribute 34, 1
  12              		.eabi_attribute 18, 4
  13              		.file	"crt1.c"
  14              		.text
  15              	.Ltext0:
  16              		.cfi_sections	.debug_frame
  17              		.file 1 "ChibiOS/os/common/startup/ARMCMx/compilers/GCC/crt1.c"
  18              		.section	.text.__core_init,"ax",%progbits
  19              		.align	1
  20              		.p2align 4,,15
  21              		.weak	__core_init
  22              		.syntax unified
  23              		.thumb
  24              		.thumb_func
  25              		.type	__core_init, %function
  26              	__core_init:
  27              	.LFB123:
  28              		.loc 1 136 24 view -0
  29              		.cfi_startproc
  30              		@ args = 0, pretend = 0, frame = 0
  31              		@ frame_needed = 0, uses_anonymous_args = 0
  32              		@ link register save eliminated.
  33              		.loc 1 142 1 view .LVU1
  34 0000 7047     		bx	lr
  35              		.cfi_endproc
  36              	.LFE123:
  37              		.size	__core_init, .-__core_init
  38 0002 00BF     		.section	.text.__early_init,"ax",%progbits
  39              		.align	1
  40              		.p2align 4,,15
  41              		.weak	__early_init
  42              		.syntax unified
  43              		.thumb
  44              		.thumb_func
  45              		.type	__early_init, %function
  46              	__early_init:
  47              	.LFB129:
  48              		.cfi_startproc
  49              		.loc 1 155 6 view -0
  50              		@ args = 0, pretend = 0, frame = 0
  51              		@ frame_needed = 0, uses_anonymous_args = 0
  52              		@ link register save eliminated.
  53 0000 7047     		bx	lr
  54              		.cfi_endproc
  55              	.LFE129:
  56              		.size	__early_init, .-__early_init
  57 0002 00BF     		.section	.text.__late_init,"ax",%progbits
ARM GAS  C:\msys64\tmp\cc9eAW7y.s 			page 2


  58              		.align	1
  59              		.p2align 4,,15
  60              		.weak	__late_init
  61              		.syntax unified
  62              		.thumb
  63              		.thumb_func
  64              		.type	__late_init, %function
  65              	__late_init:
  66              	.LFB131:
  67              		.cfi_startproc
  68              		.loc 1 169 6 view -0
  69              		@ args = 0, pretend = 0, frame = 0
  70              		@ frame_needed = 0, uses_anonymous_args = 0
  71              		@ link register save eliminated.
  72 0000 7047     		bx	lr
  73              		.cfi_endproc
  74              	.LFE131:
  75              		.size	__late_init, .-__late_init
  76 0002 00BF     		.section	.text.__default_exit,"ax",%progbits
  77              		.align	1
  78              		.p2align 4,,15
  79              		.weak	__default_exit
  80              		.syntax unified
  81              		.thumb
  82              		.thumb_func
  83              		.type	__default_exit, %function
  84              	__default_exit:
  85              	.LFB126:
  86              		.loc 1 182 27 view -0
  87              		.cfi_startproc
  88              		@ Volatile: function does not return.
  89              		@ args = 0, pretend = 0, frame = 0
  90              		@ frame_needed = 0, uses_anonymous_args = 0
  91              		@ link register save eliminated.
  92              	.L6:
  93              		.loc 1 185 3 view .LVU5
  94              		.loc 1 186 3 view .LVU6
  95              		.loc 1 185 9 view .LVU7
  96 0000 FEE7     		b	.L6
  97              		.cfi_endproc
  98              	.LFE126:
  99              		.size	__default_exit, .-__default_exit
 100 0002 00BF     		.section	.text.__init_ram_areas,"ax",%progbits
 101              		.align	1
 102              		.p2align 4,,15
 103              		.global	__init_ram_areas
 104              		.syntax unified
 105              		.thumb
 106              		.thumb_func
 107              		.type	__init_ram_areas, %function
 108              	__init_ram_areas:
 109              	.LFB127:
 110              		.loc 1 192 29 view -0
 111              		.cfi_startproc
 112              		@ args = 0, pretend = 0, frame = 0
 113              		@ frame_needed = 0, uses_anonymous_args = 0
 114              		.loc 1 194 3 view .LVU9
ARM GAS  C:\msys64\tmp\cc9eAW7y.s 			page 3


 115              	.LVL0:
 116              		.loc 1 192 29 is_stmt 0 view .LVU10
 117 0000 70B5     		push	{r4, r5, r6, lr}
 118              		.cfi_def_cfa_offset 16
 119              		.cfi_offset 4, -16
 120              		.cfi_offset 5, -12
 121              		.cfi_offset 6, -8
 122              		.cfi_offset 14, -4
 123 0002 134D     		ldr	r5, .L15
 124 0004 05F18004 		add	r4, r5, #128
 125              	.LVL1:
 126              	.L11:
 127              		.loc 1 196 3 is_stmt 1 view .LVU11
 128              	.LBB2:
 129              		.loc 1 197 5 view .LVU12
 130              		.loc 1 201 19 is_stmt 0 view .LVU13
 131 0008 55E90301 		ldrd	r0, r1, [r5, #-12]
 132              		.loc 1 201 14 view .LVU14
 133 000c 8842     		cmp	r0, r1
 134              		.loc 1 197 15 view .LVU15
 135 000e 55F8102C 		ldr	r2, [r5, #-16]
 136              	.LVL2:
 137              		.loc 1 198 5 is_stmt 1 view .LVU16
 138              		.loc 1 201 5 view .LVU17
 139              		.loc 1 201 14 view .LVU18
 140 0012 0DD2     		bcs	.L8
 141 0014 043A     		subs	r2, r2, #4
 142              	.LVL3:
 143              		.loc 1 198 15 is_stmt 0 view .LVU19
 144 0016 0346     		mov	r3, r0
 145              	.LVL4:
 146              	.L9:
 147              		.loc 1 202 7 is_stmt 1 view .LVU20
 148              		.loc 1 202 12 is_stmt 0 view .LVU21
 149 0018 52F8046F 		ldr	r6, [r2, #4]!
 150              	.LVL5:
 151              		.loc 1 202 10 view .LVU22
 152 001c 43F8046B 		str	r6, [r3], #4
 153              	.LVL6:
 154              		.loc 1 203 7 is_stmt 1 view .LVU23
 155              		.loc 1 204 7 view .LVU24
 156              		.loc 1 201 14 view .LVU25
 157 0020 8B42     		cmp	r3, r1
 158 0022 F9D3     		bcc	.L9
 159 0024 0139     		subs	r1, r1, #1
 160 0026 091A     		subs	r1, r1, r0
 161 0028 21F00301 		bic	r1, r1, #3
 162 002c 0430     		adds	r0, r0, #4
 163 002e 0844     		add	r0, r0, r1
 164              	.LVL7:
 165              	.L8:
 166              		.loc 1 208 14 view .LVU26
 167              		.loc 1 208 19 is_stmt 0 view .LVU27
 168 0030 55F8042C 		ldr	r2, [r5, #-4]
 169              		.loc 1 208 14 view .LVU28
 170 0034 8242     		cmp	r2, r0
 171 0036 07D9     		bls	.L10
ARM GAS  C:\msys64\tmp\cc9eAW7y.s 			page 4


 172              		.loc 1 209 10 view .LVU29
 173 0038 013A     		subs	r2, r2, #1
 174 003a 121A     		subs	r2, r2, r0
 175 003c 22F00302 		bic	r2, r2, #3
 176 0040 0432     		adds	r2, r2, #4
 177 0042 0021     		movs	r1, #0
 178 0044 FFF7FEFF 		bl	memset
 179              	.LVL8:
 180              	.L10:
 181              		.loc 1 212 5 is_stmt 1 view .LVU30
 182              		.loc 1 212 5 is_stmt 0 view .LVU31
 183              	.LBE2:
 184              		.loc 1 214 14 is_stmt 1 view .LVU32
 185 0048 1035     		adds	r5, r5, #16
 186              	.LVL9:
 187              		.loc 1 214 14 is_stmt 0 view .LVU33
 188 004a A542     		cmp	r5, r4
 189 004c DCD1     		bne	.L11
 190              		.loc 1 216 1 view .LVU34
 191 004e 70BD     		pop	{r4, r5, r6, pc}
 192              	.LVL10:
 193              	.L16:
 194              		.loc 1 216 1 view .LVU35
 195              		.align	2
 196              	.L15:
 197 0050 10000000 		.word	ram_areas+16
 198              		.cfi_endproc
 199              	.LFE127:
 200              		.size	__init_ram_areas, .-__init_ram_areas
 201              		.section	.rodata.ram_areas,"a"
 202              		.align	2
 203              		.type	ram_areas, %object
 204              		.size	ram_areas, 128
 205              	ram_areas:
 206 0000 00000000 		.word	__ram0_init_text__
 207 0004 00000000 		.word	__ram0_init__
 208 0008 00000000 		.word	__ram0_clear__
 209 000c 00000000 		.word	__ram0_noinit__
 210 0010 00000000 		.word	__ram1_init_text__
 211 0014 00000000 		.word	__ram1_init__
 212 0018 00000000 		.word	__ram1_clear__
 213 001c 00000000 		.word	__ram1_noinit__
 214 0020 00000000 		.word	__ram2_init_text__
 215 0024 00000000 		.word	__ram2_init__
 216 0028 00000000 		.word	__ram2_clear__
 217 002c 00000000 		.word	__ram2_noinit__
 218 0030 00000000 		.word	__ram3_init_text__
 219 0034 00000000 		.word	__ram3_init__
 220 0038 00000000 		.word	__ram3_clear__
 221 003c 00000000 		.word	__ram3_noinit__
 222 0040 00000000 		.word	__ram4_init_text__
 223 0044 00000000 		.word	__ram4_init__
 224 0048 00000000 		.word	__ram4_clear__
 225 004c 00000000 		.word	__ram4_noinit__
 226 0050 00000000 		.word	__ram5_init_text__
 227 0054 00000000 		.word	__ram5_init__
 228 0058 00000000 		.word	__ram5_clear__
ARM GAS  C:\msys64\tmp\cc9eAW7y.s 			page 5


 229 005c 00000000 		.word	__ram5_noinit__
 230 0060 00000000 		.word	__ram6_init_text__
 231 0064 00000000 		.word	__ram6_init__
 232 0068 00000000 		.word	__ram6_clear__
 233 006c 00000000 		.word	__ram6_noinit__
 234 0070 00000000 		.word	__ram7_init_text__
 235 0074 00000000 		.word	__ram7_init__
 236 0078 00000000 		.word	__ram7_clear__
 237 007c 00000000 		.word	__ram7_noinit__
 238              		.text
 239              	.Letext0:
 240              		.file 2 "C:/Program Files (x86)/Arm GNU Toolchain arm-none-eabi/14.3 rel1/arm-none-eabi/include/ma
 241              		.file 3 "C:/Program Files (x86)/Arm GNU Toolchain arm-none-eabi/14.3 rel1/arm-none-eabi/include/sy
 242              		.file 4 "<built-in>"