ARM GAS  C:\msys64\tmp\cc7cGK0t.s 			page 1


   1              		.cpu cortex-m4
   2              		.arch armv7e-m
   3              		.fpu fpv4-sp-d16
   4              		.eabi_attribute 27, 1
   5              		.eabi_attribute 28, 1
   6              		.eabi_attribute 23, 1
   7              		.eabi_attribute 24, 1
   8              		.eabi_attribute 25, 1
   9              		.eabi_attribute 26, 1
  10              		.eabi_attribute 30, 2
  11              		.eabi_attribute 34, 1
  12              		.eabi_attribute 18, 4
  13              		.file	"data_storage.c"
  14              		.text
  15              	.Ltext0:
  16              		.cfi_sections	.debug_frame
  17              		.file 1 "data_storage.c"
  18              		.section	.text.config_save,"ax",%progbits
  19              		.align	1
  20              		.p2align 4,,15
  21              		.global	config_save
  22              		.syntax unified
  23              		.thumb
  24              		.thumb_func
  25              		.type	config_save, %function
  26              	config_save:
  27              	.LFB242:
  28              		.loc 1 48 23 view -0
  29              		.cfi_startproc
  30              		@ args = 0, pretend = 0, frame = 0
  31              		@ frame_needed = 0, uses_anonymous_args = 0
  32              		.loc 1 50 3 view .LVU1
  33              		.loc 1 48 23 is_stmt 0 view .LVU2
  34 0000 38B5     		push	{r3, r4, r5, lr}
  35              		.cfi_def_cfa_offset 16
  36              		.cfi_offset 3, -16
  37              		.cfi_offset 4, -12
  38              		.cfi_offset 5, -8
  39              		.cfi_offset 14, -4
  40              		.loc 1 50 16 view .LVU3
  41 0002 0A4D     		ldr	r5, .L6
  42 0004 0A4B     		ldr	r3, .L6+4
  43 0006 2B60     		str	r3, [r5]
  44              		.loc 1 51 3 is_stmt 1 view .LVU4
  45              	.LVL0:
  46              	.LBB8:
  47              	.LBI8:
  48              		.loc 1 38 17 view .LVU5
  49              	.LBB9:
  50              		.loc 1 39 3 view .LVU6
  51              		.loc 1 40 3 view .LVU7
  52              		.loc 1 42 3 view .LVU8
  53              		.loc 1 43 3 view .LVU9
  54              		.loc 1 43 16 view .LVU10
  55              		.loc 1 40 12 is_stmt 0 view .LVU11
  56 0008 0024     		movs	r4, #0
  57              		.loc 1 39 13 view .LVU12
ARM GAS  C:\msys64\tmp\cc7cGK0t.s 			page 2


  58 000a 2B46     		mov	r3, r5
  59 000c 05F17001 		add	r1, r5, #112
  60              	.LVL1:
  61              	.L2:
  62              		.loc 1 44 5 is_stmt 1 view .LVU13
  63              	.LBB10:
  64              	.LBI10:
  65              		.file 2 "ChibiOS/os/common/ext/CMSIS/include/core_cmInstr.h"
  66              		.loc 2 557 57 view .LVU14
  67              	.LBB11:
  68              		.loc 2 559 3 view .LVU15
  69              		.loc 2 559 3 is_stmt 0 view .LVU16
  70              	.LBE11:
  71              	.LBE10:
  72              		.loc 1 44 11 discriminator 1 view .LVU17
  73 0010 53F8042B 		ldr	r2, [r3], #4
  74              	.LVL2:
  75              		.loc 1 43 16 view .LVU18
  76 0014 8B42     		cmp	r3, r1
  77              		.loc 1 44 11 discriminator 1 view .LVU19
  78 0016 02EBF474 		add	r4, r2, r4, ror #31
  79              	.LVL3:
  80              		.loc 1 43 16 is_stmt 1 view .LVU20
  81 001a F9D1     		bne	.L2
  82              		.loc 1 45 3 view .LVU21
  83              	.LVL4:
  84              		.loc 1 45 3 is_stmt 0 view .LVU22
  85              	.LBE9:
  86              	.LBE8:
  87              		.loc 1 54 3 view .LVU23
  88 001c 0349     		ldr	r1, .L6
  89 001e 0548     		ldr	r0, .L6+8
  90              		.loc 1 51 19 discriminator 1 view .LVU24
  91 0020 2C67     		str	r4, [r5, #112]
  92              		.loc 1 54 3 is_stmt 1 view .LVU25
  93 0022 7422     		movs	r2, #116
  94 0024 FFF7FEFF 		bl	flash_program_half_word_buffer
  95              	.LVL5:
  96              		.loc 1 55 3 view .LVU26
  97              		.loc 1 56 1 is_stmt 0 view .LVU27
  98 0028 0020     		movs	r0, #0
  99 002a 38BD     		pop	{r3, r4, r5, pc}
 100              	.L7:
 101              		.align	2
 102              	.L6:
 103 002c 00000000 		.word	config
 104 0030 564E4F43 		.word	1129270870
 105 0034 00F80308 		.word	134477824
 106              		.cfi_endproc
 107              	.LFE242:
 108              		.size	config_save, .-config_save
 109              		.section	.text.config_recall,"ax",%progbits
 110              		.align	1
 111              		.p2align 4,,15
 112              		.global	config_recall
 113              		.syntax unified
 114              		.thumb
ARM GAS  C:\msys64\tmp\cc7cGK0t.s 			page 3


 115              		.thumb_func
 116              		.type	config_recall, %function
 117              	config_recall:
 118              	.LFB243:
 119              		.loc 1 58 25 is_stmt 1 view -0
 120              		.cfi_startproc
 121              		@ args = 0, pretend = 0, frame = 0
 122              		@ frame_needed = 0, uses_anonymous_args = 0
 123              		.loc 1 59 3 view .LVU29
 124              	.LVL6:
 125              		.loc 1 61 3 view .LVU30
 126              		.loc 1 58 25 is_stmt 0 view .LVU31
 127 0000 08B5     		push	{r3, lr}
 128              		.cfi_def_cfa_offset 8
 129              		.cfi_offset 3, -8
 130              		.cfi_offset 14, -4
 131              		.loc 1 61 10 view .LVU32
 132 0002 0D4B     		ldr	r3, .L15
 133              		.loc 1 61 6 view .LVU33
 134 0004 0D4A     		ldr	r2, .L15+4
 135 0006 1968     		ldr	r1, [r3]
 136 0008 9142     		cmp	r1, r2
 137 000a 12D1     		bne	.L12
 138              	.LBB16:
 139              	.LBB17:
 140              		.loc 1 43 16 view .LVU34
 141 000c 0C48     		ldr	r0, .L15+8
 142              		.loc 1 40 12 view .LVU35
 143 000e 0022     		movs	r2, #0
 144              	.L10:
 145              	.LVL7:
 146              		.loc 1 44 5 is_stmt 1 view .LVU36
 147              	.LBB18:
 148              	.LBI18:
 149              		.loc 2 557 57 view .LVU37
 150              	.LBB19:
 151              		.loc 2 559 3 view .LVU38
 152              		.loc 2 559 3 is_stmt 0 view .LVU39
 153 0010 1946     		mov	r1, r3
 154              	.LBE19:
 155              	.LBE18:
 156              		.loc 1 44 34 discriminator 1 view .LVU40
 157 0012 0433     		adds	r3, r3, #4
 158              	.LVL8:
 159              		.loc 1 44 11 discriminator 1 view .LVU41
 160 0014 0968     		ldr	r1, [r1]
 161              		.loc 1 43 16 view .LVU42
 162 0016 8342     		cmp	r3, r0
 163              		.loc 1 44 11 discriminator 1 view .LVU43
 164 0018 01EBF272 		add	r2, r1, r2, ror #31
 165              	.LVL9:
 166              		.loc 1 43 16 is_stmt 1 view .LVU44
 167 001c F8D1     		bne	.L10
 168              		.loc 1 45 3 view .LVU45
 169              	.LVL10:
 170              		.loc 1 45 3 is_stmt 0 view .LVU46
 171              	.LBE17:
ARM GAS  C:\msys64\tmp\cc7cGK0t.s 			page 4


 172              	.LBE16:
 173              		.loc 1 61 93 discriminator 1 view .LVU47
 174 001e 0649     		ldr	r1, .L15
 175              		.loc 1 61 34 discriminator 1 view .LVU48
 176 0020 0B6F     		ldr	r3, [r1, #112]
 177 0022 9342     		cmp	r3, r2
 178 0024 05D1     		bne	.L12
 179              		.loc 1 64 3 is_stmt 1 view .LVU49
 180 0026 7422     		movs	r2, #116
 181 0028 0648     		ldr	r0, .L15+12
 182 002a FFF7FEFF 		bl	memcpy
 183              	.LVL11:
 184              		.loc 1 65 3 view .LVU50
 185              		.loc 1 65 10 is_stmt 0 view .LVU51
 186 002e 0020     		movs	r0, #0
 187              		.loc 1 66 1 view .LVU52
 188 0030 08BD     		pop	{r3, pc}
 189              	.L12:
 190              		.loc 1 62 12 view .LVU53
 191 0032 4FF0FF30 		mov	r0, #-1
 192              		.loc 1 66 1 view .LVU54
 193 0036 08BD     		pop	{r3, pc}
 194              	.L16:
 195              		.align	2
 196              	.L15:
 197 0038 00F80308 		.word	134477824
 198 003c 564E4F43 		.word	1129270870
 199 0040 70F80308 		.word	134477936
 200 0044 00000000 		.word	config
 201              		.cfi_endproc
 202              	.LFE243:
 203              		.size	config_recall, .-config_recall
 204              		.section	.text.caldata_save,"ax",%progbits
 205              		.align	1
 206              		.p2align 4,,15
 207              		.global	caldata_save
 208              		.syntax unified
 209              		.thumb
 210              		.thumb_func
 211              		.type	caldata_save, %function
 212              	caldata_save:
 213              	.LVL12:
 214              	.LFB244:
 215              		.loc 1 68 31 is_stmt 1 view -0
 216              		.cfi_startproc
 217              		@ args = 0, pretend = 0, frame = 0
 218              		@ frame_needed = 0, uses_anonymous_args = 0
 219              		.loc 1 69 3 view .LVU56
 220              		.loc 1 69 6 is_stmt 0 view .LVU57
 221 0000 0628     		cmp	r0, #6
 222 0002 1DD8     		bhi	.L20
 223              		.loc 1 68 31 view .LVU58
 224 0004 38B5     		push	{r3, r4, r5, lr}
 225              		.cfi_def_cfa_offset 16
 226              		.cfi_offset 3, -16
 227              		.cfi_offset 4, -12
 228              		.cfi_offset 5, -8
ARM GAS  C:\msys64\tmp\cc7cGK0t.s 			page 5


 229              		.cfi_offset 14, -4
 230              		.loc 1 73 23 view .LVU59
 231 0006 104B     		ldr	r3, .L26
 232 0008 104A     		ldr	r2, .L26+4
 233 000a 114C     		ldr	r4, .L26+8
 234 000c 1A60     		str	r2, [r3]
 235 000e 0546     		mov	r5, r0
 236              		.loc 1 73 3 is_stmt 1 view .LVU60
 237              		.loc 1 74 3 view .LVU61
 238              	.LVL13:
 239              	.LBB26:
 240              	.LBI26:
 241              		.loc 1 38 17 view .LVU62
 242              	.LBB27:
 243              		.loc 1 39 3 view .LVU63
 244              		.loc 1 40 3 view .LVU64
 245              		.loc 1 42 3 view .LVU65
 246              		.loc 1 43 3 view .LVU66
 247              		.loc 1 43 16 view .LVU67
 248              		.loc 1 40 12 is_stmt 0 view .LVU68
 249 0010 0022     		movs	r2, #0
 250              	.LVL14:
 251              	.L19:
 252              		.loc 1 44 5 is_stmt 1 view .LVU69
 253              	.LBB28:
 254              	.LBI28:
 255              		.loc 2 557 57 view .LVU70
 256              	.LBB29:
 257              		.loc 2 559 3 view .LVU71
 258              		.loc 2 559 3 is_stmt 0 view .LVU72
 259              	.LBE29:
 260              	.LBE28:
 261              		.loc 1 44 11 discriminator 1 view .LVU73
 262 0012 53F8041B 		ldr	r1, [r3], #4
 263              	.LVL15:
 264              		.loc 1 43 16 view .LVU74
 265 0016 A342     		cmp	r3, r4
 266              		.loc 1 44 11 discriminator 1 view .LVU75
 267 0018 01EBF272 		add	r2, r1, r2, ror #31
 268              	.LVL16:
 269              		.loc 1 43 16 is_stmt 1 view .LVU76
 270 001c F9D1     		bne	.L19
 271              		.loc 1 45 3 view .LVU77
 272              	.LVL17:
 273              		.loc 1 45 3 is_stmt 0 view .LVU78
 274              	.LBE27:
 275              	.LBE26:
 276              	.LBB30:
 277              	.LBB31:
 278              		.loc 1 35 32 view .LVU79
 279 001e 0D4B     		ldr	r3, .L26+12
 280              	.LBE31:
 281              	.LBE30:
 282              		.loc 1 74 26 discriminator 1 view .LVU80
 283 0020 0D49     		ldr	r1, .L26+16
 284              	.LBB34:
 285              	.LBB32:
ARM GAS  C:\msys64\tmp\cc7cGK0t.s 			page 6


 286              		.loc 1 35 32 view .LVU81
 287 0022 28B2     		sxth	r0, r5
 288              	.LVL18:
 289              		.loc 1 35 32 view .LVU82
 290              	.LBE32:
 291              	.LBE34:
 292              		.loc 1 78 3 view .LVU83
 293 0024 03EB8030 		add	r0, r3, r0, lsl #14
 294              		.loc 1 74 26 discriminator 1 view .LVU84
 295 0028 C1F8782F 		str	r2, [r1, #3960]
 296              		.loc 1 77 3 is_stmt 1 view .LVU85
 297              	.LVL19:
 298              	.LBB35:
 299              	.LBI30:
 300              		.loc 1 34 17 view .LVU86
 301              	.LBB33:
 302              		.loc 1 35 3 view .LVU87
 303              		.loc 1 35 3 is_stmt 0 view .LVU88
 304              	.LBE33:
 305              	.LBE35:
 306              		.loc 1 78 3 is_stmt 1 view .LVU89
 307 002c A1F54051 		sub	r1, r1, #12288
 308 0030 43F67C72 		movw	r2, #16252
 309 0034 FFF7FEFF 		bl	flash_program_half_word_buffer
 310              	.LVL20:
 311              		.loc 1 80 3 view .LVU90
 312              		.loc 1 80 14 is_stmt 0 view .LVU91
 313 0038 084B     		ldr	r3, .L26+20
 314              		.loc 1 81 10 view .LVU92
 315 003a 0020     		movs	r0, #0
 316              		.loc 1 80 14 view .LVU93
 317 003c 1D80     		strh	r5, [r3]	@ movhi
 318              		.loc 1 81 3 is_stmt 1 view .LVU94
 319              		.loc 1 82 1 is_stmt 0 view .LVU95
 320 003e 38BD     		pop	{r3, r4, r5, pc}
 321              	.LVL21:
 322              	.L20:
 323              		.cfi_def_cfa_offset 0
 324              		.cfi_restore 3
 325              		.cfi_restore 4
 326              		.cfi_restore 5
 327              		.cfi_restore 14
 328              		.loc 1 70 12 view .LVU96
 329 0040 4FF0FF30 		mov	r0, #-1
 330              	.LVL22:
 331              		.loc 1 82 1 view .LVU97
 332 0044 7047     		bx	lr
 333              	.L27:
 334 0046 00BF     		.align	2
 335              	.L26:
 336 0048 00000000 		.word	current_props
 337 004c 544E4F43 		.word	1129270868
 338 0050 783F0000 		.word	current_props+16248
 339 0054 00380208 		.word	134363136
 340 0058 00300000 		.word	current_props+12288
 341 005c 00000000 		.word	lastsaveid
 342              		.cfi_endproc
ARM GAS  C:\msys64\tmp\cc7cGK0t.s 			page 7


 343              	.LFE244:
 344              		.size	caldata_save, .-caldata_save
 345              		.section	.text.get_properties,"ax",%progbits
 346              		.align	1
 347              		.p2align 4,,15
 348              		.global	get_properties
 349              		.syntax unified
 350              		.thumb
 351              		.thumb_func
 352              		.type	get_properties, %function
 353              	get_properties:
 354              	.LVL23:
 355              	.LFB245:
 356              		.loc 1 84 50 is_stmt 1 view -0
 357              		.cfi_startproc
 358              		@ args = 0, pretend = 0, frame = 0
 359              		@ frame_needed = 0, uses_anonymous_args = 0
 360              		.loc 1 85 3 view .LVU99
 361              		.loc 1 85 6 is_stmt 0 view .LVU100
 362 0000 0628     		cmp	r0, #6
 363 0002 2BD8     		bhi	.L33
 364              		.loc 1 88 3 is_stmt 1 view .LVU101
 365              		.loc 1 84 50 is_stmt 0 view .LVU102
 366 0004 30B5     		push	{r4, r5, lr}
 367              		.cfi_def_cfa_offset 12
 368              		.cfi_offset 4, -12
 369              		.cfi_offset 5, -8
 370              		.cfi_offset 14, -4
 371              		.loc 1 90 7 view .LVU103
 372 0006 164D     		ldr	r5, .L41
 373              	.LBB42:
 374              	.LBB43:
 375              		.loc 1 35 32 view .LVU104
 376 0008 164A     		ldr	r2, .L41+4
 377              	.LBE43:
 378              	.LBE42:
 379              		.loc 1 90 7 view .LVU105
 380 000a 95F800E0 		ldrb	lr, [r5]	@ zero_extendqisi2
 381 000e 0146     		mov	r1, r0
 382              	.LVL24:
 383              	.LBB45:
 384              	.LBI42:
 385              		.loc 1 34 17 is_stmt 1 view .LVU106
 386              	.LBB44:
 387              		.loc 1 35 3 view .LVU107
 388              		.loc 1 35 32 is_stmt 0 view .LVU108
 389 0010 4FF48040 		mov	r0, #16384
 390              	.LVL25:
 391              		.loc 1 35 32 view .LVU109
 392 0014 11FB0020 		smlabb	r0, r1, r0, r2
 393              	.LVL26:
 394              		.loc 1 35 32 view .LVU110
 395              	.LBE44:
 396              	.LBE45:
 397              		.loc 1 90 3 is_stmt 1 view .LVU111
 398              		.loc 1 90 7 is_stmt 0 view .LVU112
 399 0018 4EFA01F2 		asr	r2, lr, r1
ARM GAS  C:\msys64\tmp\cc7cGK0t.s 			page 8


 400              		.loc 1 90 6 view .LVU113
 401 001c 12F00102 		ands	r2, r2, #1
 402 0020 19D1     		bne	.L28
 403              		.loc 1 92 3 is_stmt 1 view .LVU114
 404              		.loc 1 92 6 is_stmt 0 view .LVU115
 405 0022 114B     		ldr	r3, .L41+8
 406 0024 0468     		ldr	r4, [r0]
 407 0026 9C42     		cmp	r4, r3
 408 0028 16D1     		bne	.L35
 409 002a 104B     		ldr	r3, .L41+12
 410 002c 03EB813C 		add	ip, r3, r1, lsl #14
 411              	.LBB46:
 412              	.LBB47:
 413              		.loc 1 39 13 view .LVU116
 414 0030 0346     		mov	r3, r0
 415              	.L31:
 416              	.LVL27:
 417              		.loc 1 44 5 is_stmt 1 view .LVU117
 418              	.LBB48:
 419              	.LBI48:
 420              		.loc 2 557 57 view .LVU118
 421              	.LBB49:
 422              		.loc 2 559 3 view .LVU119
 423              		.loc 2 559 3 is_stmt 0 view .LVU120
 424 0032 1C46     		mov	r4, r3
 425              	.LBE49:
 426              	.LBE48:
 427              		.loc 1 44 34 discriminator 1 view .LVU121
 428 0034 0433     		adds	r3, r3, #4
 429              	.LVL28:
 430              		.loc 1 44 11 discriminator 1 view .LVU122
 431 0036 2468     		ldr	r4, [r4]
 432              		.loc 1 43 16 view .LVU123
 433 0038 9C45     		cmp	ip, r3
 434              		.loc 1 44 11 discriminator 1 view .LVU124
 435 003a 04EBF272 		add	r2, r4, r2, ror #31
 436              	.LVL29:
 437              		.loc 1 43 16 is_stmt 1 view .LVU125
 438 003e F8D1     		bne	.L31
 439              		.loc 1 45 3 view .LVU126
 440              	.LVL30:
 441              		.loc 1 45 3 is_stmt 0 view .LVU127
 442              	.LBE47:
 443              	.LBE46:
 444              		.loc 1 92 97 discriminator 1 view .LVU128
 445 0040 00F54053 		add	r3, r0, #12288
 446              		.loc 1 92 38 discriminator 1 view .LVU129
 447 0044 D3F8783F 		ldr	r3, [r3, #3960]
 448 0048 9342     		cmp	r3, r2
 449 004a 05D1     		bne	.L35
 450              		.loc 1 94 3 is_stmt 1 view .LVU130
 451              		.loc 1 94 17 is_stmt 0 view .LVU131
 452 004c 0123     		movs	r3, #1
 453 004e 8B40     		lsls	r3, r3, r1
 454              		.loc 1 94 14 view .LVU132
 455 0050 4EEA0303 		orr	r3, lr, r3
 456 0054 2B70     		strb	r3, [r5]
ARM GAS  C:\msys64\tmp\cc7cGK0t.s 			page 9


 457              		.loc 1 95 3 is_stmt 1 view .LVU133
 458              	.L28:
 459              		.loc 1 96 1 is_stmt 0 view .LVU134
 460 0056 30BD     		pop	{r4, r5, pc}
 461              	.L35:
 462              		.loc 1 86 12 view .LVU135
 463 0058 0020     		movs	r0, #0
 464              	.LVL31:
 465              		.loc 1 96 1 view .LVU136
 466 005a 30BD     		pop	{r4, r5, pc}
 467              	.LVL32:
 468              	.L33:
 469              		.cfi_def_cfa_offset 0
 470              		.cfi_restore 4
 471              		.cfi_restore 5
 472              		.cfi_restore 14
 473              		.loc 1 86 12 view .LVU137
 474 005c 0020     		movs	r0, #0
 475              	.LVL33:
 476              		.loc 1 96 1 view .LVU138
 477 005e 7047     		bx	lr
 478              	.L42:
 479              		.align	2
 480              	.L41:
 481 0060 00000000 		.word	checksum_ok
 482 0064 00380208 		.word	134363136
 483 0068 544E4F43 		.word	1129270868
 484 006c 78770208 		.word	134379384
 485              		.cfi_endproc
 486              	.LFE245:
 487              		.size	get_properties, .-get_properties
 488              		.section	.text.caldata_recall,"ax",%progbits
 489              		.align	1
 490              		.p2align 4,,15
 491              		.global	caldata_recall
 492              		.syntax unified
 493              		.thumb
 494              		.thumb_func
 495              		.type	caldata_recall, %function
 496              	caldata_recall:
 497              	.LVL34:
 498              	.LFB246:
 499              		.loc 1 98 33 is_stmt 1 view -0
 500              		.cfi_startproc
 501              		@ args = 0, pretend = 0, frame = 0
 502              		@ frame_needed = 0, uses_anonymous_args = 0
 503              		.loc 1 99 3 view .LVU140
 504              		.loc 1 98 33 is_stmt 0 view .LVU141
 505 0000 38B5     		push	{r3, r4, r5, lr}
 506              		.cfi_def_cfa_offset 16
 507              		.cfi_offset 3, -16
 508              		.cfi_offset 4, -12
 509              		.cfi_offset 5, -8
 510              		.cfi_offset 14, -4
 511              		.loc 1 99 14 view .LVU142
 512 0002 4FF6FF73 		movw	r3, #65535
 513 0006 094D     		ldr	r5, .L48
ARM GAS  C:\msys64\tmp\cc7cGK0t.s 			page 10


 514              		.loc 1 100 6 view .LVU143
 515 0008 9842     		cmp	r0, r3
 516              		.loc 1 99 14 view .LVU144
 517 000a 2B80     		strh	r3, [r5]	@ movhi
 518              		.loc 1 100 3 is_stmt 1 view .LVU145
 519              		.loc 1 100 6 is_stmt 0 view .LVU146
 520 000c 0AD0     		beq	.L44
 521              		.loc 1 103 3 is_stmt 1 view .LVU147
 522 000e 0446     		mov	r4, r0
 523              		.loc 1 103 29 is_stmt 0 view .LVU148
 524 0010 FFF7FEFF 		bl	get_properties
 525              	.LVL35:
 526              		.loc 1 104 3 is_stmt 1 view .LVU149
 527              		.loc 1 104 6 is_stmt 0 view .LVU150
 528 0014 0146     		mov	r1, r0
 529 0016 38B1     		cbz	r0, .L46
 530              		.loc 1 109 3 is_stmt 1 view .LVU151
 531              		.loc 1 111 3 is_stmt 0 view .LVU152
 532 0018 0548     		ldr	r0, .L48+4
 533              	.LVL36:
 534              		.loc 1 109 14 view .LVU153
 535 001a 2C80     		strh	r4, [r5]	@ movhi
 536              		.loc 1 111 3 is_stmt 1 view .LVU154
 537 001c 43F67C72 		movw	r2, #16252
 538 0020 FFF7FEFF 		bl	memcpy
 539              	.LVL37:
 540              		.loc 1 112 3 view .LVU155
 541              	.L44:
 542              		.loc 1 101 12 is_stmt 0 view .LVU156
 543 0024 0020     		movs	r0, #0
 544              		.loc 1 113 1 view .LVU157
 545 0026 38BD     		pop	{r3, r4, r5, pc}
 546              	.LVL38:
 547              	.L46:
 548              		.loc 1 106 12 view .LVU158
 549 0028 0120     		movs	r0, #1
 550              	.LVL39:
 551              		.loc 1 113 1 view .LVU159
 552 002a 38BD     		pop	{r3, r4, r5, pc}
 553              	.LVL40:
 554              	.L49:
 555              		.loc 1 113 1 view .LVU160
 556              		.align	2
 557              	.L48:
 558 002c 00000000 		.word	lastsaveid
 559 0030 00000000 		.word	current_props
 560              		.cfi_endproc
 561              	.LFE246:
 562              		.size	caldata_recall, .-caldata_recall
 563              		.section	.text.clear_all_config_prop_data,"ax",%progbits
 564              		.align	1
 565              		.p2align 4,,15
 566              		.global	clear_all_config_prop_data
 567              		.syntax unified
 568              		.thumb
 569              		.thumb_func
 570              		.type	clear_all_config_prop_data, %function
ARM GAS  C:\msys64\tmp\cc7cGK0t.s 			page 11


 571              	clear_all_config_prop_data:
 572              	.LFB247:
 573              		.loc 1 115 39 is_stmt 1 view -0
 574              		.cfi_startproc
 575              		@ args = 0, pretend = 0, frame = 0
 576              		@ frame_needed = 0, uses_anonymous_args = 0
 577              		@ link register save eliminated.
 578              		.loc 1 116 3 view .LVU162
 579              		.loc 1 117 15 is_stmt 0 view .LVU163
 580 0000 074B     		ldr	r3, .L52
 581              		.loc 1 119 3 view .LVU164
 582 0002 0848     		ldr	r0, .L52+4
 583              		.loc 1 115 39 view .LVU165
 584 0004 10B4     		push	{r4}
 585              		.cfi_def_cfa_offset 4
 586              		.cfi_offset 4, -4
 587              		.loc 1 117 15 view .LVU166
 588 0006 0022     		movs	r2, #0
 589              		.loc 1 116 14 view .LVU167
 590 0008 074C     		ldr	r4, .L52+8
 591              		.loc 1 117 15 view .LVU168
 592 000a 1A70     		strb	r2, [r3]
 593              		.loc 1 116 14 view .LVU169
 594 000c 4FF6FF7C 		movw	ip, #65535
 595 0010 A4F800C0 		strh	ip, [r4]	@ movhi
 596              		.loc 1 117 3 is_stmt 1 view .LVU170
 597              		.loc 1 119 3 view .LVU171
 598 0014 4FF4E431 		mov	r1, #116736
 599              		.loc 1 120 1 is_stmt 0 view .LVU172
 600 0018 5DF8044B 		ldr	r4, [sp], #4
 601              		.cfi_restore 4
 602              		.cfi_def_cfa_offset 0
 603              		.loc 1 119 3 view .LVU173
 604 001c FFF7FEBF 		b	flash_erase_pages
 605              	.LVL41:
 606              	.L53:
 607              		.align	2
 608              	.L52:
 609 0020 00000000 		.word	checksum_ok
 610 0024 00380208 		.word	134363136
 611 0028 00000000 		.word	lastsaveid
 612              		.cfi_endproc
 613              	.LFE247:
 614              		.size	clear_all_config_prop_data, .-clear_all_config_prop_data
 615              		.section	.bss.checksum_ok,"aw",%nobits
 616              		.type	checksum_ok, %object
 617              		.size	checksum_ok, 1
 618              	checksum_ok:
 619 0000 00       		.space	1
 620              		.global	lastsaveid
 621              		.section	.bss.lastsaveid,"aw",%nobits
 622              		.align	1
 623              		.type	lastsaveid, %object
 624              		.size	lastsaveid, 2
 625              	lastsaveid:
 626 0000 0000     		.space	2
 627              		.text
ARM GAS  C:\msys64\tmp\cc7cGK0t.s 			page 12


 628              	.Letext0:
 629              		.file 3 "C:/Program Files (x86)/Arm GNU Toolchain arm-none-eabi/14.3 rel1/lib/gcc/arm-none-eabi/14
 630              		.file 4 "C:/Program Files (x86)/Arm GNU Toolchain arm-none-eabi/14.3 rel1/arm-none-eabi/include/ma
 631              		.file 5 "C:/Program Files (x86)/Arm GNU Toolchain arm-none-eabi/14.3 rel1/arm-none-eabi/include/sy
 632              		.file 6 "nanovna.h"
 633              		.file 7 "hardware.h"
 634              		.file 8 "C:/Program Files (x86)/Arm GNU Toolchain arm-none-eabi/14.3 rel1/arm-none-eabi/include/st
 635              		.file 9 "<built-in>"