ARM GAS  C:\msys64\tmp\ccrvwsPm.s 			page 1


   1              		.cpu cortex-m4
   2              		.arch armv7e-m
   3              		.fpu fpv4-sp-d16
   4              		.eabi_attribute 27, 1
   5              		.eabi_attribute 28, 1
   6              		.eabi_attribute 23, 1
   7              		.eabi_attribute 24, 1
   8              		.eabi_attribute 25, 1
   9              		.eabi_attribute 26, 1
  10              		.eabi_attribute 30, 2
  11              		.eabi_attribute 34, 1
  12              		.eabi_attribute 18, 4
  13              		.file	"hal_serial.c"
  14              		.text
  15              	.Ltext0:
  16              		.cfi_sections	.debug_frame
  17              		.file 1 "ChibiOS/os/hal/src/hal_serial.c"
  18              		.section	.text.get,"ax",%progbits
  19              		.align	1
  20              		.p2align 4,,15
  21              		.syntax unified
  22              		.thumb
  23              		.thumb_func
  24              		.type	get, %function
  25              	get:
  26              	.LVL0:
  27              	.LFB236:
  28              		.loc 1 68 28 view -0
  29              		.cfi_startproc
  30              		@ args = 0, pretend = 0, frame = 0
  31              		@ frame_needed = 0, uses_anonymous_args = 0
  32              		@ link register save eliminated.
  33              		.loc 1 70 3 view .LVU1
  34              		.loc 1 70 10 is_stmt 0 view .LVU2
  35 0000 4FF0FF31 		mov	r1, #-1
  36 0004 0830     		adds	r0, r0, #8
  37              	.LVL1:
  38              		.loc 1 70 10 view .LVU3
  39 0006 FFF7FEBF 		b	iqGetTimeout
  40              	.LVL2:
  41              		.loc 1 70 10 view .LVU4
  42              		.cfi_endproc
  43              	.LFE236:
  44              		.size	get, .-get
  45 000a 00BF     		.section	.text.put,"ax",%progbits
  46              		.align	1
  47              		.p2align 4,,15
  48              		.syntax unified
  49              		.thumb
  50              		.thumb_func
  51              		.type	put, %function
  52              	put:
  53              	.LVL3:
  54              	.LFB235:
  55              		.loc 1 63 39 is_stmt 1 view -0
  56              		.cfi_startproc
  57              		@ args = 0, pretend = 0, frame = 0
ARM GAS  C:\msys64\tmp\ccrvwsPm.s 			page 2


  58              		@ frame_needed = 0, uses_anonymous_args = 0
  59              		@ link register save eliminated.
  60              		.loc 1 65 3 view .LVU6
  61              		.loc 1 65 10 is_stmt 0 view .LVU7
  62 0000 4FF0FF32 		mov	r2, #-1
  63 0004 2830     		adds	r0, r0, #40
  64              	.LVL4:
  65              		.loc 1 65 10 view .LVU8
  66 0006 FFF7FEBF 		b	oqPutTimeout
  67              	.LVL5:
  68              		.loc 1 65 10 view .LVU9
  69              		.cfi_endproc
  70              	.LFE235:
  71              		.size	put, .-put
  72 000a 00BF     		.section	.text.read,"ax",%progbits
  73              		.align	1
  74              		.p2align 4,,15
  75              		.syntax unified
  76              		.thumb
  77              		.thumb_func
  78              		.type	read, %function
  79              	read:
  80              	.LVL6:
  81              	.LFB234:
  82              		.loc 1 57 53 is_stmt 1 view -0
  83              		.cfi_startproc
  84              		@ args = 0, pretend = 0, frame = 0
  85              		@ frame_needed = 0, uses_anonymous_args = 0
  86              		@ link register save eliminated.
  87              		.loc 1 59 3 view .LVU11
  88              		.loc 1 59 10 is_stmt 0 view .LVU12
  89 0000 4FF0FF33 		mov	r3, #-1
  90 0004 0830     		adds	r0, r0, #8
  91              	.LVL7:
  92              		.loc 1 59 10 view .LVU13
  93 0006 FFF7FEBF 		b	iqReadTimeout
  94              	.LVL8:
  95              		.loc 1 59 10 view .LVU14
  96              		.cfi_endproc
  97              	.LFE234:
  98              		.size	read, .-read
  99 000a 00BF     		.section	.text.write,"ax",%progbits
 100              		.align	1
 101              		.p2align 4,,15
 102              		.syntax unified
 103              		.thumb
 104              		.thumb_func
 105              		.type	write, %function
 106              	write:
 107              	.LVL9:
 108              	.LFB233:
 109              		.loc 1 51 60 is_stmt 1 view -0
 110              		.cfi_startproc
 111              		@ args = 0, pretend = 0, frame = 0
 112              		@ frame_needed = 0, uses_anonymous_args = 0
 113              		@ link register save eliminated.
 114              		.loc 1 53 3 view .LVU16
ARM GAS  C:\msys64\tmp\ccrvwsPm.s 			page 3


 115              		.loc 1 53 10 is_stmt 0 view .LVU17
 116 0000 4FF0FF33 		mov	r3, #-1
 117 0004 2830     		adds	r0, r0, #40
 118              	.LVL10:
 119              		.loc 1 53 10 view .LVU18
 120 0006 FFF7FEBF 		b	oqWriteTimeout
 121              	.LVL11:
 122              		.loc 1 53 10 view .LVU19
 123              		.cfi_endproc
 124              	.LFE233:
 125              		.size	write, .-write
 126 000a 00BF     		.section	.text.sdInit,"ax",%progbits
 127              		.align	1
 128              		.p2align 4,,15
 129              		.global	sdInit
 130              		.syntax unified
 131              		.thumb
 132              		.thumb_func
 133              		.type	sdInit, %function
 134              	sdInit:
 135              	.LFB237:
 136              		.loc 1 115 19 is_stmt 1 view -0
 137              		.cfi_startproc
 138              		@ args = 0, pretend = 0, frame = 0
 139              		@ frame_needed = 0, uses_anonymous_args = 0
 140              		@ link register save eliminated.
 141              		.loc 1 117 3 view .LVU21
 142 0000 FFF7FEBF 		b	sd_lld_init
 143              	.LVL12:
 144              		.cfi_endproc
 145              	.LFE237:
 146              		.size	sdInit, .-sdInit
 147              		.section	.text.sdObjectInit,"ax",%progbits
 148              		.align	1
 149              		.p2align 4,,15
 150              		.global	sdObjectInit
 151              		.syntax unified
 152              		.thumb
 153              		.thumb_func
 154              		.type	sdObjectInit, %function
 155              	sdObjectInit:
 156              	.LVL13:
 157              	.LFB238:
 158              		.loc 1 135 76 view -0
 159              		.cfi_startproc
 160              		@ args = 0, pretend = 0, frame = 0
 161              		@ frame_needed = 0, uses_anonymous_args = 0
 162              		.loc 1 136 3 view .LVU23
 163              		.loc 1 135 76 is_stmt 0 view .LVU24
 164 0000 70B5     		push	{r4, r5, r6, lr}
 165              		.cfi_def_cfa_offset 16
 166              		.cfi_offset 4, -16
 167              		.cfi_offset 5, -12
 168              		.cfi_offset 6, -8
 169              		.cfi_offset 14, -4
 170              		.loc 1 135 76 view .LVU25
 171 0002 0446     		mov	r4, r0
ARM GAS  C:\msys64\tmp\ccrvwsPm.s 			page 4


 172 0004 0B46     		mov	r3, r1
 173              		.loc 1 136 12 view .LVU26
 174 0006 0B48     		ldr	r0, .L9
 175              	.LVL14:
 176              		.loc 1 136 12 view .LVU27
 177 0008 2060     		str	r0, [r4]
 178              		.loc 1 138 3 is_stmt 1 view .LVU28
 179              		.loc 1 138 14 is_stmt 0 view .LVU29
 180 000a 0121     		movs	r1, #1
 181              	.LVL15:
 182              		.loc 1 135 76 view .LVU30
 183 000c 1546     		mov	r5, r2
 184              		.loc 1 138 14 view .LVU31
 185 000e 2171     		strb	r1, [r4, #4]
 186              		.loc 1 139 3 is_stmt 1 view .LVU32
 187 0010 04F10800 		add	r0, r4, #8
 188 0014 04F14801 		add	r1, r4, #72
 189 0018 4022     		movs	r2, #64
 190              	.LVL16:
 191              		.loc 1 139 3 is_stmt 0 view .LVU33
 192 001a FFF7FEFF 		bl	qObjectInit
 193              	.LVL17:
 194              		.loc 1 140 3 is_stmt 1 view .LVU34
 195 001e 2B46     		mov	r3, r5
 196 0020 04F18801 		add	r1, r4, #136
 197 0024 04F12800 		add	r0, r4, #40
 198 0028 4022     		movs	r2, #64
 199              		.loc 1 141 1 is_stmt 0 view .LVU35
 200 002a BDE87040 		pop	{r4, r5, r6, lr}
 201              		.cfi_restore 14
 202              		.cfi_restore 6
 203              		.cfi_restore 5
 204              		.cfi_restore 4
 205              		.cfi_def_cfa_offset 0
 206              	.LVL18:
 207              		.loc 1 140 3 view .LVU36
 208 002e FFF7FEBF 		b	qObjectInit
 209              	.LVL19:
 210              	.L10:
 211              		.loc 1 140 3 view .LVU37
 212 0032 00BF     		.align	2
 213              	.L9:
 214 0034 00000000 		.word	vmt
 215              		.cfi_endproc
 216              	.LFE238:
 217              		.size	sdObjectInit, .-sdObjectInit
 218              		.section	.text.sdStart,"ax",%progbits
 219              		.align	1
 220              		.p2align 4,,15
 221              		.global	sdStart
 222              		.syntax unified
 223              		.thumb
 224              		.thumb_func
 225              		.type	sdStart, %function
 226              	sdStart:
 227              	.LVL20:
 228              	.LFB239:
ARM GAS  C:\msys64\tmp\ccrvwsPm.s 			page 5


 229              		.loc 1 153 61 is_stmt 1 view -0
 230              		.cfi_startproc
 231              		@ args = 0, pretend = 0, frame = 0
 232              		@ frame_needed = 0, uses_anonymous_args = 0
 233              		.loc 1 155 3 view .LVU39
 234              		.loc 1 155 3 view .LVU40
 235              		.loc 1 155 3 view .LVU41
 236              		.loc 1 157 3 view .LVU42
 237              	.LBB78:
 238              	.LBI78:
 239              		.file 2 "ChibiOS/os/hal/osal/rt/osal.h"
 240              		.loc 2 491 20 view .LVU43
 241              		.loc 2 493 3 view .LVU44
 242              	.LBB79:
 243              	.LBI79:
 244              		.file 3 "ChibiOS/os/rt/include/chsys.h"
 245              		.loc 3 374 20 view .LVU45
 246              		.loc 3 376 3 view .LVU46
 247              	.LBB80:
 248              	.LBI80:
 249              		.file 4 "ChibiOS/os/common/ports/ARMCMx/chcore_v7m.h"
 250              		.loc 4 604 20 view .LVU47
 251              		.loc 4 612 3 view .LVU48
 252              	.LBB81:
 253              	.LBI81:
 254              		.file 5 "ChibiOS/os/common/ext/CMSIS/include/core_cmFunc.h"
 255              		.loc 5 546 57 view .LVU49
 256              	.LBB82:
 257              		.loc 5 548 3 view .LVU50
 258              	.LBE82:
 259              	.LBE81:
 260              	.LBE80:
 261              	.LBE79:
 262              	.LBE78:
 263              		.loc 1 153 61 is_stmt 0 view .LVU51
 264 0000 10B5     		push	{r4, lr}
 265              		.cfi_def_cfa_offset 8
 266              		.cfi_offset 4, -8
 267              		.cfi_offset 14, -4
 268              	.LBB91:
 269              	.LBB89:
 270              	.LBB87:
 271              	.LBB85:
 272              	.LBB83:
 273              		.loc 5 548 3 view .LVU52
 274 0002 2023     		movs	r3, #32
 275              	.LBE83:
 276              	.LBE85:
 277              	.LBE87:
 278              	.LBE89:
 279              	.LBE91:
 280              		.loc 1 153 61 view .LVU53
 281 0004 0446     		mov	r4, r0
 282              	.LBB92:
 283              	.LBB90:
 284              	.LBB88:
 285              	.LBB86:
ARM GAS  C:\msys64\tmp\ccrvwsPm.s 			page 6


 286              	.LBB84:
 287              		.loc 5 548 3 view .LVU54
 288              		.syntax unified
 289              	@ 548 "ChibiOS/os/common/ext/CMSIS/include/core_cmFunc.h" 1
 290 0006 83F31188 		MSR basepri, r3
 291              	@ 0 "" 2
 292              	.LVL21:
 293              		.loc 5 548 3 view .LVU55
 294              		.thumb
 295              		.syntax unified
 296              	.LBE84:
 297              	.LBE86:
 298              	.LBE88:
 299              		.loc 3 377 34 is_stmt 1 view .LVU56
 300              		.loc 3 378 20 view .LVU57
 301              	.LBE90:
 302              	.LBE92:
 303              		.loc 1 158 3 view .LVU58
 304              		.loc 1 158 3 view .LVU59
 305              		.loc 1 158 3 view .LVU60
 306              		.loc 1 160 3 view .LVU61
 307 000a FFF7FEFF 		bl	sd_lld_start
 308              	.LVL22:
 309              		.loc 1 161 3 view .LVU62
 310              		.loc 1 161 14 is_stmt 0 view .LVU63
 311 000e 0222     		movs	r2, #2
 312              	.LBB93:
 313              	.LBB94:
 314              	.LBB95:
 315              	.LBB96:
 316              	.LBB97:
 317              	.LBB98:
 318              		.loc 5 548 3 view .LVU64
 319 0010 0023     		movs	r3, #0
 320              	.LBE98:
 321              	.LBE97:
 322              	.LBE96:
 323              	.LBE95:
 324              	.LBE94:
 325              	.LBE93:
 326              		.loc 1 161 14 view .LVU65
 327 0012 2271     		strb	r2, [r4, #4]
 328              		.loc 1 162 3 is_stmt 1 view .LVU66
 329              	.LBB104:
 330              	.LBI93:
 331              		.loc 2 502 20 view .LVU67
 332              		.loc 2 504 3 view .LVU68
 333              	.LBB103:
 334              	.LBI94:
 335              		.loc 3 386 20 view .LVU69
 336              	.LBB102:
 337              		.loc 3 388 22 view .LVU70
 338              		.loc 3 389 33 view .LVU71
 339              		.loc 3 395 3 view .LVU72
 340              		.loc 3 395 3 view .LVU73
 341              		.loc 3 395 3 view .LVU74
 342              		.loc 3 399 3 view .LVU75
ARM GAS  C:\msys64\tmp\ccrvwsPm.s 			page 7


 343              	.LBB101:
 344              	.LBI96:
 345              		.loc 4 628 20 view .LVU76
 346              		.loc 4 631 3 view .LVU77
 347              	.LVL23:
 348              	.LBB100:
 349              	.LBI97:
 350              		.loc 5 546 57 view .LVU78
 351              	.LBB99:
 352              		.loc 5 548 3 view .LVU79
 353              		.syntax unified
 354              	@ 548 "ChibiOS/os/common/ext/CMSIS/include/core_cmFunc.h" 1
 355 0014 83F31188 		MSR basepri, r3
 356              	@ 0 "" 2
 357              	.LVL24:
 358              		.loc 5 548 3 is_stmt 0 view .LVU80
 359              		.thumb
 360              		.syntax unified
 361              	.LBE99:
 362              	.LBE100:
 363              	.LBE101:
 364              	.LBE102:
 365              	.LBE103:
 366              	.LBE104:
 367              		.loc 1 163 1 view .LVU81
 368 0018 10BD     		pop	{r4, pc}
 369              		.loc 1 163 1 view .LVU82
 370              		.cfi_endproc
 371              	.LFE239:
 372              		.size	sdStart, .-sdStart
 373 001a 00BF     		.section	.text.sdStop,"ax",%progbits
 374              		.align	1
 375              		.p2align 4,,15
 376              		.global	sdStop
 377              		.syntax unified
 378              		.thumb
 379              		.thumb_func
 380              		.type	sdStop, %function
 381              	sdStop:
 382              	.LVL25:
 383              	.LFB240:
 384              		.loc 1 174 32 is_stmt 1 view -0
 385              		.cfi_startproc
 386              		@ args = 0, pretend = 0, frame = 0
 387              		@ frame_needed = 0, uses_anonymous_args = 0
 388              		.loc 1 176 3 view .LVU84
 389              		.loc 1 176 3 view .LVU85
 390              		.loc 1 176 3 view .LVU86
 391              		.loc 1 178 3 view .LVU87
 392              	.LBB105:
 393              	.LBI105:
 394              		.loc 2 491 20 view .LVU88
 395              		.loc 2 493 3 view .LVU89
 396              	.LBB106:
 397              	.LBI106:
 398              		.loc 3 374 20 view .LVU90
 399              		.loc 3 376 3 view .LVU91
ARM GAS  C:\msys64\tmp\ccrvwsPm.s 			page 8


 400              	.LBB107:
 401              	.LBI107:
 402              		.loc 4 604 20 view .LVU92
 403              		.loc 4 612 3 view .LVU93
 404              	.LBB108:
 405              	.LBI108:
 406              		.loc 5 546 57 view .LVU94
 407              	.LBB109:
 408              		.loc 5 548 3 view .LVU95
 409              	.LBE109:
 410              	.LBE108:
 411              	.LBE107:
 412              	.LBE106:
 413              	.LBE105:
 414              		.loc 1 174 32 is_stmt 0 view .LVU96
 415 0000 10B5     		push	{r4, lr}
 416              		.cfi_def_cfa_offset 8
 417              		.cfi_offset 4, -8
 418              		.cfi_offset 14, -4
 419              	.LBB118:
 420              	.LBB116:
 421              	.LBB114:
 422              	.LBB112:
 423              	.LBB110:
 424              		.loc 5 548 3 view .LVU97
 425 0002 2023     		movs	r3, #32
 426              	.LBE110:
 427              	.LBE112:
 428              	.LBE114:
 429              	.LBE116:
 430              	.LBE118:
 431              		.loc 1 174 32 view .LVU98
 432 0004 0446     		mov	r4, r0
 433              	.LBB119:
 434              	.LBB117:
 435              	.LBB115:
 436              	.LBB113:
 437              	.LBB111:
 438              		.loc 5 548 3 view .LVU99
 439              		.syntax unified
 440              	@ 548 "ChibiOS/os/common/ext/CMSIS/include/core_cmFunc.h" 1
 441 0006 83F31188 		MSR basepri, r3
 442              	@ 0 "" 2
 443              	.LVL26:
 444              		.loc 5 548 3 view .LVU100
 445              		.thumb
 446              		.syntax unified
 447              	.LBE111:
 448              	.LBE113:
 449              	.LBE115:
 450              		.loc 3 377 34 is_stmt 1 view .LVU101
 451              		.loc 3 378 20 view .LVU102
 452              	.LBE117:
 453              	.LBE119:
 454              		.loc 1 179 3 view .LVU103
 455              		.loc 1 179 3 view .LVU104
 456              		.loc 1 179 3 view .LVU105
ARM GAS  C:\msys64\tmp\ccrvwsPm.s 			page 9


 457              		.loc 1 181 3 view .LVU106
 458 000a FFF7FEFF 		bl	sd_lld_stop
 459              	.LVL27:
 460              		.loc 1 182 3 view .LVU107
 461              		.loc 1 182 14 is_stmt 0 view .LVU108
 462 000e 0123     		movs	r3, #1
 463 0010 2371     		strb	r3, [r4, #4]
 464              		.loc 1 183 3 is_stmt 1 view .LVU109
 465 0012 04F12800 		add	r0, r4, #40
 466 0016 FFF7FEFF 		bl	qResetI
 467              	.LVL28:
 468              		.loc 1 184 3 view .LVU110
 469 001a 04F10800 		add	r0, r4, #8
 470 001e FFF7FEFF 		bl	qResetI
 471              	.LVL29:
 472              		.loc 1 185 3 view .LVU111
 473              	.LBB120:
 474              	.LBI120:
 475              		.loc 2 598 20 view .LVU112
 476              	.LBB121:
 477              		.loc 2 600 3 view .LVU113
 478 0022 FFF7FEFF 		bl	chSchRescheduleS
 479              	.LVL30:
 480              	.LBE121:
 481              	.LBE120:
 482              		.loc 1 186 3 view .LVU114
 483              	.LBB122:
 484              	.LBI122:
 485              		.loc 2 502 20 view .LVU115
 486              		.loc 2 504 3 view .LVU116
 487              	.LBB123:
 488              	.LBI123:
 489              		.loc 3 386 20 view .LVU117
 490              	.LBB124:
 491              		.loc 3 388 22 view .LVU118
 492              		.loc 3 389 33 view .LVU119
 493              		.loc 3 395 3 view .LVU120
 494              		.loc 3 395 3 view .LVU121
 495              		.loc 3 395 3 view .LVU122
 496              		.loc 3 399 3 view .LVU123
 497              	.LBB125:
 498              	.LBI125:
 499              		.loc 4 628 20 view .LVU124
 500              		.loc 4 631 3 view .LVU125
 501              	.LBB126:
 502              	.LBI126:
 503              		.loc 5 546 57 view .LVU126
 504              	.LBB127:
 505              		.loc 5 548 3 view .LVU127
 506 0026 0023     		movs	r3, #0
 507              		.syntax unified
 508              	@ 548 "ChibiOS/os/common/ext/CMSIS/include/core_cmFunc.h" 1
 509 0028 83F31188 		MSR basepri, r3
 510              	@ 0 "" 2
 511              	.LVL31:
 512              		.loc 5 548 3 is_stmt 0 view .LVU128
 513              		.thumb
ARM GAS  C:\msys64\tmp\ccrvwsPm.s 			page 10


 514              		.syntax unified
 515              	.LBE127:
 516              	.LBE126:
 517              	.LBE125:
 518              	.LBE124:
 519              	.LBE123:
 520              	.LBE122:
 521              		.loc 1 187 1 view .LVU129
 522 002c 10BD     		pop	{r4, pc}
 523              		.loc 1 187 1 view .LVU130
 524              		.cfi_endproc
 525              	.LFE240:
 526              		.size	sdStop, .-sdStop
 527 002e 00BF     		.section	.text.sdIncomingDataI,"ax",%progbits
 528              		.align	1
 529              		.p2align 4,,15
 530              		.global	sdIncomingDataI
 531              		.syntax unified
 532              		.thumb
 533              		.thumb_func
 534              		.type	sdIncomingDataI, %function
 535              	sdIncomingDataI:
 536              	.LVL32:
 537              	.LFB241:
 538              		.loc 1 205 52 is_stmt 1 view -0
 539              		.cfi_startproc
 540              		@ args = 0, pretend = 0, frame = 0
 541              		@ frame_needed = 0, uses_anonymous_args = 0
 542              		@ link register save eliminated.
 543              		.loc 1 207 23 view .LVU132
 544              		.loc 1 208 3 view .LVU133
 545              		.loc 1 208 3 view .LVU134
 546              		.loc 1 208 3 view .LVU135
 547              		.loc 1 210 3 view .LVU136
 548              		.loc 1 211 5 view .LVU137
 549              		.loc 1 211 43 view .LVU138
 550              		.loc 1 212 3 view .LVU139
 551              		.loc 1 212 7 is_stmt 0 view .LVU140
 552 0000 0830     		adds	r0, r0, #8
 553              	.LVL33:
 554              		.loc 1 212 7 view .LVU141
 555 0002 FFF7FEBF 		b	qPutI
 556              	.LVL34:
 557              		.loc 1 212 7 view .LVU142
 558              		.cfi_endproc
 559              	.LFE241:
 560              		.size	sdIncomingDataI, .-sdIncomingDataI
 561 0006 00BF     		.section	.text.sdRequestDataI,"ax",%progbits
 562              		.align	1
 563              		.p2align 4,,15
 564              		.global	sdRequestDataI
 565              		.syntax unified
 566              		.thumb
 567              		.thumb_func
 568              		.type	sdRequestDataI, %function
 569              	sdRequestDataI:
 570              	.LVL35:
ARM GAS  C:\msys64\tmp\ccrvwsPm.s 			page 11


 571              	.LFB242:
 572              		.loc 1 231 41 is_stmt 1 view -0
 573              		.cfi_startproc
 574              		@ args = 0, pretend = 0, frame = 0
 575              		@ frame_needed = 0, uses_anonymous_args = 0
 576              		@ link register save eliminated.
 577              		.loc 1 232 3 view .LVU144
 578              		.loc 1 234 23 view .LVU145
 579              		.loc 1 235 3 view .LVU146
 580              		.loc 1 235 3 view .LVU147
 581              		.loc 1 235 3 view .LVU148
 582              		.loc 1 237 3 view .LVU149
 583              		.loc 1 237 7 is_stmt 0 view .LVU150
 584 0000 2830     		adds	r0, r0, #40
 585              	.LVL36:
 586              		.loc 1 237 7 view .LVU151
 587 0002 FFF7FEBF 		b	qGetI
 588              	.LVL37:
 589              		.loc 1 237 7 view .LVU152
 590              		.cfi_endproc
 591              	.LFE242:
 592              		.size	sdRequestDataI, .-sdRequestDataI
 593 0006 00BF     		.section	.text.sdPutWouldBlock,"ax",%progbits
 594              		.align	1
 595              		.p2align 4,,15
 596              		.global	sdPutWouldBlock
 597              		.syntax unified
 598              		.thumb
 599              		.thumb_func
 600              		.type	sdPutWouldBlock, %function
 601              	sdPutWouldBlock:
 602              	.LVL38:
 603              	.LFB243:
 604              		.loc 1 258 41 is_stmt 1 view -0
 605              		.cfi_startproc
 606              		@ args = 0, pretend = 0, frame = 0
 607              		@ frame_needed = 0, uses_anonymous_args = 0
 608              		@ link register save eliminated.
 609              		.loc 1 259 3 view .LVU154
 610              		.loc 1 261 3 view .LVU155
 611              	.LBB128:
 612              	.LBI128:
 613              		.loc 2 491 20 view .LVU156
 614              		.loc 2 493 3 view .LVU157
 615              	.LBB129:
 616              	.LBI129:
 617              		.loc 3 374 20 view .LVU158
 618              		.loc 3 376 3 view .LVU159
 619              	.LBB130:
 620              	.LBI130:
 621              		.loc 4 604 20 view .LVU160
 622              		.loc 4 612 3 view .LVU161
 623              	.LBB131:
 624              	.LBI131:
 625              		.loc 5 546 57 view .LVU162
 626              	.LBB132:
 627              		.loc 5 548 3 view .LVU163
ARM GAS  C:\msys64\tmp\ccrvwsPm.s 			page 12


 628 0000 2023     		movs	r3, #32
 629              		.syntax unified
 630              	@ 548 "ChibiOS/os/common/ext/CMSIS/include/core_cmFunc.h" 1
 631 0002 83F31188 		MSR basepri, r3
 632              	@ 0 "" 2
 633              	.LVL39:
 634              		.loc 5 548 3 is_stmt 0 view .LVU164
 635              		.thumb
 636              		.syntax unified
 637              	.LBE132:
 638              	.LBE131:
 639              	.LBE130:
 640              		.loc 3 377 34 is_stmt 1 view .LVU165
 641              		.loc 3 378 20 view .LVU166
 642              	.LBE129:
 643              	.LBE128:
 644              		.loc 1 262 3 view .LVU167
 645              		.loc 1 262 5 is_stmt 0 view .LVU168
 646 0006 D0E90E30 		ldrd	r3, r0, [r0, #56]
 647              	.LVL40:
 648              		.loc 1 262 5 view .LVU169
 649 000a 8342     		cmp	r3, r0
 650 000c 34BF     		ite	cc
 651 000e 0020     		movcc	r0, #0
 652 0010 0120     		movcs	r0, #1
 653              	.LVL41:
 654              		.loc 1 263 3 is_stmt 1 view .LVU170
 655              	.LBB133:
 656              	.LBI133:
 657              		.loc 2 502 20 view .LVU171
 658              		.loc 2 504 3 view .LVU172
 659              	.LBB134:
 660              	.LBI134:
 661              		.loc 3 386 20 view .LVU173
 662              	.LBB135:
 663              		.loc 3 388 22 view .LVU174
 664              		.loc 3 389 33 view .LVU175
 665              		.loc 3 395 3 view .LVU176
 666              		.loc 3 395 3 view .LVU177
 667              		.loc 3 395 3 view .LVU178
 668              		.loc 3 399 3 view .LVU179
 669              	.LBB136:
 670              	.LBI136:
 671              		.loc 4 628 20 view .LVU180
 672              		.loc 4 631 3 view .LVU181
 673              	.LBB137:
 674              	.LBI137:
 675              		.loc 5 546 57 view .LVU182
 676              	.LBB138:
 677              		.loc 5 548 3 view .LVU183
 678 0012 0022     		movs	r2, #0
 679              		.syntax unified
 680              	@ 548 "ChibiOS/os/common/ext/CMSIS/include/core_cmFunc.h" 1
 681 0014 82F31188 		MSR basepri, r2
 682              	@ 0 "" 2
 683              	.LVL42:
 684              		.loc 5 548 3 is_stmt 0 view .LVU184
ARM GAS  C:\msys64\tmp\ccrvwsPm.s 			page 13


 685              		.thumb
 686              		.syntax unified
 687              	.LBE138:
 688              	.LBE137:
 689              	.LBE136:
 690              	.LBE135:
 691              	.LBE134:
 692              	.LBE133:
 693              		.loc 1 265 3 is_stmt 1 view .LVU185
 694              		.loc 1 266 1 is_stmt 0 view .LVU186
 695 0018 7047     		bx	lr
 696              		.cfi_endproc
 697              	.LFE243:
 698              		.size	sdPutWouldBlock, .-sdPutWouldBlock
 699 001a 00BF     		.section	.text.sdGetWouldBlock,"ax",%progbits
 700              		.align	1
 701              		.p2align 4,,15
 702              		.global	sdGetWouldBlock
 703              		.syntax unified
 704              		.thumb
 705              		.thumb_func
 706              		.type	sdGetWouldBlock, %function
 707              	sdGetWouldBlock:
 708              	.LVL43:
 709              	.LFB244:
 710              		.loc 1 283 41 is_stmt 1 view -0
 711              		.cfi_startproc
 712              		@ args = 0, pretend = 0, frame = 0
 713              		@ frame_needed = 0, uses_anonymous_args = 0
 714              		@ link register save eliminated.
 715              		.loc 1 284 3 view .LVU188
 716              		.loc 1 286 3 view .LVU189
 717              	.LBB139:
 718              	.LBI139:
 719              		.loc 2 491 20 view .LVU190
 720              		.loc 2 493 3 view .LVU191
 721              	.LBB140:
 722              	.LBI140:
 723              		.loc 3 374 20 view .LVU192
 724              		.loc 3 376 3 view .LVU193
 725              	.LBB141:
 726              	.LBI141:
 727              		.loc 4 604 20 view .LVU194
 728              		.loc 4 612 3 view .LVU195
 729              	.LBB142:
 730              	.LBI142:
 731              		.loc 5 546 57 view .LVU196
 732              	.LBB143:
 733              		.loc 5 548 3 view .LVU197
 734 0000 2023     		movs	r3, #32
 735              		.syntax unified
 736              	@ 548 "ChibiOS/os/common/ext/CMSIS/include/core_cmFunc.h" 1
 737 0002 83F31188 		MSR basepri, r3
 738              	@ 0 "" 2
 739              	.LVL44:
 740              		.loc 5 548 3 is_stmt 0 view .LVU198
 741              		.thumb
ARM GAS  C:\msys64\tmp\ccrvwsPm.s 			page 14


 742              		.syntax unified
 743              	.LBE143:
 744              	.LBE142:
 745              	.LBE141:
 746              		.loc 3 377 34 is_stmt 1 view .LVU199
 747              		.loc 3 378 20 view .LVU200
 748              	.LBE140:
 749              	.LBE139:
 750              		.loc 1 287 3 view .LVU201
 751              		.loc 1 287 5 is_stmt 0 view .LVU202
 752 0006 8069     		ldr	r0, [r0, #24]
 753              	.LVL45:
 754              		.loc 1 287 5 view .LVU203
 755 0008 B0FA80F0 		clz	r0, r0
 756              	.LBB144:
 757              	.LBB145:
 758              	.LBB146:
 759              	.LBB147:
 760              	.LBB148:
 761              	.LBB149:
 762              		.loc 5 548 3 view .LVU204
 763 000c 0023     		movs	r3, #0
 764              	.LBE149:
 765              	.LBE148:
 766              	.LBE147:
 767              	.LBE146:
 768              	.LBE145:
 769              	.LBE144:
 770              		.loc 1 287 5 view .LVU205
 771 000e 4009     		lsrs	r0, r0, #5
 772              	.LVL46:
 773              		.loc 1 288 3 is_stmt 1 view .LVU206
 774              	.LBB155:
 775              	.LBI144:
 776              		.loc 2 502 20 view .LVU207
 777              		.loc 2 504 3 view .LVU208
 778              	.LBB154:
 779              	.LBI145:
 780              		.loc 3 386 20 view .LVU209
 781              	.LBB153:
 782              		.loc 3 388 22 view .LVU210
 783              		.loc 3 389 33 view .LVU211
 784              		.loc 3 395 3 view .LVU212
 785              		.loc 3 395 3 view .LVU213
 786              		.loc 3 395 3 view .LVU214
 787              		.loc 3 399 3 view .LVU215
 788              	.LBB152:
 789              	.LBI147:
 790              		.loc 4 628 20 view .LVU216
 791              		.loc 4 631 3 view .LVU217
 792              	.LBB151:
 793              	.LBI148:
 794              		.loc 5 546 57 view .LVU218
 795              	.LBB150:
 796              		.loc 5 548 3 view .LVU219
 797              		.syntax unified
 798              	@ 548 "ChibiOS/os/common/ext/CMSIS/include/core_cmFunc.h" 1
ARM GAS  C:\msys64\tmp\ccrvwsPm.s 			page 15


 799 0010 83F31188 		MSR basepri, r3
 800              	@ 0 "" 2
 801              	.LVL47:
 802              		.loc 5 548 3 is_stmt 0 view .LVU220
 803              		.thumb
 804              		.syntax unified
 805              	.LBE150:
 806              	.LBE151:
 807              	.LBE152:
 808              	.LBE153:
 809              	.LBE154:
 810              	.LBE155:
 811              		.loc 1 290 3 is_stmt 1 view .LVU221
 812              		.loc 1 291 1 is_stmt 0 view .LVU222
 813 0014 7047     		bx	lr
 814              		.cfi_endproc
 815              	.LFE244:
 816              		.size	sdGetWouldBlock, .-sdGetWouldBlock
 817 0016 00BF     		.section	.rodata.vmt,"a"
 818              		.align	2
 819              		.type	vmt, %object
 820              		.size	vmt, 32
 821              	vmt:
 822 0000 00000000 		.word	write
 823 0004 00000000 		.word	read
 824 0008 00000000 		.word	put
 825 000c 00000000 		.word	get
 826 0010 00000000 		.word	0
 827 0014 00000000 		.word	0
 828 0018 00000000 		.word	0
 829 001c 00000000 		.word	0
 830              		.text
 831              	.Letext0:
 832              		.file 6 "C:/Program Files (x86)/Arm GNU Toolchain arm-none-eabi/14.3 rel1/lib/gcc/arm-none-eabi/14
 833              		.file 7 "C:/Program Files (x86)/Arm GNU Toolchain arm-none-eabi/14.3 rel1/arm-none-eabi/include/ma
 834              		.file 8 "C:/Program Files (x86)/Arm GNU Toolchain arm-none-eabi/14.3 rel1/arm-none-eabi/include/sy
 835              		.file 9 "ChibiOS/os/common/ports/ARMCMx/compilers/GCC/chtypes.h"
 836              		.file 10 "ChibiOS/os/rt/include/chsystypes.h"
 837              		.file 11 "ChibiOS/os/rt/include/chschd.h"
 838              		.file 12 "ChibiOS/os/common/ext/CMSIS/ST/STM32F3xx/stm32f303xc.h"
 839              		.file 13 "ChibiOS/os/common/ports/ARMCMx/chcore.h"
 840              		.file 14 "ChibiOS/os/hal/include/hal_queues.h"
 841              		.file 15 "ChibiOS/os/hal/include/hal_serial.h"
 842              		.file 16 "ChibiOS/os/hal/ports/STM32/LLD/USARTv2/hal_serial_lld.h"