ARM GAS  C:\msys64\tmp\ccjid4WH.s 			page 1


   1              		.cpu cortex-m4
   2              		.arch armv7e-m
   3              		.fpu fpv4-sp-d16
   4              		.eabi_attribute 27, 1
   5              		.eabi_attribute 28, 1
   6              		.eabi_attribute 23, 1
   7              		.eabi_attribute 24, 1
   8              		.eabi_attribute 25, 1
   9              		.eabi_attribute 26, 1
  10              		.eabi_attribute 30, 2
  11              		.eabi_attribute 34, 1
  12              		.eabi_attribute 18, 4
  13              		.file	"hal_st.c"
  14              		.text
  15              	.Ltext0:
  16              		.cfi_sections	.debug_frame
  17              		.file 1 "ChibiOS/os/hal/src/hal_st.c"
  18              		.section	.text.stInit,"ax",%progbits
  19              		.align	1
  20              		.p2align 4,,15
  21              		.global	stInit
  22              		.syntax unified
  23              		.thumb
  24              		.thumb_func
  25              		.type	stInit, %function
  26              	stInit:
  27              	.LFB233:
  28              		.loc 1 60 19 view -0
  29              		.cfi_startproc
  30              		@ args = 0, pretend = 0, frame = 0
  31              		@ frame_needed = 0, uses_anonymous_args = 0
  32              		@ link register save eliminated.
  33              		.loc 1 62 3 view .LVU1
  34 0000 FFF7FEBF 		b	st_lld_init
  35              	.LVL0:
  36              		.cfi_endproc
  37              	.LFE233:
  38              		.size	stInit, .-stInit
  39              		.section	.text.stStartAlarm,"ax",%progbits
  40              		.align	1
  41              		.p2align 4,,15
  42              		.global	stStartAlarm
  43              		.syntax unified
  44              		.thumb
  45              		.thumb_func
  46              		.type	stStartAlarm, %function
  47              	stStartAlarm:
  48              	.LVL1:
  49              	.LFB234:
  50              		.loc 1 77 38 view -0
  51              		.cfi_startproc
  52              		@ args = 0, pretend = 0, frame = 0
  53              		@ frame_needed = 0, uses_anonymous_args = 0
  54              		@ link register save eliminated.
  55              		.loc 1 79 3 view .LVU3
  56              		.loc 1 79 3 view .LVU4
  57              		.loc 1 79 3 view .LVU5
ARM GAS  C:\msys64\tmp\ccjid4WH.s 			page 2


  58              		.loc 1 81 3 view .LVU6
  59              	.LBB10:
  60              	.LBB11:
  61              		.file 2 "ChibiOS/os/hal/ports/STM32/LLD/TIMv1/hal_st_lld.h"
  62              		.loc 2 155 24 is_stmt 0 view .LVU7
  63 0000 4FF08043 		mov	r3, #1073741824
  64              	.LVL2:
  65              		.loc 2 155 24 view .LVU8
  66              	.LBE11:
  67              	.LBI10:
  68              		.loc 2 153 20 is_stmt 1 view .LVU9
  69              	.LBB12:
  70              		.loc 2 155 3 view .LVU10
  71              		.loc 2 156 24 is_stmt 0 view .LVU11
  72 0004 0021     		movs	r1, #0
  73              		.loc 2 157 24 view .LVU12
  74 0006 0222     		movs	r2, #2
  75              		.loc 2 155 24 view .LVU13
  76 0008 5863     		str	r0, [r3, #52]
  77              		.loc 2 156 3 is_stmt 1 view .LVU14
  78              		.loc 2 156 24 is_stmt 0 view .LVU15
  79 000a 1961     		str	r1, [r3, #16]
  80              		.loc 2 157 3 is_stmt 1 view .LVU16
  81              		.loc 2 157 24 is_stmt 0 view .LVU17
  82 000c DA60     		str	r2, [r3, #12]
  83              	.LVL3:
  84              		.loc 2 157 24 view .LVU18
  85              	.LBE12:
  86              	.LBE10:
  87              		.loc 1 82 1 view .LVU19
  88 000e 7047     		bx	lr
  89              		.cfi_endproc
  90              	.LFE234:
  91              		.size	stStartAlarm, .-stStartAlarm
  92              		.section	.text.stStopAlarm,"ax",%progbits
  93              		.align	1
  94              		.p2align 4,,15
  95              		.global	stStopAlarm
  96              		.syntax unified
  97              		.thumb
  98              		.thumb_func
  99              		.type	stStopAlarm, %function
 100              	stStopAlarm:
 101              	.LFB235:
 102              		.loc 1 91 24 is_stmt 1 view -0
 103              		.cfi_startproc
 104              		@ args = 0, pretend = 0, frame = 0
 105              		@ frame_needed = 0, uses_anonymous_args = 0
 106              		@ link register save eliminated.
 107              		.loc 1 93 3 view .LVU21
 108              	.LBB13:
 109              	.LBI13:
 110              		.loc 2 165 20 view .LVU22
 111              	.LBB14:
 112              		.loc 2 167 3 view .LVU23
 113              		.loc 2 167 22 is_stmt 0 view .LVU24
 114 0000 4FF08043 		mov	r3, #1073741824
ARM GAS  C:\msys64\tmp\ccjid4WH.s 			page 3


 115 0004 0022     		movs	r2, #0
 116 0006 DA60     		str	r2, [r3, #12]
 117              	.LBE14:
 118              	.LBE13:
 119              		.loc 1 94 1 view .LVU25
 120 0008 7047     		bx	lr
 121              		.cfi_endproc
 122              	.LFE235:
 123              		.size	stStopAlarm, .-stStopAlarm
 124 000a 00BF     		.section	.text.stSetAlarm,"ax",%progbits
 125              		.align	1
 126              		.p2align 4,,15
 127              		.global	stSetAlarm
 128              		.syntax unified
 129              		.thumb
 130              		.thumb_func
 131              		.type	stSetAlarm, %function
 132              	stSetAlarm:
 133              	.LVL4:
 134              	.LFB236:
 135              		.loc 1 105 36 is_stmt 1 view -0
 136              		.cfi_startproc
 137              		@ args = 0, pretend = 0, frame = 0
 138              		@ frame_needed = 0, uses_anonymous_args = 0
 139              		@ link register save eliminated.
 140              		.loc 1 107 3 view .LVU27
 141              		.loc 1 107 3 view .LVU28
 142              		.loc 1 107 3 view .LVU29
 143              		.loc 1 109 3 view .LVU30
 144              	.LBB15:
 145              	.LBB16:
 146              		.loc 2 179 24 is_stmt 0 view .LVU31
 147 0000 4FF08043 		mov	r3, #1073741824
 148              	.LVL5:
 149              		.loc 2 179 24 view .LVU32
 150              	.LBE16:
 151              	.LBI15:
 152              		.loc 2 177 20 is_stmt 1 view .LVU33
 153              	.LBB17:
 154              		.loc 2 179 3 view .LVU34
 155              		.loc 2 179 24 is_stmt 0 view .LVU35
 156 0004 5863     		str	r0, [r3, #52]
 157              	.LVL6:
 158              		.loc 2 179 24 view .LVU36
 159              	.LBE17:
 160              	.LBE15:
 161              		.loc 1 110 1 view .LVU37
 162 0006 7047     		bx	lr
 163              		.cfi_endproc
 164              	.LFE236:
 165              		.size	stSetAlarm, .-stSetAlarm
 166              		.section	.text.stGetAlarm,"ax",%progbits
 167              		.align	1
 168              		.p2align 4,,15
 169              		.global	stGetAlarm
 170              		.syntax unified
 171              		.thumb
ARM GAS  C:\msys64\tmp\ccjid4WH.s 			page 4


 172              		.thumb_func
 173              		.type	stGetAlarm, %function
 174              	stGetAlarm:
 175              	.LFB237:
 176              		.loc 1 121 28 is_stmt 1 view -0
 177              		.cfi_startproc
 178              		@ args = 0, pretend = 0, frame = 0
 179              		@ frame_needed = 0, uses_anonymous_args = 0
 180              		@ link register save eliminated.
 181              		.loc 1 123 3 view .LVU39
 182              		.loc 1 123 3 view .LVU40
 183              		.loc 1 123 3 view .LVU41
 184              		.loc 1 125 3 view .LVU42
 185              	.LBB18:
 186              	.LBI18:
 187              		.loc 2 189 25 view .LVU43
 188              	.LBB19:
 189              		.loc 2 191 3 view .LVU44
 190              		.loc 2 191 10 is_stmt 0 view .LVU45
 191 0000 4FF08043 		mov	r3, #1073741824
 192 0004 586B     		ldr	r0, [r3, #52]
 193              	.LBE19:
 194              	.LBE18:
 195              		.loc 1 126 1 view .LVU46
 196 0006 7047     		bx	lr
 197              		.cfi_endproc
 198              	.LFE237:
 199              		.size	stGetAlarm, .-stGetAlarm
 200              		.text
 201              	.Letext0:
 202              		.file 3 "C:/Program Files (x86)/Arm GNU Toolchain arm-none-eabi/14.3 rel1/arm-none-eabi/include/ma
 203              		.file 4 "C:/Program Files (x86)/Arm GNU Toolchain arm-none-eabi/14.3 rel1/arm-none-eabi/include/sy
 204              		.file 5 "ChibiOS/os/rt/include/chsystypes.h"
 205              		.file 6 "ChibiOS/os/hal/ports/STM32/LLD/TIMv1/stm32_tim.h"