ARM GAS  C:\msys64\tmp\ccrvwsPm.s 			page 1


   1              		.cpu cortex-m4
   2              		.arch armv7e-m
   3              		.fpu fpv4-sp-d16
   4              		.eabi_attribute 27, 1
   5              		.eabi_attribute 28, 1
   6              		.eabi_attribute 23, 1
   7              		.eabi_attribute 24, 1
   8              		.eabi_attribute 25, 1
   9              		.eabi_attribute 26, 1
  10              		.eabi_attribute 30, 2
  11              		.eabi_attribute 34, 1
  12              		.eabi_attribute 18, 4
  13              		.file	"hal_serial.c"
  14              		.text
  15              	.Ltext0:
  16              		.cfi_sections	.debug_frame
  17              		.file 1 "ChibiOS/os/hal/src/hal_serial.c"
  18              		.section	.text.get,"ax",%progbits
  19              		.align	1
  20              		.p2align 4,,15
  21              		.syntax unified
  22              		.thumb
  23              		.thumb_func
  24              		.type	get, %function
  25              	get:
  26              	.LVL0:
  27              	.LFB236:
  28              		.loc 1 68 28 view -0
  29              		.cfi_startproc
  30              		@ args = 0, pretend = 0, frame = 0
  31              		@ frame_needed = 0, uses_anonymous_args = 0
  32              		@ link register save eliminated.
  33              		.loc 1 70 3 view .LVU1
  34              		.loc 1 70 10 is_stmt 0 view .LVU2
  35 0000 4FF0FF31 		mov	r1, #-1
  36 0004 0830     		adds	r0, r0, #8
  37              	.LVL1:
  38              		.loc 1 70 10 view .LVU3
  39 0006 FFF7FEBF 		b	iqGetTimeout
  40              	.LVL2:
  41              		.loc 1 70 10 view .LVU4
  42              		.cfi_endproc
  43              	.LFE236:
  44              		.size	get, .-get
  45 000a 00BF     		.section	.text.put,"ax",%progbits
  46              		.align	1
  47              		.p2align 4,,15
  48              		.syntax unified
  49              		.thumb
  50              		.thumb_func
  51              		.type	put, %function
  52              	put:
  53              	.LVL3:
  54              	.LFB235:
  55              		.loc 1 63 39 is_stmt 1 view -0
  56              		.cfi_startproc
  57              		@ args = 0, pretend = 0, frame = 0
ARM GAS  C:\msys64\tmp\ccrvwsPm.s 			page 2


  58              		@ frame_needed = 0, uses_anonymous_args = 0
  59              		@ link register save eliminated.
  60              		.loc 1 65 3 view .LVU6
  61              		.loc 1 65 10 is_stmt 0 view .LVU7
  62 0000 4FF0FF32 		mov	r2, #-1
  63 0004 2830     		adds	r0, r0, #40
  64              	.LVL4:
  65              		.loc 1 65 10 view .LVU8
  66 0006 FFF7FEBF 		b	oqPutTimeout
  67              	.LVL5:
  68              		.loc 1 65 10 view .LVU9
  69              		.cfi_endproc
  70              	.LFE235:
  71              		.size	put, .-put
  72 000a 00BF     		.section	.text.read,"ax",%progbits
  73              		.align	1
  74              		.p2align 4,,15
  75              		.syntax unified
  76              		.thumb
  77              		.thumb_func
  78              		.type	read, %function
  79              	read:
  80              	.LVL6:
  81              	.LFB234:
  82              		.loc 1 57 53 is_stmt 1 view -0
  83              		.cfi_startproc
  84              		@ args = 0, pretend = 0, frame = 0
  85              		@ frame_needed = 0, uses_anonymous_args = 0
  86              		@ link register save eliminated.
  87              		.loc 1 59 3 view .LVU11
  88              		.loc 1 59 10 is_stmt 0 view .LVU12
  89 0000 4FF0FF33 		mov	r3, #-1
  90 0004 0830     		adds	r0, r0, #8
  91              	.LVL7:
  92              		.loc 1 59 10 view .LVU13
  93 0006 FFF7FEBF 		b	iqReadTimeout
  94              	.LVL8:
  95              		.loc 1 59 10 view .LVU14
  96              		.cfi_endproc
  97              	.LFE234:
  98              		.size	read, .-read
  99 000a 00BF     		.section	.text.write,"ax",%progbits
 100              		.align	1
 101              		.p2align 4,,15
 102              		.syntax unified
 103              		.thumb
 104              		.thumb_func
 105              		.type	write, %function
 106              	write:
 107              	.LVL9:
 108              	.LFB233:
 109              		.loc 1 51 60 is_stmt 1 view -0
 110              		.cfi_startproc
 111              		@ args = 0, pretend = 0, frame = 0
 112              		@ frame_needed = 0, uses_anonymous_args = 0
 113              		@ link register save eliminated.
 114              		.loc 1 53 3 view .LVU16
ARM GAS  C:\msys64\tmp\ccrvwsPm.s 			page 3


 115              		.loc 1 53 10 is_stmt 0 view .LVU17
 116 0000 4FF0FF33 		mov	r3, #-1
 117 0004 2830     		adds	r0, r0, #40
 118              	.LVL10:
 119              		.loc 1 53 10 view .LVU18
 120 0006 FFF7FEBF 		b	oqWriteTimeout
 121              	.LVL11:
 122              		.loc 1 53 10 view .LVU19
 123              		.cfi_endproc
 124              	.LFE233:
 125              		.size	write, .-write
 126 000a 00BF     		.section	.text.sdInit,"ax",%progbits
 127              		.align	1
 128              		.p2align 4,,15
 129              		.global	sdInit
 130              		.syntax unified
 131              		.thumb
 132              		.thumb_func
 133              		.type	sdInit, %function
 134              	sdInit:
 135              	.LFB237:
 136              		.loc 1 115 19 is_stmt 1 view -0
 137              		.cfi_startproc
 138              		@ args = 0, pretend = 0, frame = 0
 139              		@ frame_needed = 0, uses_anonymous_args = 0
 140              		@ link register save eliminated.
 141              		.loc 1 117 3 view .LVU21
 142 0000 FFF7FEBF 		b	sd_lld_init
 143              	.LVL12:
 144              		.cfi_endproc
 145              	.LFE237:
 146              		.size	sdInit, .-sdInit
 147              		.section	.text.sdObjectInit,"ax",%progbits
 148              		.align	1
 149              		.p2align 4,,15
 150              		.global	sdObjectInit
 151              		.syntax unified
 152              		.thumb
 153              		.thumb_func
 154              		.type	sdObjectInit, %function
 155              	sdObjectInit:
 156              	.LVL13:
 157              	.LFB238:
 158              		.loc 1 135 76 view -0
 159              		.cfi_startproc
 160              		@ args = 0, pretend = 0, frame = 0
 161              		@ frame_needed = 0, uses_anonymous_args = 0
 162              		.loc 1 136 3 view .LVU23
 163              		.loc 1 135 76 is_stmt 0 view .LVU24
 164 0000 70B5     		push	{r4, r5, r6, lr}
 165              		.cfi_def_cfa_offset 16
 166              		.cfi_offset 4, -16
 167              		.cfi_offset 5, -12
 168              		.cfi_offset 6, -8
 169              		.cfi_offset 14, -4
 170              		.loc 1 135 76 view .LVU25
 171 0002 0446     		mov	r4, r0
ARM GAS  C:\msys64\tmp\ccrvwsPm.s 			page 4


 172 0004 0B46     		mov	r3, r1
 173              		.loc 1 136 12 view .LVU26
 174 0006 0B48     		ldr	r0, .L9
 175              	.LVL14:
 176              		.loc 1 136 12 view .LVU27
 177 0008 2060     		str	r0, [r4]
 178              		.loc 1 138 3 is_stmt 1 view .LVU28
 179              		.loc 1 138 14 is_stmt 0 view .LVU29
 180 000a 0121     		movs	r1, #1
 181              	.LVL15:
 182              		.loc 1 135 76 view .LVU30
 183 000c 1546     		mov	r5, r2
 184              		.loc 1 138 14 view .LVU31
 185 000e 2171     		strb	r1, [r4, #4]
 186              		.loc 1 139 3 is_stmt 1 view .LVU32
 187 0010 04F10800 		add	r0, r4, #8
 188 0014 04F14801 		add	r1, r4, #72
 189 0018 4022     		movs	r2, #64
 190              	.LVL16:
 191              		.loc 1 139 3 is_stmt 0 view .LVU33
 192 001a FFF7FEFF 		bl	qObjectInit
 193              	.LVL17:
 194              		.loc 1 140 3 is_stmt 1 view .LVU34
 195 001e 2B46     		mov	r3, r5
 196 0020 04F18801 		add	r1, r4, #136
 197 0024 04F12800 		add	r0, r4, #40
 198 0028 4022     		movs	r2, #64
 199              		.loc 1 141 1 is_stmt 0 view .LVU35
 200 002a BDE87040 		pop	{r4, r5, r6, lr}
 201              		.cfi_restore 14
 202              		.cfi_restore 6
 203              		.cfi_restore 5
 204              		.cfi_restore 4
 205              		.cfi_def_cfa_offset 0
 206              	.LVL18:
 207              		.loc 1 140 3 view .LVU36
 208 002e FFF7FEBF 		b	qObjectInit
 209              	.LVL19:
 210              	.L10:
 211              		.loc 1 140 3 view .LVU37
 212 0032 00BF     		.align	2
 213              	.L9:
 214 0034 00000000 		.word	vmt
 215              		.cfi_endproc
 216              	.LFE238:
 217              		.size	sdObjectInit, .-sdObjectInit
 218              		.section	.text.sdStart,"ax",%progbits
 219              		.align	1
 220              		.p2align 4,,15
 221              		.global	sdStart
 222              		.syntax unified
 223              		.thumb
 224              		.thumb_func
 225              		.type	sdStart, %function
 226              	sdStart:
 227              	.LVL20:
 228              	.LFB239:
ARM GAS  C:\msys64\tmp\ccrvwsPm.s 			page 5


 229              		.loc 1 153 61 is_stmt 1 view -0
 230              		.cfi_startproc
 231              		@ args = 0, pretend = 0, frame = 0
 232              		@ frame_needed = 0, uses_anonymous_args = 0
 233              		.loc 1 155 3 view .LVU39
 234              		.loc 1 155 3 view .LVU40
 235              		.loc 1 155 3 view .LVU41
 236              		.loc 1 157 3 view .LVU42
 237              	.LBB78:
 238              	.LBI78:
 239              		.file 2 "ChibiOS/os/hal/osal/rt/osal.h"
 240              		.loc 2 491 20 view .LVU43
 241              		.loc 2 493 3 view .LVU44
 242              	.LBB79:
 243              	.LBI79:
 244              		.file 3 "ChibiOS/os/rt/include/chsys.h"
 245              		.loc 3 374 20 view .LVU45
 246              		.loc 3 376 3 view .LVU46
 247              	.LBB80:
 248              	.LBI80:
 249              		.file 4 "ChibiOS/os/common/ports/ARMCMx/chcore_v7m.h"
 250              		.loc 4 604 20 view .LVU47
 251              		.loc 4 612 3 view .LVU48
 252              	.LBB81:
 253              	.LBI81:
 254              		.file 5 "ChibiOS/os/common/ext/CMSIS/include/core_cmFunc.h"
 255              		.loc 5 546 57 view .LVU49
 256              	.LBB82:
 257              		.loc 5 548 3 view .LVU50
 258              	.LBE82:
 259              	.LBE81:
 260              	.LBE80:
 261              	.LBE79:
 262              	.LBE78:
 263              		.loc 1 153 61 is_stmt 0 view .LVU51
 264 0000 10B5     		push	{r4, lr}
 265              		.cfi_def_cfa_offset 8
 266              		.cfi_offset 4, -8
 267              		.cfi_offset 14, -4
 268              	.LBB91:
 269              	.LBB89:
 270              	.LBB87:
 271              	.LBB85:
 272              	.LBB83:
 273              		.loc 5 548 3 view .LVU52
 274 0002 2023     		movs	r3, #32
 275              	.LBE83:
 276              	.LBE85:
 277              	.LBE87:
 278              	.LBE89:
 279              	.LBE91:
 280              		.loc 1 153 61 view .LVU53
 281 0004 0446     		mov	r4, r0
 282              	.LBB92:
 283              	.LBB90:
 284              	.LBB88:
 285              	.LBB86:
ARM GAS  C:\msys64\tmp\ccrvwsPm.s 			page 6


 286              	.LBB84:
 287              		.loc 5 548 3 view .LVU54
 288              		.syntax unified
 289              	@ 548 "ChibiOS/os/common/ext/CMSIS/include/core_cmFunc.h" 1
 290 0006 83F31188 		MSR basepri, r3
 291              	@ 0 "" 2
 292              	.LVL21:
 293              		.loc 5 548 3 view .LVU55
 294              		.thumb
 295              		.syntax unified
 296              	.LBE84:
 297              	.LBE86:
 298              	.LBE88:
 299              		.loc 3 377 34 is_stmt 1 view .LVU56
 300              		.loc 3 378 20 view .LVU57
 301              	.LBE90:
 302              	.LBE92:
 303              		.loc 1 158 3 view .LVU58
 304              		.loc 1 158 3 view .LVU59
 305              		.loc 1 158 3 view .LVU60
 306              		.loc 1 160 3 view .LVU61
 307 000a FFF7FEFF 		bl	sd_lld_start
 308              	.LVL22:
 309              		.loc 1 161 3 view .LVU62
 310              		.loc 1 161 14 is_stmt 0 view .LVU63
 311 000e 0222     		movs	r2, #2
 312              	.LBB93:
 313              	.LBB94:
 314              	.LBB95:
 315              	.LBB96:
 316              	.LBB97:
 317              	.LBB98:
 318              		.loc 5 548 3 view .LVU64
 319 0010 0023     		movs	r3, #0
 320              	.LBE98:
 321              	.LBE97:
 322              	.LBE96:
 323              	.LBE95:
 324              	.LBE94:
 325              	.LBE93:
 326              		.loc 1 161 14 view .LVU65
 327 0012 2271     		strb	r2, [r4, #4]
 328              		.loc 1 162 3 is_stmt 1 view .LVU66
 329              	.LBB104:
 330              	.LBI93:
 331              		.loc 2 502 20 view .LVU67
 332              		.loc 2 504 3 view .LVU68
 333              	.LBB103:
 334              	.LBI94:
 335              		.loc 3 386 20 view .LVU69
 336              	.LBB102:
 337              		.loc 3 388 22 view .LVU70
 338              		.loc 3 389 33 view .LVU71
 339              		.loc 3 395 3 view .LVU72
 340              		.loc 3 395 3 view .LVU73
 341              		.loc 3 395 3 view .LVU74
 342              		.loc 3 399 3 view .LVU75
ARM GAS  C:\msys64\tmp\ccrvwsPm.s 			page 7


 343              	.LBB101:
 344              	.LBI96:
 345              		.loc 4 628 20 view .LVU76
 346              		.loc 4 631 3 view .LVU77
 347              	.LVL23:
 348              	.LBB100:
 349              	.LBI97:
 350              		.loc 5 546 57 view .LVU78
 351              	.LBB99:
 352              		.loc 5 548 3 view .LVU79
 353              		.syntax unified
 354              	@ 548 "ChibiOS/os/common/ext/CMSIS/include/core_cmFunc.h" 1
 355 0014 83F31188 		MSR basepri, r3
 356              	@ 0 "" 2
 357              	.LVL24:
 358              		.loc 5 548 3 is_stmt 0 view .LVU80
 359              		.thumb
 360              		.syntax unified
 361              	.LBE99:
 362              	.LBE100:
 363              	.LBE101:
 364              	.LBE102:
 365              	.LBE103:
 366              	.LBE104:
 367              		.loc 1 163 1 view .LVU81
 368 0018 10BD     		pop	{r4, pc}
 369              		.loc 1 163 1 view .LVU82
 370              		.cfi_endproc
 371              	.LFE239:
 372              		.size	sdStart, .-sdStart
 373 001a 00BF     		.section	.text.sdStop,"ax",%progbits
 374              		.align	1
 375              		.p2align 4,,15
 376              		.global	sdStop
 377              		.syntax unified
 378              		.thumb
 379              		.thumb_func
 380              		.type	sdStop, %function
 381              	sdStop:
 382              	.LVL25:
 383              	.LFB240:
 384              		.loc 1 174 32 is_stmt 1 view -0
 385              		.cfi_startproc
 386              		@ args = 0, pretend = 0, frame = 0
 387              		@ frame_needed = 0, uses_anonymous_args = 0
 388              		.loc 1 176 3 view .LVU84
 389              		.loc 1 176 3 view .LVU85
 390              		.loc 1 176 3 view .LVU86
 391              		.loc 1 178 3 view .LVU87
 392              	.LBB105:
 393              	.LBI105:
 394              		.loc 2 491 20 view .LVU88
 395              		.loc 2 493 3 view .LVU89
 396              	.LBB106:
 397              	.LBI106:
 398              		.loc 3 374 20 view .LVU90
 399              		.loc 3 376 3 view .LVU91
ARM GAS  C:\msys64\tmp\ccrvwsPm.s 			page 8


 400              	.LBB107:
 401              	.LBI107:
 402              		.loc 4 604 20 view .LVU92
 403              		.loc 4 612 3 view .LVU93
 404              	.LBB108:
 405              	.LBI108:
 406              		.loc 5 546 57 view .LVU94
 407              	.LBB109:
 408              		.loc 5 548 3 view .LVU95
 409              	.LBE109:
 410              	.LBE108:
 411              	.LBE107:
 412              	.LBE106:
 413              	.LBE105:
 414              		.loc 1 174 32 is_stmt 0 view .LVU96
 415 0000 10B5     		push	{r4, lr}
 416              		.cfi_def_cfa_offset 8
 417              		.cfi_offset 4, -8
 418              		.cfi_offset 14, -4
 419              	.LBB118:
 420              	.LBB116:
 421              	.LBB114:
 422              	.LBB112:
 423              	.LBB110:
 424              		.loc 5 548 3 view .LVU97
 425 0002 2023     		movs	r3, #32
 426              	.LBE110:
 427              	.LBE112:
 428              	.LBE114:
 429              	.LBE116:
 430              	.LBE118:
 431              		.loc 1 174 32 view .LVU98
 432 0004 0446     		mov	r4, r0
 433              	.LBB119:
 434              	.LBB117:
 435              	.LBB115:
 436              	.LBB113:
 437              	.LBB111:
 438              		.loc 5 548 3 view .LVU99
 439              		.syntax unified
 440              	@ 548 "ChibiOS/os/common/ext/CMSIS/include/core_cmFunc.h" 1
 441 0006 83F31188 		MSR basepri, r3
 442              	@ 0 "" 2
 443              	.LVL26:
 444              		.loc 5 548 3 view .LVU100
 445              		.thumb
 446              		.syntax unified
 447              	.LBE111:
 448              	.LBE113:
 449              	.LBE115:
 450              		.loc 3 377 34 is_stmt 1 view .LVU101
 451              		.loc 3 378 20 view .LVU102
 452              	.LBE117:
 453              	.LBE119:
 454              		.loc 1 179 3 view .LVU103
 455              		.loc 1 179 3 view .LVU104
 456              		.loc 1 179 3 view .LVU105
ARM GAS  C:\msys64\tmp\ccrvwsPm.s 			page 9


 457              		.loc 1 181 3 view .LVU106
 458 000a FFF7FEFF 		bl	sd_lld_stop
 459              	.LVL27:
 460              		.loc 1 182 3 view .LVU107
 461              		.loc 1 182 14 is_stmt 0 view .LVU108
 462 000e 0123     		movs	r3, #1
 463 0010 2371     		strb	r3, [r4, #4]
 464              		.loc 1 183 3 is_stmt 1 view .LVU109
 465 0012 04F12800 		add	r0, r4, #40
 466 0016 FFF7FEFF 		bl	qResetI
 467              	.LVL28:
 468              		.loc 1 184 3 view .LVU110
 469 001a 04F10800 		add	r0, r4, #8
 470 001e FFF7FEFF 		bl	qResetI
 471              	.LVL29:
 472              		.loc 1 185 3 view .LVU111
 473              	.LBB120:
 474              	.LBI120:
 475              		.loc 2 598 20 view .LVU112
 476              	.LBB121:
 477              		.loc 2 600 3 view .LVU113
 478 0022 FFF7FEFF 		bl	chSchRescheduleS
 479              	.LVL30:
 480              	.LBE121:
 481              	.LBE120:
 482              		.loc 1 186 3 view .LVU114
 483              	.LBB122:
 484              	.LBI122:
 485              		.loc 2 502 20 view .LVU115
 486              		.loc 2 504 3 view .LVU116
 487              	.LBB123:
 488              	.LBI123:
 489              		.loc 3 386 20 view .LVU117
 490              	.LBB124:
 491              		.loc 3 388 22 view .LVU118
 492              		.loc 3 389 33 view .LVU119
 493              		.loc 3 395 3 view .LVU120
 494              		.loc 3 395 3 view .LVU121
 495              		.loc 3 395 3 view .LVU122
 496              		.loc 3 399 3 view .LVU123
 497              	.LBB125:
 498              	.LBI125:
 499              		.loc 4 628 20 view .LVU124
 500              		.loc 4 631 3 view .LVU125
 501              	.LBB126:
 502              	.LBI126:
 503              		.loc 5 546 57 view .LVU126
 504              	.LBB127:
 505              		.loc 5 548 3 view .LVU127
 506 0026 0023     		movs	r3, #0
 507              		.syntax unified
 508              	@ 548 "ChibiOS/os/common/ext/CMSIS/include/core_cmFunc.h" 1
 509 0028 83F31188 		MSR basepri, r3
 510              	@ 0 "" 2
 511              	.LVL31:
 512              		.loc 5 548 3 is_stmt 0 view .LVU128
 513              		.thumb
ARM GAS  C:\msys64\tmp\ccrvwsPm.s 			page 10


 514              		.syntax unified
 515              	.LBE127:
 516              	.LBE126:
 517              	.LBE125:
 518              	.LBE124:
 519              	.LBE123:
 520              	.LBE122:
 521              		.loc 1 187 1 view .LVU129
 522 002c 10BD     		pop	{r4, pc}
 523              		.loc 1 187 1 view .LVU130
 524              		.cfi_endproc
 525              	.LFE240:
 526              		.size	sdStop, .-sdStop
 527 002e 00BF     		.section	.text.sdIncomingDataI,"ax",%progbits
 528              		.align	1
 529              		.p2align 4,,15
 530              		.global	sdIncomingDataI
 531              		.syntax unified
 532              		.thumb
 533              		.thumb_func
 534              		.type	sdIncomingDataI, %function
 535              	sdIncomingDataI:
 536              	.LVL32:
 537              	.LFB241:
 538              		.loc 1 205 52 is_stmt 1 view -0
 539              		.cfi_startproc
 540              		@ args = 0, pretend = 0, frame = 0
 541              		@ frame_needed = 0, uses_anonymous_args = 0
 542              		@ link register save eliminated.
 543              		.loc 1 207 23 view .LVU132
 544              		.loc 1 208 3 view .LVU133
 545              		.loc 1 208 3 view .LVU134
 546              		.loc 1 208 3 view .LVU135
 547              		.loc 1 210 3 view .LVU136
 548              		.loc 1 211 5 view .LVU137
 549              		.loc 1 211 43 view .LVU138
 550              		.loc 1 212 3 view .LVU139
 551              		.loc 1 212 7 is_stmt 0 view .LVU140
 552 0000 0830     		adds	r0, r0, #8
 553              	.LVL33:
 554              		.loc 1 212 7 view .LVU141
 555 0002 FFF7FEBF 		b	qPutI
 556              	.LVL34:
 557              		.loc 1 212 7 view .LVU142
 558              		.cfi_endproc
 559              	.LFE241:
 560              		.size	sdIncomingDataI, .-sdIncomingDataI
 561 0006 00BF     		.section	.text.sdRequestDataI,"ax",%progbits
 562              		.align	1
 563              		.p2align 4,,15
 564              		.global	sdRequestDataI
 565              		.syntax unified
 566              		.thumb
 567              		.thumb_func
 568              		.type	sdRequestDataI, %function
 569              	sdRequestDataI:
 570              	.LVL35:
ARM GAS  C:\msys64\tmp\ccrvwsPm.s 			page 11


 571              	.LFB242:
 572              		.loc 1 231 41 is_stmt 1 view -0
 573              		.cfi_startproc
 574              		@ args = 0, pretend = 0, frame = 0
 575              		@ frame_needed = 0, uses_anonymous_args = 0
 576              		@ link register save eliminated.
 577              		.loc 1 232 3 view .LVU144
 578              		.loc 1 234 23 view .LVU145
 579              		.loc 1 235 3 view .LVU146
 580              		.loc 1 235 3 view .LVU147
 581              		.loc 1 235 3 view .LVU148
 582              		.loc 1 237 3 view .LVU149
 583              		.loc 1 237 7 is_stmt 0 view .LVU150
 584 0000 2830     		adds	r0, r0, #40
 585              	.LVL36:
 586              		.loc 1 237 7 view .LVU151
 587 0002 FFF7FEBF 		b	qGetI
 588              	.LVL37:
 589              		.loc 1 237 7 view .LVU152
 590              		.cfi_endproc
 591              	.LFE242:
 592              		.size	sdRequestDataI, .-sdRequestDataI
 593 0006 00BF     		.section	.text.sdPutWouldBlock,"ax",%progbits
 594              		.align	1
 595              		.p2align 4,,15
 596              		.global	sdPutWouldBlock
 597              		.syntax unified
 598              		.thumb
 599              		.thumb_func
 600              		.type	sdPutWouldBlock, %function
 601              	sdPutWouldBlock:
 602              	.LVL38:
 603              	.LFB243:
 604              		.loc 1 258 41 is_stmt 1 view -0
 605              		.cfi_startproc
 606              		@ args = 0, pretend = 0, frame = 0
 607              		@ frame_needed = 0, uses_anonymous_args = 0
 608              		@ link register save eliminated.
 609              		.loc 1 259 3 view .LVU154
 610              		.loc 1 261 3 view .LVU155
 611              	.LBB128:
 612              	.LBI128:
 613              		.loc 2 491 20 view .LVU156
 614              		.loc 2 493 3 view .LVU157
 615              	.LBB129:
 616              	.LBI129:
 617              		.loc 3 374 20 view .LVU158
 618              		.loc 3 376 3 view .LVU159
 619              	.LBB130:
 620              	.LBI130:
 621              		.loc 4 604 20 view .LVU160
 622              		.loc 4 612 3 view .LVU161
 623              	.LBB131:
 624              	.LBI131:
 625              		.loc 5 546 57 view .LVU162
 626              	.LBB132:
 627              		.loc 5 548 3 view .LVU163
ARM GAS  C:\msys64\tmp\ccrvwsPm.s 			page 12


 628 0000 2023     		movs	r3, #32
 629              		.syntax unified
 630              	@ 548 "ChibiOS/os/common/ext/CMSIS/include/core_cmFunc.h" 1
 631 0002 83F31188 		MSR basepri, r3
 632              	@ 0 "" 2
 633              	.LVL39:
 634              		.loc 5 548 3 is_stmt 0 view .LVU164
 635              		.thumb
 636              		.syntax unified
 637              	.LBE132:
 638              	.LBE131:
 639              	.LBE130:
 640              		.loc 3 377 34 is_stmt 1 view .LVU165
 641              		.loc 3 378 20 view .LVU166
 642              	.LBE129:
 643              	.LBE128:
 644              		.loc 1 262 3 view .LVU167
 645              		.loc 1 262 5 is_stmt 0 view .LVU168
 646 0006 D0E90E30 		ldrd	r3, r0, [r0, #56]
 647              	.LVL40:
 648              		.loc 1 262 5 view .LVU169
 649 000a 8342     		cmp	r3, r0
 650 000c 34BF     		ite	cc
 651 000e 0020     		movcc	r0, #0
 652 0010 0120     		movcs	r0, #1
 653              	.LVL41:
 654              		.loc 1 263 3 is_stmt 1 view .LVU170
 655              	.LBB133:
 656              	.LBI133:
 657              		.loc 2 502 20 view .LVU171
 658              		.loc 2 504 3 view .LVU172
 659              	.LBB134:
 660              	.LBI134:
 661              		.loc 3 386 20 view .LVU173
 662              	.LBB135:
 663              		.loc 3 388 22 view .LVU174
 664              		.loc 3 389 33 view .LVU175
 665              		.loc 3 395 3 view .LVU176
 666              		.loc 3 395 3 view .LVU177
 667              		.loc 3 395 3 view .LVU178
 668              		.loc 3 399 3 view .LVU179
 669              	.LBB136:
 670              	.LBI136:
 671              		.loc 4 628 20 view .LVU180
 672              		.loc 4 631 3 view .LVU181
 673              	.LBB137:
 674              	.LBI137:
 675              		.loc 5 546 57 view .LVU182
 676              	.LBB138:
 677              		.loc 5 548 3 view .LVU183
 678 0012 0022     		movs	r2, #0
 679              		.syntax unified
 680              	@ 548 "ChibiOS/os/common/ext/CMSIS/include/core_cmFunc.h" 1
 681 0014 82F31188 		MSR basepri, r2
 682              	@ 0 "" 2
 683              	.LVL42:
 684              		.loc 5 548 3 is_stmt 0 view .LVU184
ARM GAS  C:\msys64\tmp\ccrvwsPm.s 			page 13


 685              		.thumb
 686              		.syntax unified
 687              	.LBE138:
 688              	.LBE137:
 689              	.LBE136:
 690              	.LBE135:
 691              	.LBE134:
 692              	.LBE133:
 693              		.loc 1 265 3 is_stmt 1 view .LVU185
 694              		.loc 1 266 1 is_stmt 0 view .LVU186
 695 0018 7047     		bx	lr
 696              		.cfi_endproc
 697              	.LFE243:
 698              		.size	sdPutWouldBlock, .-sdPutWouldBlock
 699 001a 00BF     		.section	.text.sdGetWouldBlock,"ax",%progbits
 700              		.align	1
 701              		.p2align 4,,15
 702              		.global	sdGetWouldBlock
 703              		.syntax unified
 704              		.thumb
 705              		.thumb_func
 706              		.type	sdGetWouldBlock, %function
 707              	sdGetWouldBlock:
 708              	.LVL43:
 709              	.LFB244:
 710              		.loc 1 283 41 is_stmt 1 view -0
 711              		.cfi_startproc
 712              		@ args = 0, pretend = 0, frame = 0
 713              		@ frame_needed = 0, uses_anonymous_args = 0
 714              		@ link register save eliminated.
 715              		.loc 1 284 3 view .LVU188
 716              		.loc 1 286 3 view .LVU189
 717              	.LBB139:
 718              	.LBI139:
 719              		.loc 2 491 20 view .LVU190
 720              		.loc 2 493 3 view .LVU191
 721              	.LBB140:
 722              	.LBI140:
 723              		.loc 3 374 20 view .LVU192
 724              		.loc 3 376 3 view .LVU193
 725              	.LBB141:
 726              	.LBI141:
 727              		.loc 4 604 20 view .LVU194
 728              		.loc 4 612 3 view .LVU195
 729              	.LBB142:
 730              	.LBI142:
 731              		.loc 5 546 57 view .LVU196
 732              	.LBB143:
 733              		.loc 5 548 3 view .LVU197
 734 0000 2023     		movs	r3, #32
 735              		.syntax unified
 736              	@ 548 "ChibiOS/os/common/ext/CMSIS/include/core_cmFunc.h" 1
 737 0002 83F31188 		MSR basepri, r3
 738              	@ 0 "" 2
 739              	.LVL44:
 740              		.loc 5 548 3 is_stmt 0 view .LVU198
 741              		.thumb
ARM GAS  C:\msys64\tmp\ccrvwsPm.s 			page 14


 742              		.syntax unified
 743              	.LBE143:
 744              	.LBE142:
 745              	.LBE141:
 746              		.loc 3 377 34 is_stmt 1 view .LVU199
 747              		.loc 3 378 20 view .LVU200
 748              	.LBE140:
 749              	.LBE139:
 750              		.loc 1 287 3 view .LVU201
 751              		.loc 1 287 5 is_stmt 0 view .LVU202
 752 0006 8069     		ldr	r0, [r0, #24]
 753              	.LVL45:
 754              		.loc 1 287 5 view .LVU203
 755 0008 B0FA80F0 		clz	r0, r0
 756              	.LBB144:
 757              	.LBB145:
 758              	.LBB146:
 759              	.LBB147:
 760              	.LBB148:
 761              	.LBB149:
 762              		.loc 5 548 3 view .LVU204
 763 000c 0023     		movs	r3, #0
 764              	.LBE149:
 765              	.LBE148:
 766              	.LBE147:
 767              	.LBE146:
 768              	.LBE145:
 769              	.LBE144:
 770              		.loc 1 287 5 view .LVU205
 771 000e 4009     		lsrs	r0, r0, #5
 772              	.LVL46:
 773              		.loc 1 288 3 is_stmt 1 view .LVU206
 774              	.LBB155:
 775              	.LBI144:
 776              		.loc 2 502 20 view .LVU207
 777              		.loc 2 504 3 view .LVU208
 778              	.LBB154:
 779              	.LBI145:
 780              		.loc 3 386 20 view .LVU209
 781              	.LBB153:
 782              		.loc 3 388 22 view .LVU210
 783              		.loc 3 389 33 view .LVU211
 784              		.loc 3 395 3 view .LVU212
 785              		.loc 3 395 3 view .LVU213
 786              		.loc 3 395 3 view .LVU214
 787              		.loc 3 399 3 view .LVU215
 788              	.LBB152:
 789              	.LBI147:
 790              		.loc 4 628 20 view .LVU216
 791              		.loc 4 631 3 view .LVU217
 792              	.LBB151:
 793              	.LBI148:
 794              		.loc 5 546 57 view .LVU218
 795              	.LBB150:
 796              		.loc 5 548 3 view .LVU219
 797              		.syntax unified
 798              	@ 548 "ChibiOS/os/common/ext/CMSIS/include/core_cmFunc.h" 1
ARM GAS  C:\msys64\tmp\ccrvwsPm.s 			page 15


 799 0010 83F31188 		MSR basepri, r3
 800              	@ 0 "" 2
 801              	.LVL47:
 802              		.loc 5 548 3 is_stmt 0 view .LVU220
 803              		.thumb
 804              		.syntax unified
 805              	.LBE150:
 806              	.LBE151:
 807              	.LBE152:
 808              	.LBE153:
 809              	.LBE154:
 810              	.LBE155:
 811              		.loc 1 290 3 is_stmt 1 view .LVU221
 812              		.loc 1 291 1 is_stmt 0 view .LVU222
 813 0014 7047     		bx	lr
 814              		.cfi_endproc
 815              	.LFE244:
 816              		.size	sdGetWouldBlock, .-sdGetWouldBlock
 817 0016 00BF     		.section	.rodata.vmt,"a"
 818              		.align	2
 819              		.type	vmt, %object
 820              		.size	vmt, 32
 821              	vmt:
 822 0000 00000000 		.word	write
 823 0004 00000000 		.word	read
 824 0008 00000000 		.word	put
 825 000c 00000000 		.word	get
 826 0010 00000000 		.word	0
 827 0014 00000000 		.word	0
 828 0018 00000000 		.word	0
 829 001c 00000000 		.word	0
 830              		.text
 831              	.Letext0:
 832              		.file 6 "C:/Program Files (x86)/Arm GNU Toolchain arm-none-eabi/14.3 rel1/lib/gcc/arm-none-eabi/14
 833              		.file 7 "C:/Program Files (x86)/Arm GNU Toolchain arm-none-eabi/14.3 rel1/arm-none-eabi/include/ma
 834              		.file 8 "C:/Program Files (x86)/Arm GNU Toolchain arm-none-eabi/14.3 rel1/arm-none-eabi/include/sy
 835              		.file 9 "ChibiOS/os/common/ports/ARMCMx/compilers/GCC/chtypes.h"
 836              		.file 10 "ChibiOS/os/rt/include/chsystypes.h"
 837              		.file 11 "ChibiOS/os/rt/include/chschd.h"
 838              		.file 12 "ChibiOS/os/common/ext/CMSIS/ST/STM32F3xx/stm32f303xc.h"
 839              		.file 13 "ChibiOS/os/common/ports/ARMCMx/chcore.h"
 840              		.file 14 "ChibiOS/os/hal/include/hal_queues.h"
 841              		.file 15 "ChibiOS/os/hal/include/hal_serial.h"
 842              		.file 16 "ChibiOS/os/hal/ports/STM32/LLD/USARTv2/hal_serial_lld.h"
 843              		.section	.debug_info,"",%progbits
 844              	.Ldebug_info0:
 845 0000 B5110000 		.4byte	0x11b5
 846 0004 0500     		.2byte	0x5
 847 0006 01       		.byte	0x1
 848 0007 04       		.byte	0x4
 849 0008 00000000 		.4byte	.Ldebug_abbrev0
 850 000c 2C       		.uleb128 0x2c
 851 000d 4F010000 		.4byte	.LASF114
 852 0011 1D       		.byte	0x1d
 853 0012 32060000 		.4byte	.LASF115
 854 0016 DA020000 		.4byte	.LASF116
 855 001a 42000000 		.4byte	.LLRL34
ARM GAS  C:\msys64\tmp\ccrvwsPm.s 			page 16


 856 001e 00000000 		.4byte	0
 857 0022 00000000 		.4byte	.Ldebug_line0
 858 0026 0A       		.uleb128 0xa
 859 0027 08       		.byte	0x8
 860 0028 07       		.byte	0x7
 861 0029 4A000000 		.4byte	.LASF0
 862 002d 0A       		.uleb128 0xa
 863 002e 04       		.byte	0x4
 864 002f 07       		.byte	0x7
 865 0030 42010000 		.4byte	.LASF1
 866 0034 0A       		.uleb128 0xa
 867 0035 01       		.byte	0x1
 868 0036 08       		.byte	0x8
 869 0037 54040000 		.4byte	.LASF2
 870 003b 2D       		.uleb128 0x2d
 871 003c 04       		.byte	0x4
 872 003d 05       		.byte	0x5
 873 003e 696E7400 		.ascii	"int\000"
 874 0042 04       		.uleb128 0x4
 875 0043 05000000 		.4byte	.LASF6
 876 0047 06       		.byte	0x6
 877 0048 E5       		.byte	0xe5
 878 0049 17       		.byte	0x17
 879 004a 2D000000 		.4byte	0x2d
 880 004e 0A       		.uleb128 0xa
 881 004f 08       		.byte	0x8
 882 0050 05       		.byte	0x5
 883 0051 A8000000 		.4byte	.LASF3
 884 0055 0A       		.uleb128 0xa
 885 0056 08       		.byte	0x8
 886 0057 04       		.byte	0x4
 887 0058 D3030000 		.4byte	.LASF4
 888 005c 0A       		.uleb128 0xa
 889 005d 01       		.byte	0x1
 890 005e 06       		.byte	0x6
 891 005f B6000000 		.4byte	.LASF5
 892 0063 04       		.uleb128 0x4
 893 0064 25000000 		.4byte	.LASF7
 894 0068 07       		.byte	0x7
 895 0069 2B       		.byte	0x2b
 896 006a 18       		.byte	0x18
 897 006b 34000000 		.4byte	0x34
 898 006f 0A       		.uleb128 0xa
 899 0070 02       		.byte	0x2
 900 0071 05       		.byte	0x5
 901 0072 6F040000 		.4byte	.LASF8
 902 0076 04       		.uleb128 0x4
 903 0077 1E050000 		.4byte	.LASF9
 904 007b 07       		.byte	0x7
 905 007c 39       		.byte	0x39
 906 007d 19       		.byte	0x19
 907 007e 82000000 		.4byte	0x82
 908 0082 0A       		.uleb128 0xa
 909 0083 02       		.byte	0x2
 910 0084 07       		.byte	0x7
 911 0085 C7020000 		.4byte	.LASF10
 912 0089 04       		.uleb128 0x4
ARM GAS  C:\msys64\tmp\ccrvwsPm.s 			page 17


 913 008a 3C050000 		.4byte	.LASF11
 914 008e 07       		.byte	0x7
 915 008f 4D       		.byte	0x4d
 916 0090 18       		.byte	0x18
 917 0091 95000000 		.4byte	0x95
 918 0095 0A       		.uleb128 0xa
 919 0096 04       		.byte	0x4
 920 0097 05       		.byte	0x5
 921 0098 D9000000 		.4byte	.LASF12
 922 009c 04       		.uleb128 0x4
 923 009d 05010000 		.4byte	.LASF13
 924 00a1 07       		.byte	0x7
 925 00a2 4F       		.byte	0x4f
 926 00a3 19       		.byte	0x19
 927 00a4 A8000000 		.4byte	0xa8
 928 00a8 0A       		.uleb128 0xa
 929 00a9 04       		.byte	0x4
 930 00aa 07       		.byte	0x7
 931 00ab D5040000 		.4byte	.LASF14
 932 00af 04       		.uleb128 0x4
 933 00b0 05040000 		.4byte	.LASF15
 934 00b4 07       		.byte	0x7
 935 00b5 69       		.byte	0x69
 936 00b6 19       		.byte	0x19
 937 00b7 26000000 		.4byte	0x26
 938 00bb 04       		.uleb128 0x4
 939 00bc C9050000 		.4byte	.LASF16
 940 00c0 08       		.byte	0x8
 941 00c1 18       		.byte	0x18
 942 00c2 13       		.byte	0x13
 943 00c3 63000000 		.4byte	0x63
 944 00c7 0B       		.uleb128 0xb
 945 00c8 BB000000 		.4byte	0xbb
 946 00cc 04       		.uleb128 0x4
 947 00cd 89020000 		.4byte	.LASF17
 948 00d1 08       		.byte	0x8
 949 00d2 24       		.byte	0x24
 950 00d3 14       		.byte	0x14
 951 00d4 76000000 		.4byte	0x76
 952 00d8 1D       		.uleb128 0x1d
 953 00d9 CC000000 		.4byte	0xcc
 954 00dd 04       		.uleb128 0x4
 955 00de 4C040000 		.4byte	.LASF18
 956 00e2 08       		.byte	0x8
 957 00e3 2C       		.byte	0x2c
 958 00e4 13       		.byte	0x13
 959 00e5 89000000 		.4byte	0x89
 960 00e9 04       		.uleb128 0x4
 961 00ea BA040000 		.4byte	.LASF19
 962 00ee 08       		.byte	0x8
 963 00ef 30       		.byte	0x30
 964 00f0 14       		.byte	0x14
 965 00f1 9C000000 		.4byte	0x9c
 966 00f5 1D       		.uleb128 0x1d
 967 00f6 E9000000 		.4byte	0xe9
 968 00fa 04       		.uleb128 0x4
 969 00fb 1C000000 		.4byte	.LASF20
ARM GAS  C:\msys64\tmp\ccrvwsPm.s 			page 18


 970 00ff 08       		.byte	0x8
 971 0100 3C       		.byte	0x3c
 972 0101 14       		.byte	0x14
 973 0102 AF000000 		.4byte	0xaf
 974 0106 04       		.uleb128 0x4
 975 0107 61030000 		.4byte	.LASF21
 976 010b 09       		.byte	0x9
 977 010c 3C       		.byte	0x3c
 978 010d 1D       		.byte	0x1d
 979 010e BB000000 		.4byte	0xbb
 980 0112 04       		.uleb128 0x4
 981 0113 E2000000 		.4byte	.LASF22
 982 0117 09       		.byte	0x9
 983 0118 3D       		.byte	0x3d
 984 0119 1D       		.byte	0x1d
 985 011a BB000000 		.4byte	0xbb
 986 011e 04       		.uleb128 0x4
 987 011f 3E040000 		.4byte	.LASF23
 988 0123 09       		.byte	0x9
 989 0124 40       		.byte	0x40
 990 0125 1D       		.byte	0x1d
 991 0126 E9000000 		.4byte	0xe9
 992 012a 04       		.uleb128 0x4
 993 012b 46030000 		.4byte	.LASF24
 994 012f 09       		.byte	0x9
 995 0130 41       		.byte	0x41
 996 0131 1D       		.byte	0x1d
 997 0132 DD000000 		.4byte	0xdd
 998 0136 04       		.uleb128 0x4
 999 0137 32050000 		.4byte	.LASF25
 1000 013b 0A       		.byte	0xa
 1001 013c 33       		.byte	0x33
 1002 013d 12       		.byte	0x12
 1003 013e E9000000 		.4byte	0xe9
 1004 0142 04       		.uleb128 0x4
 1005 0143 29050000 		.4byte	.LASF26
 1006 0147 0A       		.byte	0xa
 1007 0148 3F       		.byte	0x3f
 1008 0149 1A       		.byte	0x1a
 1009 014a 4E010000 		.4byte	0x14e
 1010 014e 10       		.uleb128 0x10
 1011 014f 3C030000 		.4byte	.LASF34
 1012 0153 1C       		.byte	0x1c
 1013 0154 0B       		.byte	0xb
 1014 0155 9A       		.byte	0x9a
 1015 0156 B5010000 		.4byte	0x1b5
 1016 015a 05       		.uleb128 0x5
 1017 015b C1020000 		.4byte	.LASF27
 1018 015f 0B       		.byte	0xb
 1019 0160 9B       		.byte	0x9b
 1020 0161 19       		.byte	0x19
 1021 0162 C6010000 		.4byte	0x1c6
 1022 0166 00       		.byte	0
 1023 0167 05       		.uleb128 0x5
 1024 0168 F3030000 		.4byte	.LASF28
 1025 016c 0B       		.byte	0xb
 1026 016d 9C       		.byte	0x9c
ARM GAS  C:\msys64\tmp\ccrvwsPm.s 			page 19


 1027 016e 19       		.byte	0x19
 1028 016f 1E010000 		.4byte	0x11e
 1029 0173 08       		.byte	0x8
 1030 0174 0E       		.uleb128 0xe
 1031 0175 63747800 		.ascii	"ctx\000"
 1032 0179 0B       		.byte	0xb
 1033 017a 9D       		.byte	0x9d
 1034 017b 19       		.byte	0x19
 1035 017c DF020000 		.4byte	0x2df
 1036 0180 0C       		.byte	0xc
 1037 0181 05       		.uleb128 0x5
 1038 0182 E7040000 		.4byte	.LASF29
 1039 0186 0B       		.byte	0xb
 1040 0187 B0       		.byte	0xb0
 1041 0188 1A       		.byte	0x1a
 1042 0189 9E040000 		.4byte	0x49e
 1043 018d 10       		.byte	0x10
 1044 018e 05       		.uleb128 0x5
 1045 018f D3000000 		.4byte	.LASF30
 1046 0193 0B       		.byte	0xb
 1047 0194 B5       		.byte	0xb5
 1048 0195 19       		.byte	0x19
 1049 0196 12010000 		.4byte	0x112
 1050 019a 14       		.byte	0x14
 1051 019b 05       		.uleb128 0x5
 1052 019c D1050000 		.4byte	.LASF31
 1053 01a0 0B       		.byte	0xb
 1054 01a1 B9       		.byte	0xb9
 1055 01a2 19       		.byte	0x19
 1056 01a3 06010000 		.4byte	0x106
 1057 01a7 15       		.byte	0x15
 1058 01a8 02       		.uleb128 0x2
 1059 01a9 7500     		.ascii	"u\000"
 1060 01ab 0B       		.byte	0xb
 1061 01ac 0F01     		.2byte	0x10f
 1062 01ae 19       		.byte	0x19
 1063 01af 63040000 		.4byte	0x463
 1064 01b3 18       		.byte	0x18
 1065 01b4 00       		.byte	0
 1066 01b5 04       		.uleb128 0x4
 1067 01b6 B6030000 		.4byte	.LASF32
 1068 01ba 0A       		.byte	0xa
 1069 01bb 44       		.byte	0x44
 1070 01bc 14       		.byte	0x14
 1071 01bd C1010000 		.4byte	0x1c1
 1072 01c1 06       		.uleb128 0x6
 1073 01c2 42010000 		.4byte	0x142
 1074 01c6 04       		.uleb128 0x4
 1075 01c7 9A050000 		.4byte	.LASF33
 1076 01cb 0A       		.byte	0xa
 1077 01cc 50       		.byte	0x50
 1078 01cd 21       		.byte	0x21
 1079 01ce D2010000 		.4byte	0x1d2
 1080 01d2 10       		.uleb128 0x10
 1081 01d3 7A000000 		.4byte	.LASF35
 1082 01d7 08       		.byte	0x8
 1083 01d8 0B       		.byte	0xb
ARM GAS  C:\msys64\tmp\ccrvwsPm.s 			page 20


 1084 01d9 8F       		.byte	0x8f
 1085 01da F9010000 		.4byte	0x1f9
 1086 01de 05       		.uleb128 0x5
 1087 01df 75000000 		.4byte	.LASF36
 1088 01e3 0B       		.byte	0xb
 1089 01e4 90       		.byte	0x90
 1090 01e5 1A       		.byte	0x1a
 1091 01e6 C1010000 		.4byte	0x1c1
 1092 01ea 00       		.byte	0
 1093 01eb 05       		.uleb128 0x5
 1094 01ec 00000000 		.4byte	.LASF37
 1095 01f0 0B       		.byte	0xb
 1096 01f1 91       		.byte	0x91
 1097 01f2 1A       		.byte	0x1a
 1098 01f3 C1010000 		.4byte	0x1c1
 1099 01f7 04       		.byte	0x4
 1100 01f8 00       		.byte	0
 1101 01f9 2E       		.uleb128 0x2e
 1102 01fa 04       		.byte	0x4
 1103 01fb 1E       		.uleb128 0x1e
 1104 01fc 2C       		.byte	0x2c
 1105 01fd 0C       		.byte	0xc
 1106 01fe 8502     		.2byte	0x285
 1107 0200 BB020000 		.4byte	0x2bb
 1108 0204 02       		.uleb128 0x2
 1109 0205 43523100 		.ascii	"CR1\000"
 1110 0209 0C       		.byte	0xc
 1111 020a 8702     		.2byte	0x287
 1112 020c 11       		.byte	0x11
 1113 020d F5000000 		.4byte	0xf5
 1114 0211 00       		.byte	0
 1115 0212 02       		.uleb128 0x2
 1116 0213 43523200 		.ascii	"CR2\000"
 1117 0217 0C       		.byte	0xc
 1118 0218 8802     		.2byte	0x288
 1119 021a 11       		.byte	0x11
 1120 021b F5000000 		.4byte	0xf5
 1121 021f 04       		.byte	0x4
 1122 0220 02       		.uleb128 0x2
 1123 0221 43523300 		.ascii	"CR3\000"
 1124 0225 0C       		.byte	0xc
 1125 0226 8902     		.2byte	0x289
 1126 0228 11       		.byte	0x11
 1127 0229 F5000000 		.4byte	0xf5
 1128 022d 08       		.byte	0x8
 1129 022e 02       		.uleb128 0x2
 1130 022f 42525200 		.ascii	"BRR\000"
 1131 0233 0C       		.byte	0xc
 1132 0234 8A02     		.2byte	0x28a
 1133 0236 11       		.byte	0x11
 1134 0237 F5000000 		.4byte	0xf5
 1135 023b 0C       		.byte	0xc
 1136 023c 15       		.uleb128 0x15
 1137 023d C2000000 		.4byte	.LASF38
 1138 0241 0C       		.byte	0xc
 1139 0242 8B02     		.2byte	0x28b
 1140 0244 11       		.byte	0x11
ARM GAS  C:\msys64\tmp\ccrvwsPm.s 			page 21


 1141 0245 F5000000 		.4byte	0xf5
 1142 0249 10       		.byte	0x10
 1143 024a 15       		.uleb128 0x15
 1144 024b 5A050000 		.4byte	.LASF39
 1145 024f 0C       		.byte	0xc
 1146 0250 8C02     		.2byte	0x28c
 1147 0252 11       		.byte	0x11
 1148 0253 F5000000 		.4byte	0xf5
 1149 0257 14       		.byte	0x14
 1150 0258 02       		.uleb128 0x2
 1151 0259 52515200 		.ascii	"RQR\000"
 1152 025d 0C       		.byte	0xc
 1153 025e 8D02     		.2byte	0x28d
 1154 0260 11       		.byte	0x11
 1155 0261 F5000000 		.4byte	0xf5
 1156 0265 18       		.byte	0x18
 1157 0266 02       		.uleb128 0x2
 1158 0267 49535200 		.ascii	"ISR\000"
 1159 026b 0C       		.byte	0xc
 1160 026c 8E02     		.2byte	0x28e
 1161 026e 11       		.byte	0x11
 1162 026f F5000000 		.4byte	0xf5
 1163 0273 1C       		.byte	0x1c
 1164 0274 02       		.uleb128 0x2
 1165 0275 49435200 		.ascii	"ICR\000"
 1166 0279 0C       		.byte	0xc
 1167 027a 8F02     		.2byte	0x28f
 1168 027c 11       		.byte	0x11
 1169 027d F5000000 		.4byte	0xf5
 1170 0281 20       		.byte	0x20
 1171 0282 02       		.uleb128 0x2
 1172 0283 52445200 		.ascii	"RDR\000"
 1173 0287 0C       		.byte	0xc
 1174 0288 9002     		.2byte	0x290
 1175 028a 11       		.byte	0x11
 1176 028b D8000000 		.4byte	0xd8
 1177 028f 24       		.byte	0x24
 1178 0290 15       		.uleb128 0x15
 1179 0291 22040000 		.4byte	.LASF40
 1180 0295 0C       		.byte	0xc
 1181 0296 9102     		.2byte	0x291
 1182 0298 0D       		.byte	0xd
 1183 0299 CC000000 		.4byte	0xcc
 1184 029d 26       		.byte	0x26
 1185 029e 02       		.uleb128 0x2
 1186 029f 54445200 		.ascii	"TDR\000"
 1187 02a3 0C       		.byte	0xc
 1188 02a4 9202     		.2byte	0x292
 1189 02a6 11       		.byte	0x11
 1190 02a7 D8000000 		.4byte	0xd8
 1191 02ab 28       		.byte	0x28
 1192 02ac 15       		.uleb128 0x15
 1193 02ad 2C040000 		.4byte	.LASF41
 1194 02b1 0C       		.byte	0xc
 1195 02b2 9302     		.2byte	0x293
 1196 02b4 0D       		.byte	0xd
 1197 02b5 CC000000 		.4byte	0xcc
ARM GAS  C:\msys64\tmp\ccrvwsPm.s 			page 22


 1198 02b9 2A       		.byte	0x2a
 1199 02ba 00       		.byte	0
 1200 02bb 1F       		.uleb128 0x1f
 1201 02bc 4C030000 		.4byte	.LASF42
 1202 02c0 0C       		.byte	0xc
 1203 02c1 9402     		.2byte	0x294
 1204 02c3 FB010000 		.4byte	0x1fb
 1205 02c7 04       		.uleb128 0x4
 1206 02c8 10010000 		.4byte	.LASF43
 1207 02cc 0D       		.byte	0xd
 1208 02cd 65       		.byte	0x65
 1209 02ce 0F       		.byte	0xf
 1210 02cf F9010000 		.4byte	0x1f9
 1211 02d3 04       		.uleb128 0x4
 1212 02d4 85030000 		.4byte	.LASF44
 1213 02d8 0D       		.byte	0xd
 1214 02d9 6D       		.byte	0x6d
 1215 02da 12       		.byte	0x12
 1216 02db FA000000 		.4byte	0xfa
 1217 02df 10       		.uleb128 0x10
 1218 02e0 DF030000 		.4byte	.LASF45
 1219 02e4 04       		.byte	0x4
 1220 02e5 0D       		.byte	0xd
 1221 02e6 89       		.byte	0x89
 1222 02e7 F8020000 		.4byte	0x2f8
 1223 02eb 0E       		.uleb128 0xe
 1224 02ec 737000   		.ascii	"sp\000"
 1225 02ef 0D       		.byte	0xd
 1226 02f0 8A       		.byte	0x8a
 1227 02f1 17       		.byte	0x17
 1228 02f2 5E040000 		.4byte	0x45e
 1229 02f6 00       		.byte	0
 1230 02f7 00       		.byte	0
 1231 02f8 2F       		.uleb128 0x2f
 1232 02f9 34000000 		.4byte	.LASF46
 1233 02fd 64       		.byte	0x64
 1234 02fe 04       		.byte	0x4
 1235 02ff 6001     		.2byte	0x160
 1236 0301 08       		.byte	0x8
 1237 0302 5E040000 		.4byte	0x45e
 1238 0306 02       		.uleb128 0x2
 1239 0307 73313600 		.ascii	"s16\000"
 1240 030b 04       		.byte	0x4
 1241 030c 6201     		.2byte	0x162
 1242 030e 11       		.byte	0x11
 1243 030f C7020000 		.4byte	0x2c7
 1244 0313 00       		.byte	0
 1245 0314 02       		.uleb128 0x2
 1246 0315 73313700 		.ascii	"s17\000"
 1247 0319 04       		.byte	0x4
 1248 031a 6301     		.2byte	0x163
 1249 031c 11       		.byte	0x11
 1250 031d C7020000 		.4byte	0x2c7
 1251 0321 04       		.byte	0x4
 1252 0322 02       		.uleb128 0x2
 1253 0323 73313800 		.ascii	"s18\000"
 1254 0327 04       		.byte	0x4
ARM GAS  C:\msys64\tmp\ccrvwsPm.s 			page 23


 1255 0328 6401     		.2byte	0x164
 1256 032a 11       		.byte	0x11
 1257 032b C7020000 		.4byte	0x2c7
 1258 032f 08       		.byte	0x8
 1259 0330 02       		.uleb128 0x2
 1260 0331 73313900 		.ascii	"s19\000"
 1261 0335 04       		.byte	0x4
 1262 0336 6501     		.2byte	0x165
 1263 0338 11       		.byte	0x11
 1264 0339 C7020000 		.4byte	0x2c7
 1265 033d 0C       		.byte	0xc
 1266 033e 02       		.uleb128 0x2
 1267 033f 73323000 		.ascii	"s20\000"
 1268 0343 04       		.byte	0x4
 1269 0344 6601     		.2byte	0x166
 1270 0346 11       		.byte	0x11
 1271 0347 C7020000 		.4byte	0x2c7
 1272 034b 10       		.byte	0x10
 1273 034c 02       		.uleb128 0x2
 1274 034d 73323100 		.ascii	"s21\000"
 1275 0351 04       		.byte	0x4
 1276 0352 6701     		.2byte	0x167
 1277 0354 11       		.byte	0x11
 1278 0355 C7020000 		.4byte	0x2c7
 1279 0359 14       		.byte	0x14
 1280 035a 02       		.uleb128 0x2
 1281 035b 73323200 		.ascii	"s22\000"
 1282 035f 04       		.byte	0x4
 1283 0360 6801     		.2byte	0x168
 1284 0362 11       		.byte	0x11
 1285 0363 C7020000 		.4byte	0x2c7
 1286 0367 18       		.byte	0x18
 1287 0368 02       		.uleb128 0x2
 1288 0369 73323300 		.ascii	"s23\000"
 1289 036d 04       		.byte	0x4
 1290 036e 6901     		.2byte	0x169
 1291 0370 11       		.byte	0x11
 1292 0371 C7020000 		.4byte	0x2c7
 1293 0375 1C       		.byte	0x1c
 1294 0376 02       		.uleb128 0x2
 1295 0377 73323400 		.ascii	"s24\000"
 1296 037b 04       		.byte	0x4
 1297 037c 6A01     		.2byte	0x16a
 1298 037e 11       		.byte	0x11
 1299 037f C7020000 		.4byte	0x2c7
 1300 0383 20       		.byte	0x20
 1301 0384 02       		.uleb128 0x2
 1302 0385 73323500 		.ascii	"s25\000"
 1303 0389 04       		.byte	0x4
 1304 038a 6B01     		.2byte	0x16b
 1305 038c 11       		.byte	0x11
 1306 038d C7020000 		.4byte	0x2c7
 1307 0391 24       		.byte	0x24
 1308 0392 02       		.uleb128 0x2
 1309 0393 73323600 		.ascii	"s26\000"
 1310 0397 04       		.byte	0x4
 1311 0398 6C01     		.2byte	0x16c
ARM GAS  C:\msys64\tmp\ccrvwsPm.s 			page 24


 1312 039a 11       		.byte	0x11
 1313 039b C7020000 		.4byte	0x2c7
 1314 039f 28       		.byte	0x28
 1315 03a0 02       		.uleb128 0x2
 1316 03a1 73323700 		.ascii	"s27\000"
 1317 03a5 04       		.byte	0x4
 1318 03a6 6D01     		.2byte	0x16d
 1319 03a8 11       		.byte	0x11
 1320 03a9 C7020000 		.4byte	0x2c7
 1321 03ad 2C       		.byte	0x2c
 1322 03ae 02       		.uleb128 0x2
 1323 03af 73323800 		.ascii	"s28\000"
 1324 03b3 04       		.byte	0x4
 1325 03b4 6E01     		.2byte	0x16e
 1326 03b6 11       		.byte	0x11
 1327 03b7 C7020000 		.4byte	0x2c7
 1328 03bb 30       		.byte	0x30
 1329 03bc 02       		.uleb128 0x2
 1330 03bd 73323900 		.ascii	"s29\000"
 1331 03c1 04       		.byte	0x4
 1332 03c2 6F01     		.2byte	0x16f
 1333 03c4 11       		.byte	0x11
 1334 03c5 C7020000 		.4byte	0x2c7
 1335 03c9 34       		.byte	0x34
 1336 03ca 02       		.uleb128 0x2
 1337 03cb 73333000 		.ascii	"s30\000"
 1338 03cf 04       		.byte	0x4
 1339 03d0 7001     		.2byte	0x170
 1340 03d2 11       		.byte	0x11
 1341 03d3 C7020000 		.4byte	0x2c7
 1342 03d7 38       		.byte	0x38
 1343 03d8 02       		.uleb128 0x2
 1344 03d9 73333100 		.ascii	"s31\000"
 1345 03dd 04       		.byte	0x4
 1346 03de 7101     		.2byte	0x171
 1347 03e0 11       		.byte	0x11
 1348 03e1 C7020000 		.4byte	0x2c7
 1349 03e5 3C       		.byte	0x3c
 1350 03e6 02       		.uleb128 0x2
 1351 03e7 723400   		.ascii	"r4\000"
 1352 03ea 04       		.byte	0x4
 1353 03eb 7301     		.2byte	0x173
 1354 03ed 11       		.byte	0x11
 1355 03ee C7020000 		.4byte	0x2c7
 1356 03f2 40       		.byte	0x40
 1357 03f3 02       		.uleb128 0x2
 1358 03f4 723500   		.ascii	"r5\000"
 1359 03f7 04       		.byte	0x4
 1360 03f8 7401     		.2byte	0x174
 1361 03fa 11       		.byte	0x11
 1362 03fb C7020000 		.4byte	0x2c7
 1363 03ff 44       		.byte	0x44
 1364 0400 02       		.uleb128 0x2
 1365 0401 723600   		.ascii	"r6\000"
 1366 0404 04       		.byte	0x4
 1367 0405 7501     		.2byte	0x175
 1368 0407 11       		.byte	0x11
ARM GAS  C:\msys64\tmp\ccrvwsPm.s 			page 25


 1369 0408 C7020000 		.4byte	0x2c7
 1370 040c 48       		.byte	0x48
 1371 040d 02       		.uleb128 0x2
 1372 040e 723700   		.ascii	"r7\000"
 1373 0411 04       		.byte	0x4
 1374 0412 7601     		.2byte	0x176
 1375 0414 11       		.byte	0x11
 1376 0415 C7020000 		.4byte	0x2c7
 1377 0419 4C       		.byte	0x4c
 1378 041a 02       		.uleb128 0x2
 1379 041b 723800   		.ascii	"r8\000"
 1380 041e 04       		.byte	0x4
 1381 041f 7701     		.2byte	0x177
 1382 0421 11       		.byte	0x11
 1383 0422 C7020000 		.4byte	0x2c7
 1384 0426 50       		.byte	0x50
 1385 0427 02       		.uleb128 0x2
 1386 0428 723900   		.ascii	"r9\000"
 1387 042b 04       		.byte	0x4
 1388 042c 7801     		.2byte	0x178
 1389 042e 11       		.byte	0x11
 1390 042f C7020000 		.4byte	0x2c7
 1391 0433 54       		.byte	0x54
 1392 0434 02       		.uleb128 0x2
 1393 0435 72313000 		.ascii	"r10\000"
 1394 0439 04       		.byte	0x4
 1395 043a 7901     		.2byte	0x179
 1396 043c 11       		.byte	0x11
 1397 043d C7020000 		.4byte	0x2c7
 1398 0441 58       		.byte	0x58
 1399 0442 02       		.uleb128 0x2
 1400 0443 72313100 		.ascii	"r11\000"
 1401 0447 04       		.byte	0x4
 1402 0448 7A01     		.2byte	0x17a
 1403 044a 11       		.byte	0x11
 1404 044b C7020000 		.4byte	0x2c7
 1405 044f 5C       		.byte	0x5c
 1406 0450 02       		.uleb128 0x2
 1407 0451 6C7200   		.ascii	"lr\000"
 1408 0454 04       		.byte	0x4
 1409 0455 7B01     		.2byte	0x17b
 1410 0457 11       		.byte	0x11
 1411 0458 C7020000 		.4byte	0x2c7
 1412 045c 60       		.byte	0x60
 1413 045d 00       		.byte	0
 1414 045e 06       		.uleb128 0x6
 1415 045f F8020000 		.4byte	0x2f8
 1416 0463 30       		.uleb128 0x30
 1417 0464 04       		.byte	0x4
 1418 0465 0B       		.byte	0xb
 1419 0466 D2       		.byte	0xd2
 1420 0467 03       		.byte	0x3
 1421 0468 99040000 		.4byte	0x499
 1422 046c 18       		.uleb128 0x18
 1423 046d AA050000 		.4byte	.LASF47
 1424 0471 D9       		.byte	0xd9
 1425 0472 19       		.byte	0x19
ARM GAS  C:\msys64\tmp\ccrvwsPm.s 			page 26


 1426 0473 2A010000 		.4byte	0x12a
 1427 0477 18       		.uleb128 0x18
 1428 0478 61000000 		.4byte	.LASF48
 1429 047c E0       		.byte	0xe0
 1430 047d 19       		.byte	0x19
 1431 047e 2A010000 		.4byte	0x12a
 1432 0482 18       		.uleb128 0x18
 1433 0483 ED050000 		.4byte	.LASF49
 1434 0487 E7       		.byte	0xe7
 1435 0488 1A       		.byte	0x1a
 1436 0489 F9010000 		.4byte	0x1f9
 1437 048d 18       		.uleb128 0x18
 1438 048e AA020000 		.4byte	.LASF50
 1439 0492 EE       		.byte	0xee
 1440 0493 1A       		.byte	0x1a
 1441 0494 99040000 		.4byte	0x499
 1442 0498 00       		.byte	0
 1443 0499 06       		.uleb128 0x6
 1444 049a B5010000 		.4byte	0x1b5
 1445 049e 06       		.uleb128 0x6
 1446 049f D3020000 		.4byte	0x2d3
 1447 04a3 0A       		.uleb128 0xa
 1448 04a4 01       		.byte	0x1
 1449 04a5 08       		.byte	0x8
 1450 04a6 F3040000 		.4byte	.LASF51
 1451 04aa 0B       		.uleb128 0xb
 1452 04ab A3040000 		.4byte	0x4a3
 1453 04af 0C       		.uleb128 0xc
 1454 04b0 42000000 		.4byte	0x42
 1455 04b4 C8040000 		.4byte	0x4c8
 1456 04b8 01       		.uleb128 0x1
 1457 04b9 F9010000 		.4byte	0x1f9
 1458 04bd 01       		.uleb128 0x1
 1459 04be C8040000 		.4byte	0x4c8
 1460 04c2 01       		.uleb128 0x1
 1461 04c3 42000000 		.4byte	0x42
 1462 04c7 00       		.byte	0
 1463 04c8 06       		.uleb128 0x6
 1464 04c9 C7000000 		.4byte	0xc7
 1465 04cd 06       		.uleb128 0x6
 1466 04ce AF040000 		.4byte	0x4af
 1467 04d2 0C       		.uleb128 0xc
 1468 04d3 42000000 		.4byte	0x42
 1469 04d7 EB040000 		.4byte	0x4eb
 1470 04db 01       		.uleb128 0x1
 1471 04dc F9010000 		.4byte	0x1f9
 1472 04e0 01       		.uleb128 0x1
 1473 04e1 EB040000 		.4byte	0x4eb
 1474 04e5 01       		.uleb128 0x1
 1475 04e6 42000000 		.4byte	0x42
 1476 04ea 00       		.byte	0
 1477 04eb 06       		.uleb128 0x6
 1478 04ec BB000000 		.4byte	0xbb
 1479 04f0 06       		.uleb128 0x6
 1480 04f1 D2040000 		.4byte	0x4d2
 1481 04f5 0C       		.uleb128 0xc
 1482 04f6 2A010000 		.4byte	0x12a
ARM GAS  C:\msys64\tmp\ccrvwsPm.s 			page 27


 1483 04fa 09050000 		.4byte	0x509
 1484 04fe 01       		.uleb128 0x1
 1485 04ff F9010000 		.4byte	0x1f9
 1486 0503 01       		.uleb128 0x1
 1487 0504 BB000000 		.4byte	0xbb
 1488 0508 00       		.byte	0
 1489 0509 06       		.uleb128 0x6
 1490 050a F5040000 		.4byte	0x4f5
 1491 050e 0C       		.uleb128 0xc
 1492 050f 2A010000 		.4byte	0x12a
 1493 0513 1D050000 		.4byte	0x51d
 1494 0517 01       		.uleb128 0x1
 1495 0518 F9010000 		.4byte	0x1f9
 1496 051c 00       		.byte	0
 1497 051d 06       		.uleb128 0x6
 1498 051e 0E050000 		.4byte	0x50e
 1499 0522 0C       		.uleb128 0xc
 1500 0523 2A010000 		.4byte	0x12a
 1501 0527 3B050000 		.4byte	0x53b
 1502 052b 01       		.uleb128 0x1
 1503 052c F9010000 		.4byte	0x1f9
 1504 0530 01       		.uleb128 0x1
 1505 0531 BB000000 		.4byte	0xbb
 1506 0535 01       		.uleb128 0x1
 1507 0536 36010000 		.4byte	0x136
 1508 053a 00       		.byte	0
 1509 053b 06       		.uleb128 0x6
 1510 053c 22050000 		.4byte	0x522
 1511 0540 0C       		.uleb128 0xc
 1512 0541 2A010000 		.4byte	0x12a
 1513 0545 54050000 		.4byte	0x554
 1514 0549 01       		.uleb128 0x1
 1515 054a F9010000 		.4byte	0x1f9
 1516 054e 01       		.uleb128 0x1
 1517 054f 36010000 		.4byte	0x136
 1518 0553 00       		.byte	0
 1519 0554 06       		.uleb128 0x6
 1520 0555 40050000 		.4byte	0x540
 1521 0559 0C       		.uleb128 0xc
 1522 055a 42000000 		.4byte	0x42
 1523 055e 77050000 		.4byte	0x577
 1524 0562 01       		.uleb128 0x1
 1525 0563 F9010000 		.4byte	0x1f9
 1526 0567 01       		.uleb128 0x1
 1527 0568 C8040000 		.4byte	0x4c8
 1528 056c 01       		.uleb128 0x1
 1529 056d 42000000 		.4byte	0x42
 1530 0571 01       		.uleb128 0x1
 1531 0572 36010000 		.4byte	0x136
 1532 0576 00       		.byte	0
 1533 0577 06       		.uleb128 0x6
 1534 0578 59050000 		.4byte	0x559
 1535 057c 0C       		.uleb128 0xc
 1536 057d 42000000 		.4byte	0x42
 1537 0581 9A050000 		.4byte	0x59a
 1538 0585 01       		.uleb128 0x1
 1539 0586 F9010000 		.4byte	0x1f9
ARM GAS  C:\msys64\tmp\ccrvwsPm.s 			page 28


 1540 058a 01       		.uleb128 0x1
 1541 058b EB040000 		.4byte	0x4eb
 1542 058f 01       		.uleb128 0x1
 1543 0590 42000000 		.4byte	0x42
 1544 0594 01       		.uleb128 0x1
 1545 0595 36010000 		.4byte	0x136
 1546 0599 00       		.byte	0
 1547 059a 06       		.uleb128 0x6
 1548 059b 7C050000 		.4byte	0x57c
 1549 059f 0A       		.uleb128 0xa
 1550 05a0 01       		.byte	0x1
 1551 05a1 02       		.byte	0x2
 1552 05a2 46040000 		.4byte	.LASF52
 1553 05a6 04       		.uleb128 0x4
 1554 05a7 6A000000 		.4byte	.LASF53
 1555 05ab 0E       		.byte	0xe
 1556 05ac 2A       		.byte	0x2a
 1557 05ad 19       		.byte	0x19
 1558 05ae B2050000 		.4byte	0x5b2
 1559 05b2 10       		.uleb128 0x10
 1560 05b3 33010000 		.4byte	.LASF54
 1561 05b7 20       		.byte	0x20
 1562 05b8 0E       		.byte	0xe
 1563 05b9 40       		.byte	0x40
 1564 05ba 1A060000 		.4byte	0x61a
 1565 05be 05       		.uleb128 0x5
 1566 05bf 9E000000 		.4byte	.LASF55
 1567 05c3 0E       		.byte	0xe
 1568 05c4 41       		.byte	0x41
 1569 05c5 19       		.byte	0x19
 1570 05c6 C6010000 		.4byte	0x1c6
 1571 05ca 00       		.byte	0
 1572 05cb 05       		.uleb128 0x5
 1573 05cc B1050000 		.4byte	.LASF56
 1574 05d0 0E       		.byte	0xe
 1575 05d1 42       		.byte	0x42
 1576 05d2 19       		.byte	0x19
 1577 05d3 1A060000 		.4byte	0x61a
 1578 05d7 08       		.byte	0x8
 1579 05d8 05       		.uleb128 0x5
 1580 05d9 EB000000 		.4byte	.LASF57
 1581 05dd 0E       		.byte	0xe
 1582 05de 43       		.byte	0x43
 1583 05df 1A       		.byte	0x1a
 1584 05e0 EB040000 		.4byte	0x4eb
 1585 05e4 0C       		.byte	0xc
 1586 05e5 05       		.uleb128 0x5
 1587 05e6 C9030000 		.4byte	.LASF58
 1588 05ea 0E       		.byte	0xe
 1589 05eb 44       		.byte	0x44
 1590 05ec 19       		.byte	0x19
 1591 05ed 3B060000 		.4byte	0x63b
 1592 05f1 10       		.byte	0x10
 1593 05f2 05       		.uleb128 0x5
 1594 05f3 08050000 		.4byte	.LASF59
 1595 05f7 0E       		.byte	0xe
 1596 05f8 45       		.byte	0x45
ARM GAS  C:\msys64\tmp\ccrvwsPm.s 			page 29


 1597 05f9 19       		.byte	0x19
 1598 05fa 3B060000 		.4byte	0x63b
 1599 05fe 14       		.byte	0x14
 1600 05ff 05       		.uleb128 0x5
 1601 0600 C3040000 		.4byte	.LASF60
 1602 0604 0E       		.byte	0xe
 1603 0605 46       		.byte	0x46
 1604 0606 19       		.byte	0x19
 1605 0607 3B060000 		.4byte	0x63b
 1606 060b 18       		.byte	0x18
 1607 060c 05       		.uleb128 0x5
 1608 060d 2F000000 		.4byte	.LASF61
 1609 0611 0E       		.byte	0xe
 1610 0612 47       		.byte	0x47
 1611 0613 19       		.byte	0x19
 1612 0614 3B060000 		.4byte	0x63b
 1613 0618 1C       		.byte	0x1c
 1614 0619 00       		.byte	0
 1615 061a 04       		.uleb128 0x4
 1616 061b 7B030000 		.4byte	.LASF62
 1617 061f 0E       		.byte	0xe
 1618 0620 31       		.byte	0x31
 1619 0621 10       		.byte	0x10
 1620 0622 26060000 		.4byte	0x626
 1621 0626 06       		.uleb128 0x6
 1622 0627 2B060000 		.4byte	0x62b
 1623 062b 31       		.uleb128 0x31
 1624 062c 36060000 		.4byte	0x636
 1625 0630 01       		.uleb128 0x1
 1626 0631 36060000 		.4byte	0x636
 1627 0635 00       		.byte	0
 1628 0636 06       		.uleb128 0x6
 1629 0637 A6050000 		.4byte	0x5a6
 1630 063b 04       		.uleb128 0x4
 1631 063c 19010000 		.4byte	.LASF63
 1632 0640 0E       		.byte	0xe
 1633 0641 36       		.byte	0x36
 1634 0642 16       		.byte	0x16
 1635 0643 42000000 		.4byte	0x42
 1636 0647 04       		.uleb128 0x4
 1637 0648 96030000 		.4byte	.LASF64
 1638 064c 0E       		.byte	0xe
 1639 064d 6E       		.byte	0x6e
 1640 064e 14       		.byte	0x14
 1641 064f A6050000 		.4byte	0x5a6
 1642 0653 04       		.uleb128 0x4
 1643 0654 68050000 		.4byte	.LASF65
 1644 0658 0E       		.byte	0xe
 1645 0659 6F       		.byte	0x6f
 1646 065a 14       		.byte	0x14
 1647 065b A6050000 		.4byte	0x5a6
 1648 065f 32       		.uleb128 0x32
 1649 0660 07       		.byte	0x7
 1650 0661 01       		.byte	0x1
 1651 0662 34000000 		.4byte	0x34
 1652 0666 0F       		.byte	0xf
 1653 0667 58       		.byte	0x58
ARM GAS  C:\msys64\tmp\ccrvwsPm.s 			page 30


 1654 0668 0E       		.byte	0xe
 1655 0669 80060000 		.4byte	0x680
 1656 066d 19       		.uleb128 0x19
 1657 066e B0040000 		.4byte	.LASF66
 1658 0672 00       		.byte	0
 1659 0673 19       		.uleb128 0x19
 1660 0674 36040000 		.4byte	.LASF67
 1661 0678 01       		.byte	0x1
 1662 0679 19       		.uleb128 0x19
 1663 067a 5F050000 		.4byte	.LASF68
 1664 067e 02       		.byte	0x2
 1665 067f 00       		.byte	0
 1666 0680 04       		.uleb128 0x4
 1667 0681 77050000 		.4byte	.LASF69
 1668 0685 0F       		.byte	0xf
 1669 0686 5C       		.byte	0x5c
 1670 0687 03       		.byte	0x3
 1671 0688 5F060000 		.4byte	0x65f
 1672 068c 04       		.uleb128 0x4
 1673 068d C8040000 		.4byte	.LASF70
 1674 0691 0F       		.byte	0xf
 1675 0692 61       		.byte	0x61
 1676 0693 1D       		.byte	0x1d
 1677 0694 98060000 		.4byte	0x698
 1678 0698 10       		.uleb128 0x10
 1679 0699 C8040000 		.4byte	.LASF70
 1680 069d D0       		.byte	0xd0
 1681 069e 0F       		.byte	0xf
 1682 069f 7B       		.byte	0x7b
 1683 06a0 0B070000 		.4byte	0x70b
 1684 06a4 0E       		.uleb128 0xe
 1685 06a5 766D7400 		.ascii	"vmt\000"
 1686 06a9 0F       		.byte	0xf
 1687 06aa 7D       		.byte	0x7d
 1688 06ab 21       		.byte	0x21
 1689 06ac D8070000 		.4byte	0x7d8
 1690 06b0 00       		.byte	0
 1691 06b1 05       		.uleb128 0x5
 1692 06b2 D3000000 		.4byte	.LASF30
 1693 06b6 0F       		.byte	0xf
 1694 06b7 7E       		.byte	0x7e
 1695 06b8 03       		.byte	0x3
 1696 06b9 80060000 		.4byte	0x680
 1697 06bd 04       		.byte	0x4
 1698 06be 05       		.uleb128 0x5
 1699 06bf F4050000 		.4byte	.LASF71
 1700 06c3 0F       		.byte	0xf
 1701 06c4 7E       		.byte	0x7e
 1702 06c5 03       		.byte	0x3
 1703 06c6 47060000 		.4byte	0x647
 1704 06ca 08       		.byte	0x8
 1705 06cb 05       		.uleb128 0x5
 1706 06cc 88040000 		.4byte	.LASF72
 1707 06d0 0F       		.byte	0xf
 1708 06d1 7E       		.byte	0x7e
 1709 06d2 03       		.byte	0x3
 1710 06d3 53060000 		.4byte	0x653
ARM GAS  C:\msys64\tmp\ccrvwsPm.s 			page 31


 1711 06d7 28       		.byte	0x28
 1712 06d8 0E       		.uleb128 0xe
 1713 06d9 696200   		.ascii	"ib\000"
 1714 06dc 0F       		.byte	0xf
 1715 06dd 7E       		.byte	0x7e
 1716 06de 03       		.byte	0x3
 1717 06df DD070000 		.4byte	0x7dd
 1718 06e3 48       		.byte	0x48
 1719 06e4 0E       		.uleb128 0xe
 1720 06e5 6F6200   		.ascii	"ob\000"
 1721 06e8 0F       		.byte	0xf
 1722 06e9 7E       		.byte	0x7e
 1723 06ea 03       		.byte	0x3
 1724 06eb DD070000 		.4byte	0x7dd
 1725 06ef 88       		.byte	0x88
 1726 06f0 05       		.uleb128 0x5
 1727 06f1 3C010000 		.4byte	.LASF73
 1728 06f5 0F       		.byte	0xf
 1729 06f6 7E       		.byte	0x7e
 1730 06f7 03       		.byte	0x3
 1731 06f8 ED070000 		.4byte	0x7ed
 1732 06fc C8       		.byte	0xc8
 1733 06fd 05       		.uleb128 0x5
 1734 06fe 07060000 		.4byte	.LASF74
 1735 0702 0F       		.byte	0xf
 1736 0703 7E       		.byte	0x7e
 1737 0704 03       		.byte	0x3
 1738 0705 E9000000 		.4byte	0xe9
 1739 0709 CC       		.byte	0xcc
 1740 070a 00       		.byte	0
 1741 070b 1E       		.uleb128 0x1e
 1742 070c 10       		.byte	0x10
 1743 070d 10       		.byte	0x10
 1744 070e 2C01     		.2byte	0x12c
 1745 0710 4D070000 		.4byte	0x74d
 1746 0714 15       		.uleb128 0x15
 1747 0715 75030000 		.4byte	.LASF75
 1748 0719 10       		.byte	0x10
 1749 071a 3001     		.2byte	0x130
 1750 071c 1D       		.byte	0x1d
 1751 071d E9000000 		.4byte	0xe9
 1752 0721 00       		.byte	0
 1753 0722 02       		.uleb128 0x2
 1754 0723 63723100 		.ascii	"cr1\000"
 1755 0727 10       		.byte	0x10
 1756 0728 3501     		.2byte	0x135
 1757 072a 1D       		.byte	0x1d
 1758 072b E9000000 		.4byte	0xe9
 1759 072f 04       		.byte	0x4
 1760 0730 02       		.uleb128 0x2
 1761 0731 63723200 		.ascii	"cr2\000"
 1762 0735 10       		.byte	0x10
 1763 0736 3901     		.2byte	0x139
 1764 0738 1D       		.byte	0x1d
 1765 0739 E9000000 		.4byte	0xe9
 1766 073d 08       		.byte	0x8
 1767 073e 02       		.uleb128 0x2
ARM GAS  C:\msys64\tmp\ccrvwsPm.s 			page 32


 1768 073f 63723300 		.ascii	"cr3\000"
 1769 0743 10       		.byte	0x10
 1770 0744 3D01     		.2byte	0x13d
 1771 0746 1D       		.byte	0x1d
 1772 0747 E9000000 		.4byte	0xe9
 1773 074b 0C       		.byte	0xc
 1774 074c 00       		.byte	0
 1775 074d 1F       		.uleb128 0x1f
 1776 074e F8030000 		.4byte	.LASF76
 1777 0752 10       		.byte	0x10
 1778 0753 3E01     		.2byte	0x13e
 1779 0755 0B070000 		.4byte	0x70b
 1780 0759 0B       		.uleb128 0xb
 1781 075a 4D070000 		.4byte	0x74d
 1782 075e 10       		.uleb128 0x10
 1783 075f 92020000 		.4byte	.LASF77
 1784 0763 20       		.byte	0x20
 1785 0764 0F       		.byte	0xf
 1786 0765 70       		.byte	0x70
 1787 0766 D3070000 		.4byte	0x7d3
 1788 076a 05       		.uleb128 0x5
 1789 076b 90030000 		.4byte	.LASF78
 1790 076f 0F       		.byte	0xf
 1791 0770 71       		.byte	0x71
 1792 0771 03       		.byte	0x3
 1793 0772 CD040000 		.4byte	0x4cd
 1794 0776 00       		.byte	0
 1795 0777 05       		.uleb128 0x5
 1796 0778 EE040000 		.4byte	.LASF79
 1797 077c 0F       		.byte	0xf
 1798 077d 71       		.byte	0x71
 1799 077e 03       		.byte	0x3
 1800 077f F0040000 		.4byte	0x4f0
 1801 0783 04       		.byte	0x4
 1802 0784 0E       		.uleb128 0xe
 1803 0785 70757400 		.ascii	"put\000"
 1804 0789 0F       		.byte	0xf
 1805 078a 71       		.byte	0x71
 1806 078b 03       		.byte	0x3
 1807 078c 09050000 		.4byte	0x509
 1808 0790 08       		.byte	0x8
 1809 0791 0E       		.uleb128 0xe
 1810 0792 67657400 		.ascii	"get\000"
 1811 0796 0F       		.byte	0xf
 1812 0797 71       		.byte	0x71
 1813 0798 03       		.byte	0x3
 1814 0799 1D050000 		.4byte	0x51d
 1815 079d 0C       		.byte	0xc
 1816 079e 05       		.uleb128 0x5
 1817 079f A4030000 		.4byte	.LASF80
 1818 07a3 0F       		.byte	0xf
 1819 07a4 71       		.byte	0x71
 1820 07a5 03       		.byte	0x3
 1821 07a6 3B050000 		.4byte	0x53b
 1822 07aa 10       		.byte	0x10
 1823 07ab 05       		.uleb128 0x5
 1824 07ac BC020000 		.4byte	.LASF81
ARM GAS  C:\msys64\tmp\ccrvwsPm.s 			page 33


 1825 07b0 0F       		.byte	0xf
 1826 07b1 71       		.byte	0x71
 1827 07b2 03       		.byte	0x3
 1828 07b3 54050000 		.4byte	0x554
 1829 07b7 14       		.byte	0x14
 1830 07b8 05       		.uleb128 0x5
 1831 07b9 5A030000 		.4byte	.LASF82
 1832 07bd 0F       		.byte	0xf
 1833 07be 71       		.byte	0x71
 1834 07bf 03       		.byte	0x3
 1835 07c0 77050000 		.4byte	0x577
 1836 07c4 18       		.byte	0x18
 1837 07c5 05       		.uleb128 0x5
 1838 07c6 98000000 		.4byte	.LASF83
 1839 07ca 0F       		.byte	0xf
 1840 07cb 71       		.byte	0x71
 1841 07cc 03       		.byte	0x3
 1842 07cd 9A050000 		.4byte	0x59a
 1843 07d1 1C       		.byte	0x1c
 1844 07d2 00       		.byte	0
 1845 07d3 0B       		.uleb128 0xb
 1846 07d4 5E070000 		.4byte	0x75e
 1847 07d8 06       		.uleb128 0x6
 1848 07d9 D3070000 		.4byte	0x7d3
 1849 07dd 11       		.uleb128 0x11
 1850 07de BB000000 		.4byte	0xbb
 1851 07e2 ED070000 		.4byte	0x7ed
 1852 07e6 12       		.uleb128 0x12
 1853 07e7 2D000000 		.4byte	0x2d
 1854 07eb 3F       		.byte	0x3f
 1855 07ec 00       		.byte	0
 1856 07ed 06       		.uleb128 0x6
 1857 07ee BB020000 		.4byte	0x2bb
 1858 07f2 33       		.uleb128 0x33
 1859 07f3 766D7400 		.ascii	"vmt\000"
 1860 07f7 01       		.byte	0x1
 1861 07f8 5F       		.byte	0x5f
 1862 07f9 25       		.byte	0x25
 1863 07fa D3070000 		.4byte	0x7d3
 1864 07fe 05       		.uleb128 0x5
 1865 07ff 03       		.byte	0x3
 1866 0800 00000000 		.4byte	vmt
 1867 0804 13       		.uleb128 0x13
 1868 0805 54050000 		.4byte	.LASF84
 1869 0809 CA       		.byte	0xca
 1870 080a 09       		.byte	0x9
 1871 080b 2A010000 		.4byte	0x12a
 1872 080f 19080000 		.4byte	0x819
 1873 0813 01       		.uleb128 0x1
 1874 0814 36060000 		.4byte	0x636
 1875 0818 00       		.byte	0
 1876 0819 13       		.uleb128 0x13
 1877 081a E7050000 		.4byte	.LASF85
 1878 081e C9       		.byte	0xc9
 1879 081f 09       		.byte	0x9
 1880 0820 2A010000 		.4byte	0x12a
 1881 0824 33080000 		.4byte	0x833
ARM GAS  C:\msys64\tmp\ccrvwsPm.s 			page 34


 1882 0828 01       		.uleb128 0x1
 1883 0829 36060000 		.4byte	0x636
 1884 082d 01       		.uleb128 0x1
 1885 082e BB000000 		.4byte	0xbb
 1886 0832 00       		.byte	0
 1887 0833 20       		.uleb128 0x20
 1888 0834 F4000000 		.4byte	.LASF94
 1889 0838 0B       		.byte	0xb
 1890 0839 E101     		.2byte	0x1e1
 1891 083b 21       		.uleb128 0x21
 1892 083c DF050000 		.4byte	.LASF86
 1893 0840 C8       		.byte	0xc8
 1894 0841 4B080000 		.4byte	0x84b
 1895 0845 01       		.uleb128 0x1
 1896 0846 36060000 		.4byte	0x636
 1897 084a 00       		.byte	0
 1898 084b 22       		.uleb128 0x22
 1899 084c 81050000 		.4byte	.LASF87
 1900 0850 8601     		.2byte	0x186
 1901 0852 5C080000 		.4byte	0x85c
 1902 0856 01       		.uleb128 0x1
 1903 0857 5C080000 		.4byte	0x85c
 1904 085b 00       		.byte	0
 1905 085c 06       		.uleb128 0x6
 1906 085d 8C060000 		.4byte	0x68c
 1907 0861 22       		.uleb128 0x22
 1908 0862 62040000 		.4byte	.LASF88
 1909 0866 8501     		.2byte	0x185
 1910 0868 77080000 		.4byte	0x877
 1911 086c 01       		.uleb128 0x1
 1912 086d 5C080000 		.4byte	0x85c
 1913 0871 01       		.uleb128 0x1
 1914 0872 77080000 		.4byte	0x877
 1915 0876 00       		.byte	0
 1916 0877 06       		.uleb128 0x6
 1917 0878 59070000 		.4byte	0x759
 1918 087c 13       		.uleb128 0x13
 1919 087d 79040000 		.4byte	.LASF89
 1920 0881 D0       		.byte	0xd0
 1921 0882 0B       		.byte	0xb
 1922 0883 3B060000 		.4byte	0x63b
 1923 0887 A0080000 		.4byte	0x8a0
 1924 088b 01       		.uleb128 0x1
 1925 088c A0080000 		.4byte	0x8a0
 1926 0890 01       		.uleb128 0x1
 1927 0891 C8040000 		.4byte	0x4c8
 1928 0895 01       		.uleb128 0x1
 1929 0896 3B060000 		.4byte	0x63b
 1930 089a 01       		.uleb128 0x1
 1931 089b 36010000 		.4byte	0x136
 1932 089f 00       		.byte	0
 1933 08a0 06       		.uleb128 0x6
 1934 08a1 53060000 		.4byte	0x653
 1935 08a5 13       		.uleb128 0x13
 1936 08a6 24060000 		.4byte	.LASF90
 1937 08aa CD       		.byte	0xcd
 1938 08ab 0B       		.byte	0xb
ARM GAS  C:\msys64\tmp\ccrvwsPm.s 			page 35


 1939 08ac 3B060000 		.4byte	0x63b
 1940 08b0 C9080000 		.4byte	0x8c9
 1941 08b4 01       		.uleb128 0x1
 1942 08b5 C9080000 		.4byte	0x8c9
 1943 08b9 01       		.uleb128 0x1
 1944 08ba EB040000 		.4byte	0x4eb
 1945 08be 01       		.uleb128 0x1
 1946 08bf 3B060000 		.4byte	0x63b
 1947 08c3 01       		.uleb128 0x1
 1948 08c4 36010000 		.4byte	0x136
 1949 08c8 00       		.byte	0
 1950 08c9 06       		.uleb128 0x6
 1951 08ca 47060000 		.4byte	0x647
 1952 08ce 13       		.uleb128 0x13
 1953 08cf 8D050000 		.4byte	.LASF91
 1954 08d3 CF       		.byte	0xcf
 1955 08d4 0B       		.byte	0xb
 1956 08d5 2A010000 		.4byte	0x12a
 1957 08d9 ED080000 		.4byte	0x8ed
 1958 08dd 01       		.uleb128 0x1
 1959 08de A0080000 		.4byte	0x8a0
 1960 08e2 01       		.uleb128 0x1
 1961 08e3 BB000000 		.4byte	0xbb
 1962 08e7 01       		.uleb128 0x1
 1963 08e8 36010000 		.4byte	0x136
 1964 08ec 00       		.byte	0
 1965 08ed 13       		.uleb128 0x13
 1966 08ee A9030000 		.4byte	.LASF92
 1967 08f2 CC       		.byte	0xcc
 1968 08f3 0B       		.byte	0xb
 1969 08f4 2A010000 		.4byte	0x12a
 1970 08f8 07090000 		.4byte	0x907
 1971 08fc 01       		.uleb128 0x1
 1972 08fd C9080000 		.4byte	0x8c9
 1973 0901 01       		.uleb128 0x1
 1974 0902 36010000 		.4byte	0x136
 1975 0906 00       		.byte	0
 1976 0907 21       		.uleb128 0x21
 1977 0908 69030000 		.4byte	.LASF93
 1978 090c C6       		.byte	0xc6
 1979 090d 26090000 		.4byte	0x926
 1980 0911 01       		.uleb128 0x1
 1981 0912 36060000 		.4byte	0x636
 1982 0916 01       		.uleb128 0x1
 1983 0917 EB040000 		.4byte	0x4eb
 1984 091b 01       		.uleb128 0x1
 1985 091c 3B060000 		.4byte	0x63b
 1986 0920 01       		.uleb128 0x1
 1987 0921 1A060000 		.4byte	0x61a
 1988 0925 00       		.byte	0
 1989 0926 20       		.uleb128 0x20
 1990 0927 B0020000 		.4byte	.LASF95
 1991 092b 10       		.byte	0x10
 1992 092c 8401     		.2byte	0x184
 1993 092e 23       		.uleb128 0x23
 1994 092f 0D060000 		.4byte	.LASF96
 1995 0933 1B01     		.2byte	0x11b
ARM GAS  C:\msys64\tmp\ccrvwsPm.s 			page 36


 1996 0935 9F050000 		.4byte	0x59f
 1997 0939 00000000 		.4byte	.LFB244
 1998 093d 16000000 		.4byte	.LFE244-.LFB244
 1999 0941 01       		.uleb128 0x1
 2000 0942 9C       		.byte	0x9c
 2001 0943 2F0A0000 		.4byte	0xa2f
 2002 0947 24       		.uleb128 0x24
 2003 0948 73647000 		.ascii	"sdp\000"
 2004 094c 1B01     		.2byte	0x11b
 2005 094e 5C080000 		.4byte	0x85c
 2006 0952 10000000 		.4byte	.LLST29
 2007 0956 0C000000 		.4byte	.LVUS29
 2008 095a 25       		.uleb128 0x25
 2009 095b 6200     		.ascii	"b\000"
 2010 095d 1C01     		.2byte	0x11c
 2011 095f 9F050000 		.4byte	0x59f
 2012 0963 2B000000 		.4byte	.LLST30
 2013 0967 29000000 		.4byte	.LVUS30
 2014 096b 26       		.uleb128 0x26
 2015 096c 53110000 		.4byte	0x1153
 2016 0970 00000000 		.4byte	.LBI139
 2017 0974 03       		.byte	.LVU190
 2018 0975 00000000 		.4byte	.LBB139
 2019 0979 06000000 		.4byte	.LBE139-.LBB139
 2020 097d 1E01     		.2byte	0x11e
 2021 097f D3090000 		.4byte	0x9d3
 2022 0983 08       		.uleb128 0x8
 2023 0984 88110000 		.4byte	0x1188
 2024 0988 00000000 		.4byte	.LBI140
 2025 098c 05       		.byte	.LVU192
 2026 098d 00000000 		.4byte	.LBB140
 2027 0991 06000000 		.4byte	.LBE140-.LBB140
 2028 0995 02       		.byte	0x2
 2029 0996 ED01     		.2byte	0x1ed
 2030 0998 08       		.uleb128 0x8
 2031 0999 98110000 		.4byte	0x1198
 2032 099d 00000000 		.4byte	.LBI141
 2033 09a1 07       		.byte	.LVU194
 2034 09a2 00000000 		.4byte	.LBB141
 2035 09a6 06000000 		.4byte	.LBE141-.LBB141
 2036 09aa 03       		.byte	0x3
 2037 09ab 7801     		.2byte	0x178
 2038 09ad 08       		.uleb128 0x8
 2039 09ae A0110000 		.4byte	0x11a0
 2040 09b2 00000000 		.4byte	.LBI142
 2041 09b6 09       		.byte	.LVU196
 2042 09b7 00000000 		.4byte	.LBB142
 2043 09bb 06000000 		.4byte	.LBE142-.LBB142
 2044 09bf 04       		.byte	0x4
 2045 09c0 6402     		.2byte	0x264
 2046 09c2 0D       		.uleb128 0xd
 2047 09c3 AA110000 		.4byte	0x11aa
 2048 09c7 36000000 		.4byte	.LLST31
 2049 09cb 34000000 		.4byte	.LVUS31
 2050 09cf 00       		.byte	0
 2051 09d0 00       		.byte	0
 2052 09d1 00       		.byte	0
ARM GAS  C:\msys64\tmp\ccrvwsPm.s 			page 37


 2053 09d2 00       		.byte	0
 2054 09d3 09       		.uleb128 0x9
 2055 09d4 4B110000 		.4byte	0x114b
 2056 09d8 10000000 		.4byte	.LBI144
 2057 09dc 01       		.byte	.LVU207
 2058 09dd 36000000 		.4byte	.LLRL32
 2059 09e1 01       		.byte	0x1
 2060 09e2 2001     		.2byte	0x120
 2061 09e4 09       		.uleb128 0x9
 2062 09e5 5B110000 		.4byte	0x115b
 2063 09e9 10000000 		.4byte	.LBI145
 2064 09ed 03       		.byte	.LVU209
 2065 09ee 36000000 		.4byte	.LLRL32
 2066 09f2 02       		.byte	0x2
 2067 09f3 F801     		.2byte	0x1f8
 2068 09f5 27       		.uleb128 0x27
 2069 09f6 36000000 		.4byte	.LLRL32
 2070 09fa 09       		.uleb128 0x9
 2071 09fb 90110000 		.4byte	0x1190
 2072 09ff 10000000 		.4byte	.LBI147
 2073 0a03 0A       		.byte	.LVU216
 2074 0a04 36000000 		.4byte	.LLRL32
 2075 0a08 03       		.byte	0x3
 2076 0a09 8F01     		.2byte	0x18f
 2077 0a0b 09       		.uleb128 0x9
 2078 0a0c A0110000 		.4byte	0x11a0
 2079 0a10 10000000 		.4byte	.LBI148
 2080 0a14 0C       		.byte	.LVU218
 2081 0a15 36000000 		.4byte	.LLRL32
 2082 0a19 04       		.byte	0x4
 2083 0a1a 7702     		.2byte	0x277
 2084 0a1c 0D       		.uleb128 0xd
 2085 0a1d AA110000 		.4byte	0x11aa
 2086 0a21 43000000 		.4byte	.LLST33
 2087 0a25 41000000 		.4byte	.LVUS33
 2088 0a29 00       		.byte	0
 2089 0a2a 00       		.byte	0
 2090 0a2b 00       		.byte	0
 2091 0a2c 00       		.byte	0
 2092 0a2d 00       		.byte	0
 2093 0a2e 00       		.byte	0
 2094 0a2f 23       		.uleb128 0x23
 2095 0a30 0C000000 		.4byte	.LASF97
 2096 0a34 0201     		.2byte	0x102
 2097 0a36 9F050000 		.4byte	0x59f
 2098 0a3a 00000000 		.4byte	.LFB243
 2099 0a3e 1A000000 		.4byte	.LFE243-.LFB243
 2100 0a42 01       		.uleb128 0x1
 2101 0a43 9C       		.byte	0x9c
 2102 0a44 3A0B0000 		.4byte	0xb3a
 2103 0a48 24       		.uleb128 0x24
 2104 0a49 73647000 		.ascii	"sdp\000"
 2105 0a4d 0201     		.2byte	0x102
 2106 0a4f 5C080000 		.4byte	0x85c
 2107 0a53 51000000 		.4byte	.LLST25
 2108 0a57 4D000000 		.4byte	.LVUS25
 2109 0a5b 25       		.uleb128 0x25
ARM GAS  C:\msys64\tmp\ccrvwsPm.s 			page 38


 2110 0a5c 6200     		.ascii	"b\000"
 2111 0a5e 0301     		.2byte	0x103
 2112 0a60 9F050000 		.4byte	0x59f
 2113 0a64 6C000000 		.4byte	.LLST26
 2114 0a68 6A000000 		.4byte	.LVUS26
 2115 0a6c 26       		.uleb128 0x26
 2116 0a6d 53110000 		.4byte	0x1153
 2117 0a71 00000000 		.4byte	.LBI128
 2118 0a75 03       		.byte	.LVU156
 2119 0a76 00000000 		.4byte	.LBB128
 2120 0a7a 06000000 		.4byte	.LBE128-.LBB128
 2121 0a7e 0501     		.2byte	0x105
 2122 0a80 D40A0000 		.4byte	0xad4
 2123 0a84 08       		.uleb128 0x8
 2124 0a85 88110000 		.4byte	0x1188
 2125 0a89 00000000 		.4byte	.LBI129
 2126 0a8d 05       		.byte	.LVU158
 2127 0a8e 00000000 		.4byte	.LBB129
 2128 0a92 06000000 		.4byte	.LBE129-.LBB129
 2129 0a96 02       		.byte	0x2
 2130 0a97 ED01     		.2byte	0x1ed
 2131 0a99 08       		.uleb128 0x8
 2132 0a9a 98110000 		.4byte	0x1198
 2133 0a9e 00000000 		.4byte	.LBI130
 2134 0aa2 07       		.byte	.LVU160
 2135 0aa3 00000000 		.4byte	.LBB130
 2136 0aa7 06000000 		.4byte	.LBE130-.LBB130
 2137 0aab 03       		.byte	0x3
 2138 0aac 7801     		.2byte	0x178
 2139 0aae 08       		.uleb128 0x8
 2140 0aaf A0110000 		.4byte	0x11a0
 2141 0ab3 00000000 		.4byte	.LBI131
 2142 0ab7 09       		.byte	.LVU162
 2143 0ab8 00000000 		.4byte	.LBB131
 2144 0abc 06000000 		.4byte	.LBE131-.LBB131
 2145 0ac0 04       		.byte	0x4
 2146 0ac1 6402     		.2byte	0x264
 2147 0ac3 0D       		.uleb128 0xd
 2148 0ac4 AA110000 		.4byte	0x11aa
 2149 0ac8 77000000 		.4byte	.LLST27
 2150 0acc 75000000 		.4byte	.LVUS27
 2151 0ad0 00       		.byte	0
 2152 0ad1 00       		.byte	0
 2153 0ad2 00       		.byte	0
 2154 0ad3 00       		.byte	0
 2155 0ad4 08       		.uleb128 0x8
 2156 0ad5 4B110000 		.4byte	0x114b
 2157 0ad9 12000000 		.4byte	.LBI133
 2158 0add 01       		.byte	.LVU171
 2159 0ade 12000000 		.4byte	.LBB133
 2160 0ae2 06000000 		.4byte	.LBE133-.LBB133
 2161 0ae6 01       		.byte	0x1
 2162 0ae7 0701     		.2byte	0x107
 2163 0ae9 08       		.uleb128 0x8
 2164 0aea 5B110000 		.4byte	0x115b
 2165 0aee 12000000 		.4byte	.LBI134
 2166 0af2 03       		.byte	.LVU173
ARM GAS  C:\msys64\tmp\ccrvwsPm.s 			page 39


 2167 0af3 12000000 		.4byte	.LBB134
 2168 0af7 06000000 		.4byte	.LBE134-.LBB134
 2169 0afb 02       		.byte	0x2
 2170 0afc F801     		.2byte	0x1f8
 2171 0afe 08       		.uleb128 0x8
 2172 0aff 90110000 		.4byte	0x1190
 2173 0b03 12000000 		.4byte	.LBI136
 2174 0b07 0A       		.byte	.LVU180
 2175 0b08 12000000 		.4byte	.LBB136
 2176 0b0c 06000000 		.4byte	.LBE136-.LBB136
 2177 0b10 03       		.byte	0x3
 2178 0b11 8F01     		.2byte	0x18f
 2179 0b13 08       		.uleb128 0x8
 2180 0b14 A0110000 		.4byte	0x11a0
 2181 0b18 12000000 		.4byte	.LBI137
 2182 0b1c 0C       		.byte	.LVU182
 2183 0b1d 12000000 		.4byte	.LBB137
 2184 0b21 06000000 		.4byte	.LBE137-.LBB137
 2185 0b25 04       		.byte	0x4
 2186 0b26 7702     		.2byte	0x277
 2187 0b28 0D       		.uleb128 0xd
 2188 0b29 AA110000 		.4byte	0x11aa
 2189 0b2d 84000000 		.4byte	.LLST28
 2190 0b31 82000000 		.4byte	.LVUS28
 2191 0b35 00       		.byte	0
 2192 0b36 00       		.byte	0
 2193 0b37 00       		.byte	0
 2194 0b38 00       		.byte	0
 2195 0b39 00       		.byte	0
 2196 0b3a 34       		.uleb128 0x34
 2197 0b3b BA050000 		.4byte	.LASF98
 2198 0b3f 01       		.byte	0x1
 2199 0b40 E7       		.byte	0xe7
 2200 0b41 07       		.byte	0x7
 2201 0b42 2A010000 		.4byte	0x12a
 2202 0b46 00000000 		.4byte	.LFB242
 2203 0b4a 06000000 		.4byte	.LFE242-.LFB242
 2204 0b4e 01       		.uleb128 0x1
 2205 0b4f 9C       		.byte	0x9c
 2206 0b50 940B0000 		.4byte	0xb94
 2207 0b54 07       		.uleb128 0x7
 2208 0b55 73647000 		.ascii	"sdp\000"
 2209 0b59 E7       		.byte	0xe7
 2210 0b5a 24       		.byte	0x24
 2211 0b5b 5C080000 		.4byte	0x85c
 2212 0b5f 94000000 		.4byte	.LLST24
 2213 0b63 8E000000 		.4byte	.LVUS24
 2214 0b67 35       		.uleb128 0x35
 2215 0b68 6200     		.ascii	"b\000"
 2216 0b6a 01       		.byte	0x1
 2217 0b6b E8       		.byte	0xe8
 2218 0b6c 0A       		.byte	0xa
 2219 0b6d 2A010000 		.4byte	0x12a
 2220 0b71 16       		.uleb128 0x16
 2221 0b72 8F040000 		.4byte	.LASF99
 2222 0b76 A40B0000 		.4byte	0xba4
 2223 0b7a 0F       		.uleb128 0xf
ARM GAS  C:\msys64\tmp\ccrvwsPm.s 			page 40


 2224 0b7b 06000000 		.4byte	.LVL37
 2225 0b7f 04080000 		.4byte	0x804
 2226 0b83 03       		.uleb128 0x3
 2227 0b84 01       		.uleb128 0x1
 2228 0b85 50       		.byte	0x50
 2229 0b86 0B       		.uleb128 0xb
 2230 0b87 A3       		.byte	0xa3
 2231 0b88 03       		.uleb128 0x3
 2232 0b89 A5       		.byte	0xa5
 2233 0b8a 00       		.uleb128 0
 2234 0b8b 26       		.uleb128 0x26
 2235 0b8c A8       		.byte	0xa8
 2236 0b8d 2D       		.uleb128 0x2d
 2237 0b8e A8       		.byte	0xa8
 2238 0b8f 00       		.uleb128 0
 2239 0b90 23       		.byte	0x23
 2240 0b91 28       		.uleb128 0x28
 2241 0b92 00       		.byte	0
 2242 0b93 00       		.byte	0
 2243 0b94 11       		.uleb128 0x11
 2244 0b95 AA040000 		.4byte	0x4aa
 2245 0b99 A40B0000 		.4byte	0xba4
 2246 0b9d 12       		.uleb128 0x12
 2247 0b9e 2D000000 		.4byte	0x2d
 2248 0ba2 0E       		.byte	0xe
 2249 0ba3 00       		.byte	0
 2250 0ba4 0B       		.uleb128 0xb
 2251 0ba5 940B0000 		.4byte	0xb94
 2252 0ba9 17       		.uleb128 0x17
 2253 0baa F8040000 		.4byte	.LASF100
 2254 0bae CD       		.byte	0xcd
 2255 0baf 00000000 		.4byte	.LFB241
 2256 0bb3 06000000 		.4byte	.LFE241-.LFB241
 2257 0bb7 01       		.uleb128 0x1
 2258 0bb8 9C       		.byte	0x9c
 2259 0bb9 110C0000 		.4byte	0xc11
 2260 0bbd 07       		.uleb128 0x7
 2261 0bbe 73647000 		.ascii	"sdp\000"
 2262 0bc2 CD       		.byte	0xcd
 2263 0bc3 24       		.byte	0x24
 2264 0bc4 5C080000 		.4byte	0x85c
 2265 0bc8 BA000000 		.4byte	.LLST22
 2266 0bcc B4000000 		.4byte	.LVUS22
 2267 0bd0 07       		.uleb128 0x7
 2268 0bd1 6200     		.ascii	"b\000"
 2269 0bd3 CD       		.byte	0xcd
 2270 0bd4 31       		.byte	0x31
 2271 0bd5 BB000000 		.4byte	0xbb
 2272 0bd9 DE000000 		.4byte	.LLST23
 2273 0bdd DA000000 		.4byte	.LVUS23
 2274 0be1 16       		.uleb128 0x16
 2275 0be2 8F040000 		.4byte	.LASF99
 2276 0be6 210C0000 		.4byte	0xc21
 2277 0bea 0F       		.uleb128 0xf
 2278 0beb 06000000 		.4byte	.LVL34
 2279 0bef 19080000 		.4byte	0x819
 2280 0bf3 03       		.uleb128 0x3
ARM GAS  C:\msys64\tmp\ccrvwsPm.s 			page 41


 2281 0bf4 01       		.uleb128 0x1
 2282 0bf5 50       		.byte	0x50
 2283 0bf6 0B       		.uleb128 0xb
 2284 0bf7 A3       		.byte	0xa3
 2285 0bf8 03       		.uleb128 0x3
 2286 0bf9 A5       		.byte	0xa5
 2287 0bfa 00       		.uleb128 0
 2288 0bfb 26       		.uleb128 0x26
 2289 0bfc A8       		.byte	0xa8
 2290 0bfd 2D       		.uleb128 0x2d
 2291 0bfe A8       		.byte	0xa8
 2292 0bff 00       		.uleb128 0
 2293 0c00 23       		.byte	0x23
 2294 0c01 08       		.uleb128 0x8
 2295 0c02 03       		.uleb128 0x3
 2296 0c03 01       		.uleb128 0x1
 2297 0c04 51       		.byte	0x51
 2298 0c05 09       		.uleb128 0x9
 2299 0c06 A3       		.byte	0xa3
 2300 0c07 03       		.uleb128 0x3
 2301 0c08 A5       		.byte	0xa5
 2302 0c09 01       		.uleb128 0x1
 2303 0c0a 26       		.uleb128 0x26
 2304 0c0b A8       		.byte	0xa8
 2305 0c0c 34       		.uleb128 0x34
 2306 0c0d A8       		.byte	0xa8
 2307 0c0e 00       		.uleb128 0
 2308 0c0f 00       		.byte	0
 2309 0c10 00       		.byte	0
 2310 0c11 11       		.uleb128 0x11
 2311 0c12 AA040000 		.4byte	0x4aa
 2312 0c16 210C0000 		.4byte	0xc21
 2313 0c1a 12       		.uleb128 0x12
 2314 0c1b 2D000000 		.4byte	0x2d
 2315 0c1f 0F       		.byte	0xf
 2316 0c20 00       		.byte	0
 2317 0c21 0B       		.uleb128 0xb
 2318 0c22 110C0000 		.4byte	0xc11
 2319 0c26 17       		.uleb128 0x17
 2320 0c27 EC030000 		.4byte	.LASF101
 2321 0c2b AE       		.byte	0xae
 2322 0c2c 00000000 		.4byte	.LFB240
 2323 0c30 2E000000 		.4byte	.LFE240-.LFB240
 2324 0c34 01       		.uleb128 0x1
 2325 0c35 9C       		.byte	0x9c
 2326 0c36 6E0D0000 		.4byte	0xd6e
 2327 0c3a 07       		.uleb128 0x7
 2328 0c3b 73647000 		.ascii	"sdp\000"
 2329 0c3f AE       		.byte	0xae
 2330 0c40 1B       		.byte	0x1b
 2331 0c41 5C080000 		.4byte	0x85c
 2332 0c45 FB000000 		.4byte	.LLST18
 2333 0c49 F7000000 		.4byte	.LVUS18
 2334 0c4d 16       		.uleb128 0x16
 2335 0c4e 8F040000 		.4byte	.LASF99
 2336 0c52 7E0D0000 		.4byte	0xd7e
 2337 0c56 1A       		.uleb128 0x1a
ARM GAS  C:\msys64\tmp\ccrvwsPm.s 			page 42


 2338 0c57 53110000 		.4byte	0x1153
 2339 0c5b 00000000 		.4byte	.LBI105
 2340 0c5f 05       		.byte	.LVU88
 2341 0c60 27000000 		.4byte	.LLRL19
 2342 0c64 B2       		.byte	0xb2
 2343 0c65 AD0C0000 		.4byte	0xcad
 2344 0c69 09       		.uleb128 0x9
 2345 0c6a 88110000 		.4byte	0x1188
 2346 0c6e 00000000 		.4byte	.LBI106
 2347 0c72 07       		.byte	.LVU90
 2348 0c73 27000000 		.4byte	.LLRL19
 2349 0c77 02       		.byte	0x2
 2350 0c78 ED01     		.2byte	0x1ed
 2351 0c7a 09       		.uleb128 0x9
 2352 0c7b 98110000 		.4byte	0x1198
 2353 0c7f 00000000 		.4byte	.LBI107
 2354 0c83 09       		.byte	.LVU92
 2355 0c84 27000000 		.4byte	.LLRL19
 2356 0c88 03       		.byte	0x3
 2357 0c89 7801     		.2byte	0x178
 2358 0c8b 09       		.uleb128 0x9
 2359 0c8c A0110000 		.4byte	0x11a0
 2360 0c90 00000000 		.4byte	.LBI108
 2361 0c94 0B       		.byte	.LVU94
 2362 0c95 27000000 		.4byte	.LLRL19
 2363 0c99 04       		.byte	0x4
 2364 0c9a 6402     		.2byte	0x264
 2365 0c9c 0D       		.uleb128 0xd
 2366 0c9d AA110000 		.4byte	0x11aa
 2367 0ca1 0D010000 		.4byte	.LLST20
 2368 0ca5 0B010000 		.4byte	.LVUS20
 2369 0ca9 00       		.byte	0
 2370 0caa 00       		.byte	0
 2371 0cab 00       		.byte	0
 2372 0cac 00       		.byte	0
 2373 0cad 28       		.uleb128 0x28
 2374 0cae 43110000 		.4byte	0x1143
 2375 0cb2 22000000 		.4byte	.LBI120
 2376 0cb6 01       		.byte	.LVU112
 2377 0cb7 22000000 		.4byte	.LBB120
 2378 0cbb 04000000 		.4byte	.LBE120-.LBB120
 2379 0cbf B9       		.byte	0xb9
 2380 0cc0 CE0C0000 		.4byte	0xcce
 2381 0cc4 36       		.uleb128 0x36
 2382 0cc5 26000000 		.4byte	.LVL30
 2383 0cc9 33080000 		.4byte	0x833
 2384 0ccd 00       		.byte	0
 2385 0cce 28       		.uleb128 0x28
 2386 0ccf 4B110000 		.4byte	0x114b
 2387 0cd3 26000000 		.4byte	.LBI122
 2388 0cd7 01       		.byte	.LVU115
 2389 0cd8 26000000 		.4byte	.LBB122
 2390 0cdc 06000000 		.4byte	.LBE122-.LBB122
 2391 0ce0 BA       		.byte	0xba
 2392 0ce1 350D0000 		.4byte	0xd35
 2393 0ce5 08       		.uleb128 0x8
 2394 0ce6 5B110000 		.4byte	0x115b
ARM GAS  C:\msys64\tmp\ccrvwsPm.s 			page 43


 2395 0cea 26000000 		.4byte	.LBI123
 2396 0cee 03       		.byte	.LVU117
 2397 0cef 26000000 		.4byte	.LBB123
 2398 0cf3 06000000 		.4byte	.LBE123-.LBB123
 2399 0cf7 02       		.byte	0x2
 2400 0cf8 F801     		.2byte	0x1f8
 2401 0cfa 08       		.uleb128 0x8
 2402 0cfb 90110000 		.4byte	0x1190
 2403 0cff 26000000 		.4byte	.LBI125
 2404 0d03 0A       		.byte	.LVU124
 2405 0d04 26000000 		.4byte	.LBB125
 2406 0d08 06000000 		.4byte	.LBE125-.LBB125
 2407 0d0c 03       		.byte	0x3
 2408 0d0d 8F01     		.2byte	0x18f
 2409 0d0f 08       		.uleb128 0x8
 2410 0d10 A0110000 		.4byte	0x11a0
 2411 0d14 26000000 		.4byte	.LBI126
 2412 0d18 0C       		.byte	.LVU126
 2413 0d19 26000000 		.4byte	.LBB126
 2414 0d1d 06000000 		.4byte	.LBE126-.LBB126
 2415 0d21 04       		.byte	0x4
 2416 0d22 7702     		.2byte	0x277
 2417 0d24 0D       		.uleb128 0xd
 2418 0d25 AA110000 		.4byte	0x11aa
 2419 0d29 1A010000 		.4byte	.LLST21
 2420 0d2d 18010000 		.4byte	.LVUS21
 2421 0d31 00       		.byte	0
 2422 0d32 00       		.byte	0
 2423 0d33 00       		.byte	0
 2424 0d34 00       		.byte	0
 2425 0d35 1B       		.uleb128 0x1b
 2426 0d36 0E000000 		.4byte	.LVL27
 2427 0d3a 4B080000 		.4byte	0x84b
 2428 0d3e 490D0000 		.4byte	0xd49
 2429 0d42 03       		.uleb128 0x3
 2430 0d43 01       		.uleb128 0x1
 2431 0d44 50       		.byte	0x50
 2432 0d45 02       		.uleb128 0x2
 2433 0d46 74       		.byte	0x74
 2434 0d47 00       		.sleb128 0
 2435 0d48 00       		.byte	0
 2436 0d49 1B       		.uleb128 0x1b
 2437 0d4a 1A000000 		.4byte	.LVL28
 2438 0d4e 3B080000 		.4byte	0x83b
 2439 0d52 5D0D0000 		.4byte	0xd5d
 2440 0d56 03       		.uleb128 0x3
 2441 0d57 01       		.uleb128 0x1
 2442 0d58 50       		.byte	0x50
 2443 0d59 02       		.uleb128 0x2
 2444 0d5a 74       		.byte	0x74
 2445 0d5b 28       		.sleb128 40
 2446 0d5c 00       		.byte	0
 2447 0d5d 29       		.uleb128 0x29
 2448 0d5e 22000000 		.4byte	.LVL29
 2449 0d62 3B080000 		.4byte	0x83b
 2450 0d66 03       		.uleb128 0x3
 2451 0d67 01       		.uleb128 0x1
ARM GAS  C:\msys64\tmp\ccrvwsPm.s 			page 44


 2452 0d68 50       		.byte	0x50
 2453 0d69 02       		.uleb128 0x2
 2454 0d6a 74       		.byte	0x74
 2455 0d6b 08       		.sleb128 8
 2456 0d6c 00       		.byte	0
 2457 0d6d 00       		.byte	0
 2458 0d6e 11       		.uleb128 0x11
 2459 0d6f AA040000 		.4byte	0x4aa
 2460 0d73 7E0D0000 		.4byte	0xd7e
 2461 0d77 12       		.uleb128 0x12
 2462 0d78 2D000000 		.4byte	0x2d
 2463 0d7c 06       		.byte	0x6
 2464 0d7d 00       		.byte	0
 2465 0d7e 0B       		.uleb128 0xb
 2466 0d7f 6E0D0000 		.4byte	0xd6e
 2467 0d83 17       		.uleb128 0x17
 2468 0d84 16050000 		.4byte	.LASF102
 2469 0d88 99       		.byte	0x99
 2470 0d89 00000000 		.4byte	.LFB239
 2471 0d8d 1A000000 		.4byte	.LFE239-.LFB239
 2472 0d91 01       		.uleb128 0x1
 2473 0d92 9C       		.byte	0x9c
 2474 0d93 980E0000 		.4byte	0xe98
 2475 0d97 07       		.uleb128 0x7
 2476 0d98 73647000 		.ascii	"sdp\000"
 2477 0d9c 99       		.byte	0x99
 2478 0d9d 1C       		.byte	0x1c
 2479 0d9e 5C080000 		.4byte	0x85c
 2480 0da2 28010000 		.4byte	.LLST12
 2481 0da6 24010000 		.4byte	.LVUS12
 2482 0daa 1C       		.uleb128 0x1c
 2483 0dab 0F050000 		.4byte	.LASF103
 2484 0daf 99       		.byte	0x99
 2485 0db0 35       		.byte	0x35
 2486 0db1 77080000 		.4byte	0x877
 2487 0db5 3C010000 		.4byte	.LLST13
 2488 0db9 38010000 		.4byte	.LVUS13
 2489 0dbd 16       		.uleb128 0x16
 2490 0dbe 8F040000 		.4byte	.LASF99
 2491 0dc2 A80E0000 		.4byte	0xea8
 2492 0dc6 1A       		.uleb128 0x1a
 2493 0dc7 53110000 		.4byte	0x1153
 2494 0dcb 00000000 		.4byte	.LBI78
 2495 0dcf 05       		.byte	.LVU43
 2496 0dd0 0C000000 		.4byte	.LLRL14
 2497 0dd4 9D       		.byte	0x9d
 2498 0dd5 1D0E0000 		.4byte	0xe1d
 2499 0dd9 09       		.uleb128 0x9
 2500 0dda 88110000 		.4byte	0x1188
 2501 0dde 00000000 		.4byte	.LBI79
 2502 0de2 07       		.byte	.LVU45
 2503 0de3 0C000000 		.4byte	.LLRL14
 2504 0de7 02       		.byte	0x2
 2505 0de8 ED01     		.2byte	0x1ed
 2506 0dea 09       		.uleb128 0x9
 2507 0deb 98110000 		.4byte	0x1198
 2508 0def 00000000 		.4byte	.LBI80
ARM GAS  C:\msys64\tmp\ccrvwsPm.s 			page 45


 2509 0df3 09       		.byte	.LVU47
 2510 0df4 0C000000 		.4byte	.LLRL14
 2511 0df8 03       		.byte	0x3
 2512 0df9 7801     		.2byte	0x178
 2513 0dfb 09       		.uleb128 0x9
 2514 0dfc A0110000 		.4byte	0x11a0
 2515 0e00 00000000 		.4byte	.LBI81
 2516 0e04 0B       		.byte	.LVU49
 2517 0e05 0C000000 		.4byte	.LLRL14
 2518 0e09 04       		.byte	0x4
 2519 0e0a 6402     		.2byte	0x264
 2520 0e0c 0D       		.uleb128 0xd
 2521 0e0d AA110000 		.4byte	0x11aa
 2522 0e11 57010000 		.4byte	.LLST15
 2523 0e15 55010000 		.4byte	.LVUS15
 2524 0e19 00       		.byte	0
 2525 0e1a 00       		.byte	0
 2526 0e1b 00       		.byte	0
 2527 0e1c 00       		.byte	0
 2528 0e1d 1A       		.uleb128 0x1a
 2529 0e1e 4B110000 		.4byte	0x114b
 2530 0e22 14000000 		.4byte	.LBI93
 2531 0e26 01       		.byte	.LVU67
 2532 0e27 1B000000 		.4byte	.LLRL16
 2533 0e2b A2       		.byte	0xa2
 2534 0e2c 7A0E0000 		.4byte	0xe7a
 2535 0e30 09       		.uleb128 0x9
 2536 0e31 5B110000 		.4byte	0x115b
 2537 0e35 14000000 		.4byte	.LBI94
 2538 0e39 03       		.byte	.LVU69
 2539 0e3a 1B000000 		.4byte	.LLRL16
 2540 0e3e 02       		.byte	0x2
 2541 0e3f F801     		.2byte	0x1f8
 2542 0e41 27       		.uleb128 0x27
 2543 0e42 1B000000 		.4byte	.LLRL16
 2544 0e46 09       		.uleb128 0x9
 2545 0e47 90110000 		.4byte	0x1190
 2546 0e4b 14000000 		.4byte	.LBI96
 2547 0e4f 0A       		.byte	.LVU76
 2548 0e50 1B000000 		.4byte	.LLRL16
 2549 0e54 03       		.byte	0x3
 2550 0e55 8F01     		.2byte	0x18f
 2551 0e57 09       		.uleb128 0x9
 2552 0e58 A0110000 		.4byte	0x11a0
 2553 0e5c 14000000 		.4byte	.LBI97
 2554 0e60 0C       		.byte	.LVU78
 2555 0e61 1B000000 		.4byte	.LLRL16
 2556 0e65 04       		.byte	0x4
 2557 0e66 7702     		.2byte	0x277
 2558 0e68 0D       		.uleb128 0xd
 2559 0e69 AA110000 		.4byte	0x11aa
 2560 0e6d 64010000 		.4byte	.LLST17
 2561 0e71 62010000 		.4byte	.LVUS17
 2562 0e75 00       		.byte	0
 2563 0e76 00       		.byte	0
 2564 0e77 00       		.byte	0
 2565 0e78 00       		.byte	0
ARM GAS  C:\msys64\tmp\ccrvwsPm.s 			page 46


 2566 0e79 00       		.byte	0
 2567 0e7a 29       		.uleb128 0x29
 2568 0e7b 0E000000 		.4byte	.LVL22
 2569 0e7f 61080000 		.4byte	0x861
 2570 0e83 03       		.uleb128 0x3
 2571 0e84 01       		.uleb128 0x1
 2572 0e85 50       		.byte	0x50
 2573 0e86 02       		.uleb128 0x2
 2574 0e87 74       		.byte	0x74
 2575 0e88 00       		.sleb128 0
 2576 0e89 03       		.uleb128 0x3
 2577 0e8a 01       		.uleb128 0x1
 2578 0e8b 51       		.byte	0x51
 2579 0e8c 09       		.uleb128 0x9
 2580 0e8d A3       		.byte	0xa3
 2581 0e8e 03       		.uleb128 0x3
 2582 0e8f A5       		.byte	0xa5
 2583 0e90 01       		.uleb128 0x1
 2584 0e91 26       		.uleb128 0x26
 2585 0e92 A8       		.byte	0xa8
 2586 0e93 2D       		.uleb128 0x2d
 2587 0e94 A8       		.byte	0xa8
 2588 0e95 00       		.uleb128 0
 2589 0e96 00       		.byte	0
 2590 0e97 00       		.byte	0
 2591 0e98 11       		.uleb128 0x11
 2592 0e99 AA040000 		.4byte	0x4aa
 2593 0e9d A80E0000 		.4byte	0xea8
 2594 0ea1 12       		.uleb128 0x12
 2595 0ea2 2D000000 		.4byte	0x2d
 2596 0ea6 07       		.byte	0x7
 2597 0ea7 00       		.byte	0
 2598 0ea8 0B       		.uleb128 0xb
 2599 0ea9 980E0000 		.4byte	0xe98
 2600 0ead 17       		.uleb128 0x17
 2601 0eae 8B000000 		.4byte	.LASF104
 2602 0eb2 87       		.byte	0x87
 2603 0eb3 00000000 		.4byte	.LFB238
 2604 0eb7 38000000 		.4byte	.LFE238-.LFB238
 2605 0ebb 01       		.uleb128 0x1
 2606 0ebc 9C       		.byte	0x9c
 2607 0ebd 650F0000 		.4byte	0xf65
 2608 0ec1 07       		.uleb128 0x7
 2609 0ec2 73647000 		.ascii	"sdp\000"
 2610 0ec6 87       		.byte	0x87
 2611 0ec7 21       		.byte	0x21
 2612 0ec8 5C080000 		.4byte	0x85c
 2613 0ecc 76010000 		.4byte	.LLST9
 2614 0ed0 6E010000 		.4byte	.LVUS9
 2615 0ed4 1C       		.uleb128 0x1c
 2616 0ed5 A2020000 		.4byte	.LASF105
 2617 0ed9 87       		.byte	0x87
 2618 0eda 30       		.byte	0x30
 2619 0edb 1A060000 		.4byte	0x61a
 2620 0edf A1010000 		.4byte	.LLST10
 2621 0ee3 9B010000 		.4byte	.LVUS10
 2622 0ee7 1C       		.uleb128 0x1c
ARM GAS  C:\msys64\tmp\ccrvwsPm.s 			page 47


 2623 0ee8 D7050000 		.4byte	.LASF106
 2624 0eec 87       		.byte	0x87
 2625 0eed 43       		.byte	0x43
 2626 0eee 1A060000 		.4byte	0x61a
 2627 0ef2 C7010000 		.4byte	.LLST11
 2628 0ef6 BF010000 		.4byte	.LVUS11
 2629 0efa 1B       		.uleb128 0x1b
 2630 0efb 1E000000 		.4byte	.LVL17
 2631 0eff 07090000 		.4byte	0x907
 2632 0f03 280F0000 		.4byte	0xf28
 2633 0f07 03       		.uleb128 0x3
 2634 0f08 01       		.uleb128 0x1
 2635 0f09 50       		.byte	0x50
 2636 0f0a 02       		.uleb128 0x2
 2637 0f0b 74       		.byte	0x74
 2638 0f0c 08       		.sleb128 8
 2639 0f0d 03       		.uleb128 0x3
 2640 0f0e 01       		.uleb128 0x1
 2641 0f0f 51       		.byte	0x51
 2642 0f10 03       		.uleb128 0x3
 2643 0f11 74       		.byte	0x74
 2644 0f12 C800     		.sleb128 72
 2645 0f14 03       		.uleb128 0x3
 2646 0f15 01       		.uleb128 0x1
 2647 0f16 52       		.byte	0x52
 2648 0f17 02       		.uleb128 0x2
 2649 0f18 08       		.byte	0x8
 2650 0f19 40       		.byte	0x40
 2651 0f1a 03       		.uleb128 0x3
 2652 0f1b 01       		.uleb128 0x1
 2653 0f1c 53       		.byte	0x53
 2654 0f1d 09       		.uleb128 0x9
 2655 0f1e A3       		.byte	0xa3
 2656 0f1f 03       		.uleb128 0x3
 2657 0f20 A5       		.byte	0xa5
 2658 0f21 01       		.uleb128 0x1
 2659 0f22 26       		.uleb128 0x26
 2660 0f23 A8       		.byte	0xa8
 2661 0f24 2D       		.uleb128 0x2d
 2662 0f25 A8       		.byte	0xa8
 2663 0f26 00       		.uleb128 0
 2664 0f27 00       		.byte	0
 2665 0f28 0F       		.uleb128 0xf
 2666 0f29 32000000 		.4byte	.LVL19
 2667 0f2d 07090000 		.4byte	0x907
 2668 0f31 03       		.uleb128 0x3
 2669 0f32 01       		.uleb128 0x1
 2670 0f33 50       		.byte	0x50
 2671 0f34 0B       		.uleb128 0xb
 2672 0f35 A3       		.byte	0xa3
 2673 0f36 03       		.uleb128 0x3
 2674 0f37 A5       		.byte	0xa5
 2675 0f38 00       		.uleb128 0
 2676 0f39 26       		.uleb128 0x26
 2677 0f3a A8       		.byte	0xa8
 2678 0f3b 2D       		.uleb128 0x2d
 2679 0f3c A8       		.byte	0xa8
ARM GAS  C:\msys64\tmp\ccrvwsPm.s 			page 48


 2680 0f3d 00       		.uleb128 0
 2681 0f3e 23       		.byte	0x23
 2682 0f3f 28       		.uleb128 0x28
 2683 0f40 03       		.uleb128 0x3
 2684 0f41 01       		.uleb128 0x1
 2685 0f42 51       		.byte	0x51
 2686 0f43 0C       		.uleb128 0xc
 2687 0f44 A3       		.byte	0xa3
 2688 0f45 03       		.uleb128 0x3
 2689 0f46 A5       		.byte	0xa5
 2690 0f47 00       		.uleb128 0
 2691 0f48 26       		.uleb128 0x26
 2692 0f49 A8       		.byte	0xa8
 2693 0f4a 2D       		.uleb128 0x2d
 2694 0f4b A8       		.byte	0xa8
 2695 0f4c 00       		.uleb128 0
 2696 0f4d 23       		.byte	0x23
 2697 0f4e 8801     		.uleb128 0x88
 2698 0f50 03       		.uleb128 0x3
 2699 0f51 01       		.uleb128 0x1
 2700 0f52 52       		.byte	0x52
 2701 0f53 02       		.uleb128 0x2
 2702 0f54 08       		.byte	0x8
 2703 0f55 40       		.byte	0x40
 2704 0f56 03       		.uleb128 0x3
 2705 0f57 01       		.uleb128 0x1
 2706 0f58 53       		.byte	0x53
 2707 0f59 09       		.uleb128 0x9
 2708 0f5a A3       		.byte	0xa3
 2709 0f5b 03       		.uleb128 0x3
 2710 0f5c A5       		.byte	0xa5
 2711 0f5d 02       		.uleb128 0x2
 2712 0f5e 26       		.uleb128 0x26
 2713 0f5f A8       		.byte	0xa8
 2714 0f60 2D       		.uleb128 0x2d
 2715 0f61 A8       		.byte	0xa8
 2716 0f62 00       		.uleb128 0
 2717 0f63 00       		.byte	0
 2718 0f64 00       		.byte	0
 2719 0f65 17       		.uleb128 0x17
 2720 0f66 1D060000 		.4byte	.LASF107
 2721 0f6a 73       		.byte	0x73
 2722 0f6b 00000000 		.4byte	.LFB237
 2723 0f6f 04000000 		.4byte	.LFE237-.LFB237
 2724 0f73 01       		.uleb128 0x1
 2725 0f74 9C       		.byte	0x9c
 2726 0f75 830F0000 		.4byte	0xf83
 2727 0f79 37       		.uleb128 0x37
 2728 0f7a 04000000 		.4byte	.LVL12
 2729 0f7e 26090000 		.4byte	0x926
 2730 0f82 00       		.byte	0
 2731 0f83 2A       		.uleb128 0x2a
 2732 0f84 67657400 		.ascii	"get\000"
 2733 0f88 44       		.byte	0x44
 2734 0f89 2A010000 		.4byte	0x12a
 2735 0f8d 00000000 		.4byte	.LFB236
 2736 0f91 0A000000 		.4byte	.LFE236-.LFB236
ARM GAS  C:\msys64\tmp\ccrvwsPm.s 			page 49


 2737 0f95 01       		.uleb128 0x1
 2738 0f96 9C       		.byte	0x9c
 2739 0f97 CD0F0000 		.4byte	0xfcd
 2740 0f9b 07       		.uleb128 0x7
 2741 0f9c 697000   		.ascii	"ip\000"
 2742 0f9f 44       		.byte	0x44
 2743 0fa0 18       		.byte	0x18
 2744 0fa1 F9010000 		.4byte	0x1f9
 2745 0fa5 F0010000 		.4byte	.LLST0
 2746 0fa9 EA010000 		.4byte	.LVUS0
 2747 0fad 0F       		.uleb128 0xf
 2748 0fae 0A000000 		.4byte	.LVL2
 2749 0fb2 ED080000 		.4byte	0x8ed
 2750 0fb6 03       		.uleb128 0x3
 2751 0fb7 01       		.uleb128 0x1
 2752 0fb8 50       		.byte	0x50
 2753 0fb9 0B       		.uleb128 0xb
 2754 0fba A3       		.byte	0xa3
 2755 0fbb 03       		.uleb128 0x3
 2756 0fbc A5       		.byte	0xa5
 2757 0fbd 00       		.uleb128 0
 2758 0fbe 26       		.uleb128 0x26
 2759 0fbf A8       		.byte	0xa8
 2760 0fc0 2D       		.uleb128 0x2d
 2761 0fc1 A8       		.byte	0xa8
 2762 0fc2 00       		.uleb128 0
 2763 0fc3 23       		.byte	0x23
 2764 0fc4 08       		.uleb128 0x8
 2765 0fc5 03       		.uleb128 0x3
 2766 0fc6 01       		.uleb128 0x1
 2767 0fc7 51       		.byte	0x51
 2768 0fc8 02       		.uleb128 0x2
 2769 0fc9 09       		.byte	0x9
 2770 0fca FF       		.byte	0xff
 2771 0fcb 00       		.byte	0
 2772 0fcc 00       		.byte	0
 2773 0fcd 2A       		.uleb128 0x2a
 2774 0fce 70757400 		.ascii	"put\000"
 2775 0fd2 3F       		.byte	0x3f
 2776 0fd3 2A010000 		.4byte	0x12a
 2777 0fd7 00000000 		.4byte	.LFB235
 2778 0fdb 0A000000 		.4byte	.LFE235-.LFB235
 2779 0fdf 01       		.uleb128 0x1
 2780 0fe0 9C       		.byte	0x9c
 2781 0fe1 35100000 		.4byte	0x1035
 2782 0fe5 07       		.uleb128 0x7
 2783 0fe6 697000   		.ascii	"ip\000"
 2784 0fe9 3F       		.byte	0x3f
 2785 0fea 18       		.byte	0x18
 2786 0feb F9010000 		.4byte	0x1f9
 2787 0fef 16020000 		.4byte	.LLST1
 2788 0ff3 10020000 		.4byte	.LVUS1
 2789 0ff7 07       		.uleb128 0x7
 2790 0ff8 6200     		.ascii	"b\000"
 2791 0ffa 3F       		.byte	0x3f
 2792 0ffb 24       		.byte	0x24
 2793 0ffc BB000000 		.4byte	0xbb
ARM GAS  C:\msys64\tmp\ccrvwsPm.s 			page 50


 2794 1000 3A020000 		.4byte	.LLST2
 2795 1004 36020000 		.4byte	.LVUS2
 2796 1008 0F       		.uleb128 0xf
 2797 1009 0A000000 		.4byte	.LVL5
 2798 100d CE080000 		.4byte	0x8ce
 2799 1011 03       		.uleb128 0x3
 2800 1012 01       		.uleb128 0x1
 2801 1013 50       		.byte	0x50
 2802 1014 0B       		.uleb128 0xb
 2803 1015 A3       		.byte	0xa3
 2804 1016 03       		.uleb128 0x3
 2805 1017 A5       		.byte	0xa5
 2806 1018 00       		.uleb128 0
 2807 1019 26       		.uleb128 0x26
 2808 101a A8       		.byte	0xa8
 2809 101b 2D       		.uleb128 0x2d
 2810 101c A8       		.byte	0xa8
 2811 101d 00       		.uleb128 0
 2812 101e 23       		.byte	0x23
 2813 101f 28       		.uleb128 0x28
 2814 1020 03       		.uleb128 0x3
 2815 1021 01       		.uleb128 0x1
 2816 1022 51       		.byte	0x51
 2817 1023 09       		.uleb128 0x9
 2818 1024 A3       		.byte	0xa3
 2819 1025 03       		.uleb128 0x3
 2820 1026 A5       		.byte	0xa5
 2821 1027 01       		.uleb128 0x1
 2822 1028 26       		.uleb128 0x26
 2823 1029 A8       		.byte	0xa8
 2824 102a 34       		.uleb128 0x34
 2825 102b A8       		.byte	0xa8
 2826 102c 00       		.uleb128 0
 2827 102d 03       		.uleb128 0x3
 2828 102e 01       		.uleb128 0x1
 2829 102f 52       		.byte	0x52
 2830 1030 02       		.uleb128 0x2
 2831 1031 09       		.byte	0x9
 2832 1032 FF       		.byte	0xff
 2833 1033 00       		.byte	0
 2834 1034 00       		.byte	0
 2835 1035 2B       		.uleb128 0x2b
 2836 1036 EE040000 		.4byte	.LASF79
 2837 103a 39       		.byte	0x39
 2838 103b 42000000 		.4byte	0x42
 2839 103f 00000000 		.4byte	.LFB234
 2840 1043 0A000000 		.4byte	.LFE234-.LFB234
 2841 1047 01       		.uleb128 0x1
 2842 1048 9C       		.byte	0x9c
 2843 1049 BC100000 		.4byte	0x10bc
 2844 104d 07       		.uleb128 0x7
 2845 104e 697000   		.ascii	"ip\000"
 2846 1051 39       		.byte	0x39
 2847 1052 1A       		.byte	0x1a
 2848 1053 F9010000 		.4byte	0x1f9
 2849 1057 59020000 		.4byte	.LLST3
 2850 105b 53020000 		.4byte	.LVUS3
ARM GAS  C:\msys64\tmp\ccrvwsPm.s 			page 51


 2851 105f 07       		.uleb128 0x7
 2852 1060 627000   		.ascii	"bp\000"
 2853 1063 39       		.byte	0x39
 2854 1064 27       		.byte	0x27
 2855 1065 EB040000 		.4byte	0x4eb
 2856 1069 7D020000 		.4byte	.LLST4
 2857 106d 79020000 		.4byte	.LVUS4
 2858 1071 07       		.uleb128 0x7
 2859 1072 6E00     		.ascii	"n\000"
 2860 1074 39       		.byte	0x39
 2861 1075 32       		.byte	0x32
 2862 1076 42000000 		.4byte	0x42
 2863 107a 9A020000 		.4byte	.LLST5
 2864 107e 96020000 		.4byte	.LVUS5
 2865 1082 0F       		.uleb128 0xf
 2866 1083 0A000000 		.4byte	.LVL8
 2867 1087 A5080000 		.4byte	0x8a5
 2868 108b 03       		.uleb128 0x3
 2869 108c 01       		.uleb128 0x1
 2870 108d 50       		.byte	0x50
 2871 108e 0B       		.uleb128 0xb
 2872 108f A3       		.byte	0xa3
 2873 1090 03       		.uleb128 0x3
 2874 1091 A5       		.byte	0xa5
 2875 1092 00       		.uleb128 0
 2876 1093 26       		.uleb128 0x26
 2877 1094 A8       		.byte	0xa8
 2878 1095 2D       		.uleb128 0x2d
 2879 1096 A8       		.byte	0xa8
 2880 1097 00       		.uleb128 0
 2881 1098 23       		.byte	0x23
 2882 1099 08       		.uleb128 0x8
 2883 109a 03       		.uleb128 0x3
 2884 109b 01       		.uleb128 0x1
 2885 109c 51       		.byte	0x51
 2886 109d 09       		.uleb128 0x9
 2887 109e A3       		.byte	0xa3
 2888 109f 03       		.uleb128 0x3
 2889 10a0 A5       		.byte	0xa5
 2890 10a1 01       		.uleb128 0x1
 2891 10a2 26       		.uleb128 0x26
 2892 10a3 A8       		.byte	0xa8
 2893 10a4 2D       		.uleb128 0x2d
 2894 10a5 A8       		.byte	0xa8
 2895 10a6 00       		.uleb128 0
 2896 10a7 03       		.uleb128 0x3
 2897 10a8 01       		.uleb128 0x1
 2898 10a9 52       		.byte	0x52
 2899 10aa 09       		.uleb128 0x9
 2900 10ab A3       		.byte	0xa3
 2901 10ac 03       		.uleb128 0x3
 2902 10ad A5       		.byte	0xa5
 2903 10ae 02       		.uleb128 0x2
 2904 10af 26       		.uleb128 0x26
 2905 10b0 A8       		.byte	0xa8
 2906 10b1 2D       		.uleb128 0x2d
 2907 10b2 A8       		.byte	0xa8
ARM GAS  C:\msys64\tmp\ccrvwsPm.s 			page 52


 2908 10b3 00       		.uleb128 0
 2909 10b4 03       		.uleb128 0x3
 2910 10b5 01       		.uleb128 0x1
 2911 10b6 53       		.byte	0x53
 2912 10b7 02       		.uleb128 0x2
 2913 10b8 09       		.byte	0x9
 2914 10b9 FF       		.byte	0xff
 2915 10ba 00       		.byte	0
 2916 10bb 00       		.byte	0
 2917 10bc 2B       		.uleb128 0x2b
 2918 10bd 90030000 		.4byte	.LASF78
 2919 10c1 33       		.byte	0x33
 2920 10c2 42000000 		.4byte	0x42
 2921 10c6 00000000 		.4byte	.LFB233
 2922 10ca 0A000000 		.4byte	.LFE233-.LFB233
 2923 10ce 01       		.uleb128 0x1
 2924 10cf 9C       		.byte	0x9c
 2925 10d0 43110000 		.4byte	0x1143
 2926 10d4 07       		.uleb128 0x7
 2927 10d5 697000   		.ascii	"ip\000"
 2928 10d8 33       		.byte	0x33
 2929 10d9 1B       		.byte	0x1b
 2930 10da F9010000 		.4byte	0x1f9
 2931 10de B9020000 		.4byte	.LLST6
 2932 10e2 B3020000 		.4byte	.LVUS6
 2933 10e6 07       		.uleb128 0x7
 2934 10e7 627000   		.ascii	"bp\000"
 2935 10ea 33       		.byte	0x33
 2936 10eb 2E       		.byte	0x2e
 2937 10ec C8040000 		.4byte	0x4c8
 2938 10f0 DD020000 		.4byte	.LLST7
 2939 10f4 D9020000 		.4byte	.LVUS7
 2940 10f8 07       		.uleb128 0x7
 2941 10f9 6E00     		.ascii	"n\000"
 2942 10fb 33       		.byte	0x33
 2943 10fc 39       		.byte	0x39
 2944 10fd 42000000 		.4byte	0x42
 2945 1101 FA020000 		.4byte	.LLST8
 2946 1105 F6020000 		.4byte	.LVUS8
 2947 1109 0F       		.uleb128 0xf
 2948 110a 0A000000 		.4byte	.LVL11
 2949 110e 7C080000 		.4byte	0x87c
 2950 1112 03       		.uleb128 0x3
 2951 1113 01       		.uleb128 0x1
 2952 1114 50       		.byte	0x50
 2953 1115 0B       		.uleb128 0xb
 2954 1116 A3       		.byte	0xa3
 2955 1117 03       		.uleb128 0x3
 2956 1118 A5       		.byte	0xa5
 2957 1119 00       		.uleb128 0
 2958 111a 26       		.uleb128 0x26
 2959 111b A8       		.byte	0xa8
 2960 111c 2D       		.uleb128 0x2d
 2961 111d A8       		.byte	0xa8
 2962 111e 00       		.uleb128 0
 2963 111f 23       		.byte	0x23
 2964 1120 28       		.uleb128 0x28
ARM GAS  C:\msys64\tmp\ccrvwsPm.s 			page 53


 2965 1121 03       		.uleb128 0x3
 2966 1122 01       		.uleb128 0x1
 2967 1123 51       		.byte	0x51
 2968 1124 09       		.uleb128 0x9
 2969 1125 A3       		.byte	0xa3
 2970 1126 03       		.uleb128 0x3
 2971 1127 A5       		.byte	0xa5
 2972 1128 01       		.uleb128 0x1
 2973 1129 26       		.uleb128 0x26
 2974 112a A8       		.byte	0xa8
 2975 112b 2D       		.uleb128 0x2d
 2976 112c A8       		.byte	0xa8
 2977 112d 00       		.uleb128 0
 2978 112e 03       		.uleb128 0x3
 2979 112f 01       		.uleb128 0x1
 2980 1130 52       		.byte	0x52
 2981 1131 09       		.uleb128 0x9
 2982 1132 A3       		.byte	0xa3
 2983 1133 03       		.uleb128 0x3
 2984 1134 A5       		.byte	0xa5
 2985 1135 02       		.uleb128 0x2
 2986 1136 26       		.uleb128 0x26
 2987 1137 A8       		.byte	0xa8
 2988 1138 2D       		.uleb128 0x2d
 2989 1139 A8       		.byte	0xa8
 2990 113a 00       		.uleb128 0
 2991 113b 03       		.uleb128 0x3
 2992 113c 01       		.uleb128 0x1
 2993 113d 53       		.byte	0x53
 2994 113e 02       		.uleb128 0x2
 2995 113f 09       		.byte	0x9
 2996 1140 FF       		.byte	0xff
 2997 1141 00       		.byte	0
 2998 1142 00       		.byte	0
 2999 1143 14       		.uleb128 0x14
 3000 1144 10040000 		.4byte	.LASF108
 3001 1148 02       		.byte	0x2
 3002 1149 5602     		.2byte	0x256
 3003 114b 14       		.uleb128 0x14
 3004 114c A2040000 		.4byte	.LASF109
 3005 1150 02       		.byte	0x2
 3006 1151 F601     		.2byte	0x1f6
 3007 1153 14       		.uleb128 0x14
 3008 1154 21010000 		.4byte	.LASF110
 3009 1158 02       		.byte	0x2
 3010 1159 EB01     		.2byte	0x1eb
 3011 115b 38       		.uleb128 0x38
 3012 115c FB050000 		.4byte	.LASF117
 3013 1160 03       		.byte	0x3
 3014 1161 8201     		.2byte	0x182
 3015 1163 14       		.byte	0x14
 3016 1164 03       		.byte	0x3
 3017 1165 73110000 		.4byte	0x1173
 3018 1169 16       		.uleb128 0x16
 3019 116a 8F040000 		.4byte	.LASF99
 3020 116e 83110000 		.4byte	0x1183
 3021 1172 00       		.byte	0
ARM GAS  C:\msys64\tmp\ccrvwsPm.s 			page 54


 3022 1173 11       		.uleb128 0x11
 3023 1174 AA040000 		.4byte	0x4aa
 3024 1178 83110000 		.4byte	0x1183
 3025 117c 12       		.uleb128 0x12
 3026 117d 2D000000 		.4byte	0x2d
 3027 1181 0B       		.byte	0xb
 3028 1182 00       		.byte	0
 3029 1183 0B       		.uleb128 0xb
 3030 1184 73110000 		.4byte	0x1173
 3031 1188 14       		.uleb128 0x14
 3032 1189 98040000 		.4byte	.LASF111
 3033 118d 03       		.byte	0x3
 3034 118e 7601     		.2byte	0x176
 3035 1190 14       		.uleb128 0x14
 3036 1191 C7000000 		.4byte	.LASF112
 3037 1195 04       		.byte	0x4
 3038 1196 7402     		.2byte	0x274
 3039 1198 14       		.uleb128 0x14
 3040 1199 40000000 		.4byte	.LASF113
 3041 119d 04       		.byte	0x4
 3042 119e 5C02     		.2byte	0x25c
 3043 11a0 39       		.uleb128 0x39
 3044 11a1 46050000 		.4byte	.LASF118
 3045 11a5 05       		.byte	0x5
 3046 11a6 2202     		.2byte	0x222
 3047 11a8 39       		.byte	0x39
 3048 11a9 03       		.byte	0x3
 3049 11aa 3A       		.uleb128 0x3a
 3050 11ab 2D010000 		.4byte	.LASF119
 3051 11af 05       		.byte	0x5
 3052 11b0 2202     		.2byte	0x222
 3053 11b2 50       		.byte	0x50
 3054 11b3 E9000000 		.4byte	0xe9
 3055 11b7 00       		.byte	0
 3056 11b8 00       		.byte	0
 3057              		.section	.debug_abbrev,"",%progbits
 3058              	.Ldebug_abbrev0:
 3059 0000 01       		.uleb128 0x1
 3060 0001 05       		.uleb128 0x5
 3061 0002 00       		.byte	0
 3062 0003 49       		.uleb128 0x49
 3063 0004 13       		.uleb128 0x13
 3064 0005 00       		.byte	0
 3065 0006 00       		.byte	0
 3066 0007 02       		.uleb128 0x2
 3067 0008 0D       		.uleb128 0xd
 3068 0009 00       		.byte	0
 3069 000a 03       		.uleb128 0x3
 3070 000b 08       		.uleb128 0x8
 3071 000c 3A       		.uleb128 0x3a
 3072 000d 0B       		.uleb128 0xb
 3073 000e 3B       		.uleb128 0x3b
 3074 000f 05       		.uleb128 0x5
 3075 0010 39       		.uleb128 0x39
 3076 0011 0B       		.uleb128 0xb
 3077 0012 49       		.uleb128 0x49
 3078 0013 13       		.uleb128 0x13
ARM GAS  C:\msys64\tmp\ccrvwsPm.s 			page 55


 3079 0014 38       		.uleb128 0x38
 3080 0015 0B       		.uleb128 0xb
 3081 0016 00       		.byte	0
 3082 0017 00       		.byte	0
 3083 0018 03       		.uleb128 0x3
 3084 0019 49       		.uleb128 0x49
 3085 001a 00       		.byte	0
 3086 001b 02       		.uleb128 0x2
 3087 001c 18       		.uleb128 0x18
 3088 001d 7E       		.uleb128 0x7e
 3089 001e 18       		.uleb128 0x18
 3090 001f 00       		.byte	0
 3091 0020 00       		.byte	0
 3092 0021 04       		.uleb128 0x4
 3093 0022 16       		.uleb128 0x16
 3094 0023 00       		.byte	0
 3095 0024 03       		.uleb128 0x3
 3096 0025 0E       		.uleb128 0xe
 3097 0026 3A       		.uleb128 0x3a
 3098 0027 0B       		.uleb128 0xb
 3099 0028 3B       		.uleb128 0x3b
 3100 0029 0B       		.uleb128 0xb
 3101 002a 39       		.uleb128 0x39
 3102 002b 0B       		.uleb128 0xb
 3103 002c 49       		.uleb128 0x49
 3104 002d 13       		.uleb128 0x13
 3105 002e 00       		.byte	0
 3106 002f 00       		.byte	0
 3107 0030 05       		.uleb128 0x5
 3108 0031 0D       		.uleb128 0xd
 3109 0032 00       		.byte	0
 3110 0033 03       		.uleb128 0x3
 3111 0034 0E       		.uleb128 0xe
 3112 0035 3A       		.uleb128 0x3a
 3113 0036 0B       		.uleb128 0xb
 3114 0037 3B       		.uleb128 0x3b
 3115 0038 0B       		.uleb128 0xb
 3116 0039 39       		.uleb128 0x39
 3117 003a 0B       		.uleb128 0xb
 3118 003b 49       		.uleb128 0x49
 3119 003c 13       		.uleb128 0x13
 3120 003d 38       		.uleb128 0x38
 3121 003e 0B       		.uleb128 0xb
 3122 003f 00       		.byte	0
 3123 0040 00       		.byte	0
 3124 0041 06       		.uleb128 0x6
 3125 0042 0F       		.uleb128 0xf
 3126 0043 00       		.byte	0
 3127 0044 0B       		.uleb128 0xb
 3128 0045 21       		.uleb128 0x21
 3129 0046 04       		.sleb128 4
 3130 0047 49       		.uleb128 0x49
 3131 0048 13       		.uleb128 0x13
 3132 0049 00       		.byte	0
 3133 004a 00       		.byte	0
 3134 004b 07       		.uleb128 0x7
 3135 004c 05       		.uleb128 0x5
ARM GAS  C:\msys64\tmp\ccrvwsPm.s 			page 56


 3136 004d 00       		.byte	0
 3137 004e 03       		.uleb128 0x3
 3138 004f 08       		.uleb128 0x8
 3139 0050 3A       		.uleb128 0x3a
 3140 0051 21       		.uleb128 0x21
 3141 0052 01       		.sleb128 1
 3142 0053 3B       		.uleb128 0x3b
 3143 0054 0B       		.uleb128 0xb
 3144 0055 39       		.uleb128 0x39
 3145 0056 0B       		.uleb128 0xb
 3146 0057 49       		.uleb128 0x49
 3147 0058 13       		.uleb128 0x13
 3148 0059 02       		.uleb128 0x2
 3149 005a 17       		.uleb128 0x17
 3150 005b B742     		.uleb128 0x2137
 3151 005d 17       		.uleb128 0x17
 3152 005e 00       		.byte	0
 3153 005f 00       		.byte	0
 3154 0060 08       		.uleb128 0x8
 3155 0061 1D       		.uleb128 0x1d
 3156 0062 01       		.byte	0x1
 3157 0063 31       		.uleb128 0x31
 3158 0064 13       		.uleb128 0x13
 3159 0065 52       		.uleb128 0x52
 3160 0066 01       		.uleb128 0x1
 3161 0067 B842     		.uleb128 0x2138
 3162 0069 0B       		.uleb128 0xb
 3163 006a 11       		.uleb128 0x11
 3164 006b 01       		.uleb128 0x1
 3165 006c 12       		.uleb128 0x12
 3166 006d 06       		.uleb128 0x6
 3167 006e 58       		.uleb128 0x58
 3168 006f 0B       		.uleb128 0xb
 3169 0070 59       		.uleb128 0x59
 3170 0071 05       		.uleb128 0x5
 3171 0072 57       		.uleb128 0x57
 3172 0073 21       		.uleb128 0x21
 3173 0074 03       		.sleb128 3
 3174 0075 00       		.byte	0
 3175 0076 00       		.byte	0
 3176 0077 09       		.uleb128 0x9
 3177 0078 1D       		.uleb128 0x1d
 3178 0079 01       		.byte	0x1
 3179 007a 31       		.uleb128 0x31
 3180 007b 13       		.uleb128 0x13
 3181 007c 52       		.uleb128 0x52
 3182 007d 01       		.uleb128 0x1
 3183 007e B842     		.uleb128 0x2138
 3184 0080 0B       		.uleb128 0xb
 3185 0081 55       		.uleb128 0x55
 3186 0082 17       		.uleb128 0x17
 3187 0083 58       		.uleb128 0x58
 3188 0084 0B       		.uleb128 0xb
 3189 0085 59       		.uleb128 0x59
 3190 0086 05       		.uleb128 0x5
 3191 0087 57       		.uleb128 0x57
 3192 0088 21       		.uleb128 0x21
ARM GAS  C:\msys64\tmp\ccrvwsPm.s 			page 57


 3193 0089 03       		.sleb128 3
 3194 008a 00       		.byte	0
 3195 008b 00       		.byte	0
 3196 008c 0A       		.uleb128 0xa
 3197 008d 24       		.uleb128 0x24
 3198 008e 00       		.byte	0
 3199 008f 0B       		.uleb128 0xb
 3200 0090 0B       		.uleb128 0xb
 3201 0091 3E       		.uleb128 0x3e
 3202 0092 0B       		.uleb128 0xb
 3203 0093 03       		.uleb128 0x3
 3204 0094 0E       		.uleb128 0xe
 3205 0095 00       		.byte	0
 3206 0096 00       		.byte	0
 3207 0097 0B       		.uleb128 0xb
 3208 0098 26       		.uleb128 0x26
 3209 0099 00       		.byte	0
 3210 009a 49       		.uleb128 0x49
 3211 009b 13       		.uleb128 0x13
 3212 009c 00       		.byte	0
 3213 009d 00       		.byte	0
 3214 009e 0C       		.uleb128 0xc
 3215 009f 15       		.uleb128 0x15
 3216 00a0 01       		.byte	0x1
 3217 00a1 27       		.uleb128 0x27
 3218 00a2 19       		.uleb128 0x19
 3219 00a3 49       		.uleb128 0x49
 3220 00a4 13       		.uleb128 0x13
 3221 00a5 01       		.uleb128 0x1
 3222 00a6 13       		.uleb128 0x13
 3223 00a7 00       		.byte	0
 3224 00a8 00       		.byte	0
 3225 00a9 0D       		.uleb128 0xd
 3226 00aa 05       		.uleb128 0x5
 3227 00ab 00       		.byte	0
 3228 00ac 31       		.uleb128 0x31
 3229 00ad 13       		.uleb128 0x13
 3230 00ae 02       		.uleb128 0x2
 3231 00af 17       		.uleb128 0x17
 3232 00b0 B742     		.uleb128 0x2137
 3233 00b2 17       		.uleb128 0x17
 3234 00b3 00       		.byte	0
 3235 00b4 00       		.byte	0
 3236 00b5 0E       		.uleb128 0xe
 3237 00b6 0D       		.uleb128 0xd
 3238 00b7 00       		.byte	0
 3239 00b8 03       		.uleb128 0x3
 3240 00b9 08       		.uleb128 0x8
 3241 00ba 3A       		.uleb128 0x3a
 3242 00bb 0B       		.uleb128 0xb
 3243 00bc 3B       		.uleb128 0x3b
 3244 00bd 0B       		.uleb128 0xb
 3245 00be 39       		.uleb128 0x39
 3246 00bf 0B       		.uleb128 0xb
 3247 00c0 49       		.uleb128 0x49
 3248 00c1 13       		.uleb128 0x13
 3249 00c2 38       		.uleb128 0x38
ARM GAS  C:\msys64\tmp\ccrvwsPm.s 			page 58


 3250 00c3 0B       		.uleb128 0xb
 3251 00c4 00       		.byte	0
 3252 00c5 00       		.byte	0
 3253 00c6 0F       		.uleb128 0xf
 3254 00c7 48       		.uleb128 0x48
 3255 00c8 01       		.byte	0x1
 3256 00c9 7D       		.uleb128 0x7d
 3257 00ca 01       		.uleb128 0x1
 3258 00cb 8201     		.uleb128 0x82
 3259 00cd 19       		.uleb128 0x19
 3260 00ce 7F       		.uleb128 0x7f
 3261 00cf 13       		.uleb128 0x13
 3262 00d0 00       		.byte	0
 3263 00d1 00       		.byte	0
 3264 00d2 10       		.uleb128 0x10
 3265 00d3 13       		.uleb128 0x13
 3266 00d4 01       		.byte	0x1
 3267 00d5 03       		.uleb128 0x3
 3268 00d6 0E       		.uleb128 0xe
 3269 00d7 0B       		.uleb128 0xb
 3270 00d8 0B       		.uleb128 0xb
 3271 00d9 3A       		.uleb128 0x3a
 3272 00da 0B       		.uleb128 0xb
 3273 00db 3B       		.uleb128 0x3b
 3274 00dc 0B       		.uleb128 0xb
 3275 00dd 39       		.uleb128 0x39
 3276 00de 21       		.uleb128 0x21
 3277 00df 08       		.sleb128 8
 3278 00e0 01       		.uleb128 0x1
 3279 00e1 13       		.uleb128 0x13
 3280 00e2 00       		.byte	0
 3281 00e3 00       		.byte	0
 3282 00e4 11       		.uleb128 0x11
 3283 00e5 01       		.uleb128 0x1
 3284 00e6 01       		.byte	0x1
 3285 00e7 49       		.uleb128 0x49
 3286 00e8 13       		.uleb128 0x13
 3287 00e9 01       		.uleb128 0x1
 3288 00ea 13       		.uleb128 0x13
 3289 00eb 00       		.byte	0
 3290 00ec 00       		.byte	0
 3291 00ed 12       		.uleb128 0x12
 3292 00ee 21       		.uleb128 0x21
 3293 00ef 00       		.byte	0
 3294 00f0 49       		.uleb128 0x49
 3295 00f1 13       		.uleb128 0x13
 3296 00f2 2F       		.uleb128 0x2f
 3297 00f3 0B       		.uleb128 0xb
 3298 00f4 00       		.byte	0
 3299 00f5 00       		.byte	0
 3300 00f6 13       		.uleb128 0x13
 3301 00f7 2E       		.uleb128 0x2e
 3302 00f8 01       		.byte	0x1
 3303 00f9 3F       		.uleb128 0x3f
 3304 00fa 19       		.uleb128 0x19
 3305 00fb 03       		.uleb128 0x3
 3306 00fc 0E       		.uleb128 0xe
ARM GAS  C:\msys64\tmp\ccrvwsPm.s 			page 59


 3307 00fd 3A       		.uleb128 0x3a
 3308 00fe 21       		.uleb128 0x21
 3309 00ff 0E       		.sleb128 14
 3310 0100 3B       		.uleb128 0x3b
 3311 0101 0B       		.uleb128 0xb
 3312 0102 39       		.uleb128 0x39
 3313 0103 0B       		.uleb128 0xb
 3314 0104 27       		.uleb128 0x27
 3315 0105 19       		.uleb128 0x19
 3316 0106 49       		.uleb128 0x49
 3317 0107 13       		.uleb128 0x13
 3318 0108 3C       		.uleb128 0x3c
 3319 0109 19       		.uleb128 0x19
 3320 010a 01       		.uleb128 0x1
 3321 010b 13       		.uleb128 0x13
 3322 010c 00       		.byte	0
 3323 010d 00       		.byte	0
 3324 010e 14       		.uleb128 0x14
 3325 010f 2E       		.uleb128 0x2e
 3326 0110 00       		.byte	0
 3327 0111 03       		.uleb128 0x3
 3328 0112 0E       		.uleb128 0xe
 3329 0113 3A       		.uleb128 0x3a
 3330 0114 0B       		.uleb128 0xb
 3331 0115 3B       		.uleb128 0x3b
 3332 0116 05       		.uleb128 0x5
 3333 0117 39       		.uleb128 0x39
 3334 0118 21       		.uleb128 0x21
 3335 0119 14       		.sleb128 20
 3336 011a 27       		.uleb128 0x27
 3337 011b 19       		.uleb128 0x19
 3338 011c 20       		.uleb128 0x20
 3339 011d 21       		.uleb128 0x21
 3340 011e 03       		.sleb128 3
 3341 011f 00       		.byte	0
 3342 0120 00       		.byte	0
 3343 0121 15       		.uleb128 0x15
 3344 0122 0D       		.uleb128 0xd
 3345 0123 00       		.byte	0
 3346 0124 03       		.uleb128 0x3
 3347 0125 0E       		.uleb128 0xe
 3348 0126 3A       		.uleb128 0x3a
 3349 0127 0B       		.uleb128 0xb
 3350 0128 3B       		.uleb128 0x3b
 3351 0129 05       		.uleb128 0x5
 3352 012a 39       		.uleb128 0x39
 3353 012b 0B       		.uleb128 0xb
 3354 012c 49       		.uleb128 0x49
 3355 012d 13       		.uleb128 0x13
 3356 012e 38       		.uleb128 0x38
 3357 012f 0B       		.uleb128 0xb
 3358 0130 00       		.byte	0
 3359 0131 00       		.byte	0
 3360 0132 16       		.uleb128 0x16
 3361 0133 34       		.uleb128 0x34
 3362 0134 00       		.byte	0
 3363 0135 03       		.uleb128 0x3
ARM GAS  C:\msys64\tmp\ccrvwsPm.s 			page 60


 3364 0136 0E       		.uleb128 0xe
 3365 0137 49       		.uleb128 0x49
 3366 0138 13       		.uleb128 0x13
 3367 0139 34       		.uleb128 0x34
 3368 013a 19       		.uleb128 0x19
 3369 013b 00       		.byte	0
 3370 013c 00       		.byte	0
 3371 013d 17       		.uleb128 0x17
 3372 013e 2E       		.uleb128 0x2e
 3373 013f 01       		.byte	0x1
 3374 0140 3F       		.uleb128 0x3f
 3375 0141 19       		.uleb128 0x19
 3376 0142 03       		.uleb128 0x3
 3377 0143 0E       		.uleb128 0xe
 3378 0144 3A       		.uleb128 0x3a
 3379 0145 21       		.uleb128 0x21
 3380 0146 01       		.sleb128 1
 3381 0147 3B       		.uleb128 0x3b
 3382 0148 0B       		.uleb128 0xb
 3383 0149 39       		.uleb128 0x39
 3384 014a 21       		.uleb128 0x21
 3385 014b 06       		.sleb128 6
 3386 014c 27       		.uleb128 0x27
 3387 014d 19       		.uleb128 0x19
 3388 014e 11       		.uleb128 0x11
 3389 014f 01       		.uleb128 0x1
 3390 0150 12       		.uleb128 0x12
 3391 0151 06       		.uleb128 0x6
 3392 0152 40       		.uleb128 0x40
 3393 0153 18       		.uleb128 0x18
 3394 0154 7A       		.uleb128 0x7a
 3395 0155 19       		.uleb128 0x19
 3396 0156 01       		.uleb128 0x1
 3397 0157 13       		.uleb128 0x13
 3398 0158 00       		.byte	0
 3399 0159 00       		.byte	0
 3400 015a 18       		.uleb128 0x18
 3401 015b 0D       		.uleb128 0xd
 3402 015c 00       		.byte	0
 3403 015d 03       		.uleb128 0x3
 3404 015e 0E       		.uleb128 0xe
 3405 015f 3A       		.uleb128 0x3a
 3406 0160 21       		.uleb128 0x21
 3407 0161 0B       		.sleb128 11
 3408 0162 3B       		.uleb128 0x3b
 3409 0163 0B       		.uleb128 0xb
 3410 0164 39       		.uleb128 0x39
 3411 0165 0B       		.uleb128 0xb
 3412 0166 49       		.uleb128 0x49
 3413 0167 13       		.uleb128 0x13
 3414 0168 00       		.byte	0
 3415 0169 00       		.byte	0
 3416 016a 19       		.uleb128 0x19
 3417 016b 28       		.uleb128 0x28
 3418 016c 00       		.byte	0
 3419 016d 03       		.uleb128 0x3
 3420 016e 0E       		.uleb128 0xe
ARM GAS  C:\msys64\tmp\ccrvwsPm.s 			page 61


 3421 016f 1C       		.uleb128 0x1c
 3422 0170 0B       		.uleb128 0xb
 3423 0171 00       		.byte	0
 3424 0172 00       		.byte	0
 3425 0173 1A       		.uleb128 0x1a
 3426 0174 1D       		.uleb128 0x1d
 3427 0175 01       		.byte	0x1
 3428 0176 31       		.uleb128 0x31
 3429 0177 13       		.uleb128 0x13
 3430 0178 52       		.uleb128 0x52
 3431 0179 01       		.uleb128 0x1
 3432 017a B842     		.uleb128 0x2138
 3433 017c 0B       		.uleb128 0xb
 3434 017d 55       		.uleb128 0x55
 3435 017e 17       		.uleb128 0x17
 3436 017f 58       		.uleb128 0x58
 3437 0180 21       		.uleb128 0x21
 3438 0181 01       		.sleb128 1
 3439 0182 59       		.uleb128 0x59
 3440 0183 0B       		.uleb128 0xb
 3441 0184 57       		.uleb128 0x57
 3442 0185 21       		.uleb128 0x21
 3443 0186 03       		.sleb128 3
 3444 0187 01       		.uleb128 0x1
 3445 0188 13       		.uleb128 0x13
 3446 0189 00       		.byte	0
 3447 018a 00       		.byte	0
 3448 018b 1B       		.uleb128 0x1b
 3449 018c 48       		.uleb128 0x48
 3450 018d 01       		.byte	0x1
 3451 018e 7D       		.uleb128 0x7d
 3452 018f 01       		.uleb128 0x1
 3453 0190 7F       		.uleb128 0x7f
 3454 0191 13       		.uleb128 0x13
 3455 0192 01       		.uleb128 0x1
 3456 0193 13       		.uleb128 0x13
 3457 0194 00       		.byte	0
 3458 0195 00       		.byte	0
 3459 0196 1C       		.uleb128 0x1c
 3460 0197 05       		.uleb128 0x5
 3461 0198 00       		.byte	0
 3462 0199 03       		.uleb128 0x3
 3463 019a 0E       		.uleb128 0xe
 3464 019b 3A       		.uleb128 0x3a
 3465 019c 21       		.uleb128 0x21
 3466 019d 01       		.sleb128 1
 3467 019e 3B       		.uleb128 0x3b
 3468 019f 0B       		.uleb128 0xb
 3469 01a0 39       		.uleb128 0x39
 3470 01a1 0B       		.uleb128 0xb
 3471 01a2 49       		.uleb128 0x49
 3472 01a3 13       		.uleb128 0x13
 3473 01a4 02       		.uleb128 0x2
 3474 01a5 17       		.uleb128 0x17
 3475 01a6 B742     		.uleb128 0x2137
 3476 01a8 17       		.uleb128 0x17
 3477 01a9 00       		.byte	0
ARM GAS  C:\msys64\tmp\ccrvwsPm.s 			page 62


 3478 01aa 00       		.byte	0
 3479 01ab 1D       		.uleb128 0x1d
 3480 01ac 35       		.uleb128 0x35
 3481 01ad 00       		.byte	0
 3482 01ae 49       		.uleb128 0x49
 3483 01af 13       		.uleb128 0x13
 3484 01b0 00       		.byte	0
 3485 01b1 00       		.byte	0
 3486 01b2 1E       		.uleb128 0x1e
 3487 01b3 13       		.uleb128 0x13
 3488 01b4 01       		.byte	0x1
 3489 01b5 0B       		.uleb128 0xb
 3490 01b6 0B       		.uleb128 0xb
 3491 01b7 3A       		.uleb128 0x3a
 3492 01b8 0B       		.uleb128 0xb
 3493 01b9 3B       		.uleb128 0x3b
 3494 01ba 05       		.uleb128 0x5
 3495 01bb 39       		.uleb128 0x39
 3496 01bc 21       		.uleb128 0x21
 3497 01bd 09       		.sleb128 9
 3498 01be 01       		.uleb128 0x1
 3499 01bf 13       		.uleb128 0x13
 3500 01c0 00       		.byte	0
 3501 01c1 00       		.byte	0
 3502 01c2 1F       		.uleb128 0x1f
 3503 01c3 16       		.uleb128 0x16
 3504 01c4 00       		.byte	0
 3505 01c5 03       		.uleb128 0x3
 3506 01c6 0E       		.uleb128 0xe
 3507 01c7 3A       		.uleb128 0x3a
 3508 01c8 0B       		.uleb128 0xb
 3509 01c9 3B       		.uleb128 0x3b
 3510 01ca 05       		.uleb128 0x5
 3511 01cb 39       		.uleb128 0x39
 3512 01cc 21       		.uleb128 0x21
 3513 01cd 03       		.sleb128 3
 3514 01ce 49       		.uleb128 0x49
 3515 01cf 13       		.uleb128 0x13
 3516 01d0 00       		.byte	0
 3517 01d1 00       		.byte	0
 3518 01d2 20       		.uleb128 0x20
 3519 01d3 2E       		.uleb128 0x2e
 3520 01d4 00       		.byte	0
 3521 01d5 3F       		.uleb128 0x3f
 3522 01d6 19       		.uleb128 0x19
 3523 01d7 03       		.uleb128 0x3
 3524 01d8 0E       		.uleb128 0xe
 3525 01d9 3A       		.uleb128 0x3a
 3526 01da 0B       		.uleb128 0xb
 3527 01db 3B       		.uleb128 0x3b
 3528 01dc 05       		.uleb128 0x5
 3529 01dd 39       		.uleb128 0x39
 3530 01de 21       		.uleb128 0x21
 3531 01df 08       		.sleb128 8
 3532 01e0 27       		.uleb128 0x27
 3533 01e1 19       		.uleb128 0x19
 3534 01e2 3C       		.uleb128 0x3c
ARM GAS  C:\msys64\tmp\ccrvwsPm.s 			page 63


 3535 01e3 19       		.uleb128 0x19
 3536 01e4 00       		.byte	0
 3537 01e5 00       		.byte	0
 3538 01e6 21       		.uleb128 0x21
 3539 01e7 2E       		.uleb128 0x2e
 3540 01e8 01       		.byte	0x1
 3541 01e9 3F       		.uleb128 0x3f
 3542 01ea 19       		.uleb128 0x19
 3543 01eb 03       		.uleb128 0x3
 3544 01ec 0E       		.uleb128 0xe
 3545 01ed 3A       		.uleb128 0x3a
 3546 01ee 21       		.uleb128 0x21
 3547 01ef 0E       		.sleb128 14
 3548 01f0 3B       		.uleb128 0x3b
 3549 01f1 0B       		.uleb128 0xb
 3550 01f2 39       		.uleb128 0x39
 3551 01f3 21       		.uleb128 0x21
 3552 01f4 08       		.sleb128 8
 3553 01f5 27       		.uleb128 0x27
 3554 01f6 19       		.uleb128 0x19
 3555 01f7 3C       		.uleb128 0x3c
 3556 01f8 19       		.uleb128 0x19
 3557 01f9 01       		.uleb128 0x1
 3558 01fa 13       		.uleb128 0x13
 3559 01fb 00       		.byte	0
 3560 01fc 00       		.byte	0
 3561 01fd 22       		.uleb128 0x22
 3562 01fe 2E       		.uleb128 0x2e
 3563 01ff 01       		.byte	0x1
 3564 0200 3F       		.uleb128 0x3f
 3565 0201 19       		.uleb128 0x19
 3566 0202 03       		.uleb128 0x3
 3567 0203 0E       		.uleb128 0xe
 3568 0204 3A       		.uleb128 0x3a
 3569 0205 21       		.uleb128 0x21
 3570 0206 10       		.sleb128 16
 3571 0207 3B       		.uleb128 0x3b
 3572 0208 05       		.uleb128 0x5
 3573 0209 39       		.uleb128 0x39
 3574 020a 21       		.uleb128 0x21
 3575 020b 08       		.sleb128 8
 3576 020c 27       		.uleb128 0x27
 3577 020d 19       		.uleb128 0x19
 3578 020e 3C       		.uleb128 0x3c
 3579 020f 19       		.uleb128 0x19
 3580 0210 01       		.uleb128 0x1
 3581 0211 13       		.uleb128 0x13
 3582 0212 00       		.byte	0
 3583 0213 00       		.byte	0
 3584 0214 23       		.uleb128 0x23
 3585 0215 2E       		.uleb128 0x2e
 3586 0216 01       		.byte	0x1
 3587 0217 3F       		.uleb128 0x3f
 3588 0218 19       		.uleb128 0x19
 3589 0219 03       		.uleb128 0x3
 3590 021a 0E       		.uleb128 0xe
 3591 021b 3A       		.uleb128 0x3a
ARM GAS  C:\msys64\tmp\ccrvwsPm.s 			page 64


 3592 021c 21       		.uleb128 0x21
 3593 021d 01       		.sleb128 1
 3594 021e 3B       		.uleb128 0x3b
 3595 021f 05       		.uleb128 0x5
 3596 0220 39       		.uleb128 0x39
 3597 0221 21       		.uleb128 0x21
 3598 0222 06       		.sleb128 6
 3599 0223 27       		.uleb128 0x27
 3600 0224 19       		.uleb128 0x19
 3601 0225 49       		.uleb128 0x49
 3602 0226 13       		.uleb128 0x13
 3603 0227 11       		.uleb128 0x11
 3604 0228 01       		.uleb128 0x1
 3605 0229 12       		.uleb128 0x12
 3606 022a 06       		.uleb128 0x6
 3607 022b 40       		.uleb128 0x40
 3608 022c 18       		.uleb128 0x18
 3609 022d 7A       		.uleb128 0x7a
 3610 022e 19       		.uleb128 0x19
 3611 022f 01       		.uleb128 0x1
 3612 0230 13       		.uleb128 0x13
 3613 0231 00       		.byte	0
 3614 0232 00       		.byte	0
 3615 0233 24       		.uleb128 0x24
 3616 0234 05       		.uleb128 0x5
 3617 0235 00       		.byte	0
 3618 0236 03       		.uleb128 0x3
 3619 0237 08       		.uleb128 0x8
 3620 0238 3A       		.uleb128 0x3a
 3621 0239 21       		.uleb128 0x21
 3622 023a 01       		.sleb128 1
 3623 023b 3B       		.uleb128 0x3b
 3624 023c 05       		.uleb128 0x5
 3625 023d 39       		.uleb128 0x39
 3626 023e 21       		.uleb128 0x21
 3627 023f 24       		.sleb128 36
 3628 0240 49       		.uleb128 0x49
 3629 0241 13       		.uleb128 0x13
 3630 0242 02       		.uleb128 0x2
 3631 0243 17       		.uleb128 0x17
 3632 0244 B742     		.uleb128 0x2137
 3633 0246 17       		.uleb128 0x17
 3634 0247 00       		.byte	0
 3635 0248 00       		.byte	0
 3636 0249 25       		.uleb128 0x25
 3637 024a 34       		.uleb128 0x34
 3638 024b 00       		.byte	0
 3639 024c 03       		.uleb128 0x3
 3640 024d 08       		.uleb128 0x8
 3641 024e 3A       		.uleb128 0x3a
 3642 024f 21       		.uleb128 0x21
 3643 0250 01       		.sleb128 1
 3644 0251 3B       		.uleb128 0x3b
 3645 0252 05       		.uleb128 0x5
 3646 0253 39       		.uleb128 0x39
 3647 0254 21       		.uleb128 0x21
 3648 0255 08       		.sleb128 8
ARM GAS  C:\msys64\tmp\ccrvwsPm.s 			page 65


 3649 0256 49       		.uleb128 0x49
 3650 0257 13       		.uleb128 0x13
 3651 0258 02       		.uleb128 0x2
 3652 0259 17       		.uleb128 0x17
 3653 025a B742     		.uleb128 0x2137
 3654 025c 17       		.uleb128 0x17
 3655 025d 00       		.byte	0
 3656 025e 00       		.byte	0
 3657 025f 26       		.uleb128 0x26
 3658 0260 1D       		.uleb128 0x1d
 3659 0261 01       		.byte	0x1
 3660 0262 31       		.uleb128 0x31
 3661 0263 13       		.uleb128 0x13
 3662 0264 52       		.uleb128 0x52
 3663 0265 01       		.uleb128 0x1
 3664 0266 B842     		.uleb128 0x2138
 3665 0268 0B       		.uleb128 0xb
 3666 0269 11       		.uleb128 0x11
 3667 026a 01       		.uleb128 0x1
 3668 026b 12       		.uleb128 0x12
 3669 026c 06       		.uleb128 0x6
 3670 026d 58       		.uleb128 0x58
 3671 026e 21       		.uleb128 0x21
 3672 026f 01       		.sleb128 1
 3673 0270 59       		.uleb128 0x59
 3674 0271 05       		.uleb128 0x5
 3675 0272 57       		.uleb128 0x57
 3676 0273 21       		.uleb128 0x21
 3677 0274 03       		.sleb128 3
 3678 0275 01       		.uleb128 0x1
 3679 0276 13       		.uleb128 0x13
 3680 0277 00       		.byte	0
 3681 0278 00       		.byte	0
 3682 0279 27       		.uleb128 0x27
 3683 027a 0B       		.uleb128 0xb
 3684 027b 01       		.byte	0x1
 3685 027c 55       		.uleb128 0x55
 3686 027d 17       		.uleb128 0x17
 3687 027e 00       		.byte	0
 3688 027f 00       		.byte	0
 3689 0280 28       		.uleb128 0x28
 3690 0281 1D       		.uleb128 0x1d
 3691 0282 01       		.byte	0x1
 3692 0283 31       		.uleb128 0x31
 3693 0284 13       		.uleb128 0x13
 3694 0285 52       		.uleb128 0x52
 3695 0286 01       		.uleb128 0x1
 3696 0287 B842     		.uleb128 0x2138
 3697 0289 0B       		.uleb128 0xb
 3698 028a 11       		.uleb128 0x11
 3699 028b 01       		.uleb128 0x1
 3700 028c 12       		.uleb128 0x12
 3701 028d 06       		.uleb128 0x6
 3702 028e 58       		.uleb128 0x58
 3703 028f 21       		.uleb128 0x21
 3704 0290 01       		.sleb128 1
 3705 0291 59       		.uleb128 0x59
ARM GAS  C:\msys64\tmp\ccrvwsPm.s 			page 66


 3706 0292 0B       		.uleb128 0xb
 3707 0293 57       		.uleb128 0x57
 3708 0294 21       		.uleb128 0x21
 3709 0295 03       		.sleb128 3
 3710 0296 01       		.uleb128 0x1
 3711 0297 13       		.uleb128 0x13
 3712 0298 00       		.byte	0
 3713 0299 00       		.byte	0
 3714 029a 29       		.uleb128 0x29
 3715 029b 48       		.uleb128 0x48
 3716 029c 01       		.byte	0x1
 3717 029d 7D       		.uleb128 0x7d
 3718 029e 01       		.uleb128 0x1
 3719 029f 7F       		.uleb128 0x7f
 3720 02a0 13       		.uleb128 0x13
 3721 02a1 00       		.byte	0
 3722 02a2 00       		.byte	0
 3723 02a3 2A       		.uleb128 0x2a
 3724 02a4 2E       		.uleb128 0x2e
 3725 02a5 01       		.byte	0x1
 3726 02a6 03       		.uleb128 0x3
 3727 02a7 08       		.uleb128 0x8
 3728 02a8 3A       		.uleb128 0x3a
 3729 02a9 21       		.uleb128 0x21
 3730 02aa 01       		.sleb128 1
 3731 02ab 3B       		.uleb128 0x3b
 3732 02ac 0B       		.uleb128 0xb
 3733 02ad 39       		.uleb128 0x39
 3734 02ae 21       		.uleb128 0x21
 3735 02af 0E       		.sleb128 14
 3736 02b0 27       		.uleb128 0x27
 3737 02b1 19       		.uleb128 0x19
 3738 02b2 49       		.uleb128 0x49
 3739 02b3 13       		.uleb128 0x13
 3740 02b4 11       		.uleb128 0x11
 3741 02b5 01       		.uleb128 0x1
 3742 02b6 12       		.uleb128 0x12
 3743 02b7 06       		.uleb128 0x6
 3744 02b8 40       		.uleb128 0x40
 3745 02b9 18       		.uleb128 0x18
 3746 02ba 7A       		.uleb128 0x7a
 3747 02bb 19       		.uleb128 0x19
 3748 02bc 01       		.uleb128 0x1
 3749 02bd 13       		.uleb128 0x13
 3750 02be 00       		.byte	0
 3751 02bf 00       		.byte	0
 3752 02c0 2B       		.uleb128 0x2b
 3753 02c1 2E       		.uleb128 0x2e
 3754 02c2 01       		.byte	0x1
 3755 02c3 03       		.uleb128 0x3
 3756 02c4 0E       		.uleb128 0xe
 3757 02c5 3A       		.uleb128 0x3a
 3758 02c6 21       		.uleb128 0x21
 3759 02c7 01       		.sleb128 1
 3760 02c8 3B       		.uleb128 0x3b
 3761 02c9 0B       		.uleb128 0xb
 3762 02ca 39       		.uleb128 0x39
ARM GAS  C:\msys64\tmp\ccrvwsPm.s 			page 67


 3763 02cb 21       		.uleb128 0x21
 3764 02cc 0F       		.sleb128 15
 3765 02cd 27       		.uleb128 0x27
 3766 02ce 19       		.uleb128 0x19
 3767 02cf 49       		.uleb128 0x49
 3768 02d0 13       		.uleb128 0x13
 3769 02d1 11       		.uleb128 0x11
 3770 02d2 01       		.uleb128 0x1
 3771 02d3 12       		.uleb128 0x12
 3772 02d4 06       		.uleb128 0x6
 3773 02d5 40       		.uleb128 0x40
 3774 02d6 18       		.uleb128 0x18
 3775 02d7 7A       		.uleb128 0x7a
 3776 02d8 19       		.uleb128 0x19
 3777 02d9 01       		.uleb128 0x1
 3778 02da 13       		.uleb128 0x13
 3779 02db 00       		.byte	0
 3780 02dc 00       		.byte	0
 3781 02dd 2C       		.uleb128 0x2c
 3782 02de 11       		.uleb128 0x11
 3783 02df 01       		.byte	0x1
 3784 02e0 25       		.uleb128 0x25
 3785 02e1 0E       		.uleb128 0xe
 3786 02e2 13       		.uleb128 0x13
 3787 02e3 0B       		.uleb128 0xb
 3788 02e4 03       		.uleb128 0x3
 3789 02e5 0E       		.uleb128 0xe
 3790 02e6 1B       		.uleb128 0x1b
 3791 02e7 0E       		.uleb128 0xe
 3792 02e8 55       		.uleb128 0x55
 3793 02e9 17       		.uleb128 0x17
 3794 02ea 11       		.uleb128 0x11
 3795 02eb 01       		.uleb128 0x1
 3796 02ec 10       		.uleb128 0x10
 3797 02ed 17       		.uleb128 0x17
 3798 02ee 00       		.byte	0
 3799 02ef 00       		.byte	0
 3800 02f0 2D       		.uleb128 0x2d
 3801 02f1 24       		.uleb128 0x24
 3802 02f2 00       		.byte	0
 3803 02f3 0B       		.uleb128 0xb
 3804 02f4 0B       		.uleb128 0xb
 3805 02f5 3E       		.uleb128 0x3e
 3806 02f6 0B       		.uleb128 0xb
 3807 02f7 03       		.uleb128 0x3
 3808 02f8 08       		.uleb128 0x8
 3809 02f9 00       		.byte	0
 3810 02fa 00       		.byte	0
 3811 02fb 2E       		.uleb128 0x2e
 3812 02fc 0F       		.uleb128 0xf
 3813 02fd 00       		.byte	0
 3814 02fe 0B       		.uleb128 0xb
 3815 02ff 0B       		.uleb128 0xb
 3816 0300 00       		.byte	0
 3817 0301 00       		.byte	0
 3818 0302 2F       		.uleb128 0x2f
 3819 0303 13       		.uleb128 0x13
ARM GAS  C:\msys64\tmp\ccrvwsPm.s 			page 68


 3820 0304 01       		.byte	0x1
 3821 0305 03       		.uleb128 0x3
 3822 0306 0E       		.uleb128 0xe
 3823 0307 0B       		.uleb128 0xb
 3824 0308 0B       		.uleb128 0xb
 3825 0309 3A       		.uleb128 0x3a
 3826 030a 0B       		.uleb128 0xb
 3827 030b 3B       		.uleb128 0x3b
 3828 030c 05       		.uleb128 0x5
 3829 030d 39       		.uleb128 0x39
 3830 030e 0B       		.uleb128 0xb
 3831 030f 01       		.uleb128 0x1
 3832 0310 13       		.uleb128 0x13
 3833 0311 00       		.byte	0
 3834 0312 00       		.byte	0
 3835 0313 30       		.uleb128 0x30
 3836 0314 17       		.uleb128 0x17
 3837 0315 01       		.byte	0x1
 3838 0316 0B       		.uleb128 0xb
 3839 0317 0B       		.uleb128 0xb
 3840 0318 3A       		.uleb128 0x3a
 3841 0319 0B       		.uleb128 0xb
 3842 031a 3B       		.uleb128 0x3b
 3843 031b 0B       		.uleb128 0xb
 3844 031c 39       		.uleb128 0x39
 3845 031d 0B       		.uleb128 0xb
 3846 031e 01       		.uleb128 0x1
 3847 031f 13       		.uleb128 0x13
 3848 0320 00       		.byte	0
 3849 0321 00       		.byte	0
 3850 0322 31       		.uleb128 0x31
 3851 0323 15       		.uleb128 0x15
 3852 0324 01       		.byte	0x1
 3853 0325 27       		.uleb128 0x27
 3854 0326 19       		.uleb128 0x19
 3855 0327 01       		.uleb128 0x1
 3856 0328 13       		.uleb128 0x13
 3857 0329 00       		.byte	0
 3858 032a 00       		.byte	0
 3859 032b 32       		.uleb128 0x32
 3860 032c 04       		.uleb128 0x4
 3861 032d 01       		.byte	0x1
 3862 032e 3E       		.uleb128 0x3e
 3863 032f 0B       		.uleb128 0xb
 3864 0330 0B       		.uleb128 0xb
 3865 0331 0B       		.uleb128 0xb
 3866 0332 49       		.uleb128 0x49
 3867 0333 13       		.uleb128 0x13
 3868 0334 3A       		.uleb128 0x3a
 3869 0335 0B       		.uleb128 0xb
 3870 0336 3B       		.uleb128 0x3b
 3871 0337 0B       		.uleb128 0xb
 3872 0338 39       		.uleb128 0x39
 3873 0339 0B       		.uleb128 0xb
 3874 033a 01       		.uleb128 0x1
 3875 033b 13       		.uleb128 0x13
 3876 033c 00       		.byte	0
ARM GAS  C:\msys64\tmp\ccrvwsPm.s 			page 69


 3877 033d 00       		.byte	0
 3878 033e 33       		.uleb128 0x33
 3879 033f 34       		.uleb128 0x34
 3880 0340 00       		.byte	0
 3881 0341 03       		.uleb128 0x3
 3882 0342 08       		.uleb128 0x8
 3883 0343 3A       		.uleb128 0x3a
 3884 0344 0B       		.uleb128 0xb
 3885 0345 3B       		.uleb128 0x3b
 3886 0346 0B       		.uleb128 0xb
 3887 0347 39       		.uleb128 0x39
 3888 0348 0B       		.uleb128 0xb
 3889 0349 49       		.uleb128 0x49
 3890 034a 13       		.uleb128 0x13
 3891 034b 02       		.uleb128 0x2
 3892 034c 18       		.uleb128 0x18
 3893 034d 00       		.byte	0
 3894 034e 00       		.byte	0
 3895 034f 34       		.uleb128 0x34
 3896 0350 2E       		.uleb128 0x2e
 3897 0351 01       		.byte	0x1
 3898 0352 3F       		.uleb128 0x3f
 3899 0353 19       		.uleb128 0x19
 3900 0354 03       		.uleb128 0x3
 3901 0355 0E       		.uleb128 0xe
 3902 0356 3A       		.uleb128 0x3a
 3903 0357 0B       		.uleb128 0xb
 3904 0358 3B       		.uleb128 0x3b
 3905 0359 0B       		.uleb128 0xb
 3906 035a 39       		.uleb128 0x39
 3907 035b 0B       		.uleb128 0xb
 3908 035c 27       		.uleb128 0x27
 3909 035d 19       		.uleb128 0x19
 3910 035e 49       		.uleb128 0x49
 3911 035f 13       		.uleb128 0x13
 3912 0360 11       		.uleb128 0x11
 3913 0361 01       		.uleb128 0x1
 3914 0362 12       		.uleb128 0x12
 3915 0363 06       		.uleb128 0x6
 3916 0364 40       		.uleb128 0x40
 3917 0365 18       		.uleb128 0x18
 3918 0366 7A       		.uleb128 0x7a
 3919 0367 19       		.uleb128 0x19
 3920 0368 01       		.uleb128 0x1
 3921 0369 13       		.uleb128 0x13
 3922 036a 00       		.byte	0
 3923 036b 00       		.byte	0
 3924 036c 35       		.uleb128 0x35
 3925 036d 34       		.uleb128 0x34
 3926 036e 00       		.byte	0
 3927 036f 03       		.uleb128 0x3
 3928 0370 08       		.uleb128 0x8
 3929 0371 3A       		.uleb128 0x3a
 3930 0372 0B       		.uleb128 0xb
 3931 0373 3B       		.uleb128 0x3b
 3932 0374 0B       		.uleb128 0xb
 3933 0375 39       		.uleb128 0x39
ARM GAS  C:\msys64\tmp\ccrvwsPm.s 			page 70


 3934 0376 0B       		.uleb128 0xb
 3935 0377 49       		.uleb128 0x49
 3936 0378 13       		.uleb128 0x13
 3937 0379 00       		.byte	0
 3938 037a 00       		.byte	0
 3939 037b 36       		.uleb128 0x36
 3940 037c 48       		.uleb128 0x48
 3941 037d 00       		.byte	0
 3942 037e 7D       		.uleb128 0x7d
 3943 037f 01       		.uleb128 0x1
 3944 0380 7F       		.uleb128 0x7f
 3945 0381 13       		.uleb128 0x13
 3946 0382 00       		.byte	0
 3947 0383 00       		.byte	0
 3948 0384 37       		.uleb128 0x37
 3949 0385 48       		.uleb128 0x48
 3950 0386 00       		.byte	0
 3951 0387 7D       		.uleb128 0x7d
 3952 0388 01       		.uleb128 0x1
 3953 0389 8201     		.uleb128 0x82
 3954 038b 19       		.uleb128 0x19
 3955 038c 7F       		.uleb128 0x7f
 3956 038d 13       		.uleb128 0x13
 3957 038e 00       		.byte	0
 3958 038f 00       		.byte	0
 3959 0390 38       		.uleb128 0x38
 3960 0391 2E       		.uleb128 0x2e
 3961 0392 01       		.byte	0x1
 3962 0393 03       		.uleb128 0x3
 3963 0394 0E       		.uleb128 0xe
 3964 0395 3A       		.uleb128 0x3a
 3965 0396 0B       		.uleb128 0xb
 3966 0397 3B       		.uleb128 0x3b
 3967 0398 05       		.uleb128 0x5
 3968 0399 39       		.uleb128 0x39
 3969 039a 0B       		.uleb128 0xb
 3970 039b 27       		.uleb128 0x27
 3971 039c 19       		.uleb128 0x19
 3972 039d 20       		.uleb128 0x20
 3973 039e 0B       		.uleb128 0xb
 3974 039f 01       		.uleb128 0x1
 3975 03a0 13       		.uleb128 0x13
 3976 03a1 00       		.byte	0
 3977 03a2 00       		.byte	0
 3978 03a3 39       		.uleb128 0x39
 3979 03a4 2E       		.uleb128 0x2e
 3980 03a5 01       		.byte	0x1
 3981 03a6 03       		.uleb128 0x3
 3982 03a7 0E       		.uleb128 0xe
 3983 03a8 3A       		.uleb128 0x3a
 3984 03a9 0B       		.uleb128 0xb
 3985 03aa 3B       		.uleb128 0x3b
 3986 03ab 05       		.uleb128 0x5
 3987 03ac 39       		.uleb128 0x39
 3988 03ad 0B       		.uleb128 0xb
 3989 03ae 27       		.uleb128 0x27
 3990 03af 19       		.uleb128 0x19
ARM GAS  C:\msys64\tmp\ccrvwsPm.s 			page 71


 3991 03b0 20       		.uleb128 0x20
 3992 03b1 0B       		.uleb128 0xb
 3993 03b2 00       		.byte	0
 3994 03b3 00       		.byte	0
 3995 03b4 3A       		.uleb128 0x3a
 3996 03b5 05       		.uleb128 0x5
 3997 03b6 00       		.byte	0
 3998 03b7 03       		.uleb128 0x3
 3999 03b8 0E       		.uleb128 0xe
 4000 03b9 3A       		.uleb128 0x3a
 4001 03ba 0B       		.uleb128 0xb
 4002 03bb 3B       		.uleb128 0x3b
 4003 03bc 05       		.uleb128 0x5
 4004 03bd 39       		.uleb128 0x39
 4005 03be 0B       		.uleb128 0xb
 4006 03bf 49       		.uleb128 0x49
 4007 03c0 13       		.uleb128 0x13
 4008 03c1 00       		.byte	0
 4009 03c2 00       		.byte	0
 4010 03c3 00       		.byte	0
 4011              		.section	.debug_loclists,"",%progbits
 4012 0000 0F030000 		.4byte	.Ldebug_loc3-.Ldebug_loc2
 4013              	.Ldebug_loc2:
 4014 0004 0500     		.2byte	0x5
 4015 0006 04       		.byte	0x4
 4016 0007 00       		.byte	0
 4017 0008 00000000 		.4byte	0
 4018              	.Ldebug_loc0:
 4019              	.LVUS29:
 4020 000c 00       		.uleb128 0
 4021 000d 00       		.uleb128 .LVU203
 4022 000e 00       		.uleb128 .LVU203
 4023 000f 00       		.uleb128 0
 4024              	.LLST29:
 4025 0010 06       		.byte	0x6
 4026 0011 00000000 		.4byte	.LVL43
 4027 0015 04       		.byte	0x4
 4028 0016 00       		.uleb128 .LVL43-.LVL43
 4029 0017 08       		.uleb128 .LVL45-.LVL43
 4030 0018 01       		.uleb128 0x1
 4031 0019 50       		.byte	0x50
 4032 001a 04       		.byte	0x4
 4033 001b 08       		.uleb128 .LVL45-.LVL43
 4034 001c 16       		.uleb128 .LFE244-.LVL43
 4035 001d 0A       		.uleb128 0xa
 4036 001e A3       		.byte	0xa3
 4037 001f 03       		.uleb128 0x3
 4038 0020 A5       		.byte	0xa5
 4039 0021 00       		.uleb128 0
 4040 0022 26       		.uleb128 0x26
 4041 0023 A8       		.byte	0xa8
 4042 0024 2D       		.uleb128 0x2d
 4043 0025 A8       		.byte	0xa8
 4044 0026 00       		.uleb128 0
 4045 0027 9F       		.byte	0x9f
 4046 0028 00       		.byte	0
 4047              	.LVUS30:
ARM GAS  C:\msys64\tmp\ccrvwsPm.s 			page 72


 4048 0029 00       		.uleb128 .LVU206
 4049 002a 00       		.uleb128 0
 4050              	.LLST30:
 4051 002b 08       		.byte	0x8
 4052 002c 10000000 		.4byte	.LVL46
 4053 0030 06       		.uleb128 .LFE244-.LVL46
 4054 0031 01       		.uleb128 0x1
 4055 0032 50       		.byte	0x50
 4056 0033 00       		.byte	0
 4057              	.LVUS31:
 4058 0034 09       		.uleb128 .LVU196
 4059 0035 00       		.uleb128 .LVU198
 4060              	.LLST31:
 4061 0036 08       		.byte	0x8
 4062 0037 00000000 		.4byte	.LVL43
 4063 003b 06       		.uleb128 .LVL44-.LVL43
 4064 003c 03       		.uleb128 0x3
 4065 003d 08       		.byte	0x8
 4066 003e 20       		.byte	0x20
 4067 003f 9F       		.byte	0x9f
 4068 0040 00       		.byte	0
 4069              	.LVUS33:
 4070 0041 0C       		.uleb128 .LVU218
 4071 0042 00       		.uleb128 .LVU220
 4072              	.LLST33:
 4073 0043 08       		.byte	0x8
 4074 0044 10000000 		.4byte	.LVL46
 4075 0048 04       		.uleb128 .LVL47-.LVL46
 4076 0049 02       		.uleb128 0x2
 4077 004a 30       		.byte	0x30
 4078 004b 9F       		.byte	0x9f
 4079 004c 00       		.byte	0
 4080              	.LVUS25:
 4081 004d 00       		.uleb128 0
 4082 004e 00       		.uleb128 .LVU169
 4083 004f 00       		.uleb128 .LVU169
 4084 0050 00       		.uleb128 0
 4085              	.LLST25:
 4086 0051 06       		.byte	0x6
 4087 0052 00000000 		.4byte	.LVL38
 4088 0056 04       		.byte	0x4
 4089 0057 00       		.uleb128 .LVL38-.LVL38
 4090 0058 0A       		.uleb128 .LVL40-.LVL38
 4091 0059 01       		.uleb128 0x1
 4092 005a 50       		.byte	0x50
 4093 005b 04       		.byte	0x4
 4094 005c 0A       		.uleb128 .LVL40-.LVL38
 4095 005d 1A       		.uleb128 .LFE243-.LVL38
 4096 005e 0A       		.uleb128 0xa
 4097 005f A3       		.byte	0xa3
 4098 0060 03       		.uleb128 0x3
 4099 0061 A5       		.byte	0xa5
 4100 0062 00       		.uleb128 0
 4101 0063 26       		.uleb128 0x26
 4102 0064 A8       		.byte	0xa8
 4103 0065 2D       		.uleb128 0x2d
 4104 0066 A8       		.byte	0xa8
ARM GAS  C:\msys64\tmp\ccrvwsPm.s 			page 73


 4105 0067 00       		.uleb128 0
 4106 0068 9F       		.byte	0x9f
 4107 0069 00       		.byte	0
 4108              	.LVUS26:
 4109 006a 00       		.uleb128 .LVU170
 4110 006b 00       		.uleb128 0
 4111              	.LLST26:
 4112 006c 08       		.byte	0x8
 4113 006d 12000000 		.4byte	.LVL41
 4114 0071 08       		.uleb128 .LFE243-.LVL41
 4115 0072 01       		.uleb128 0x1
 4116 0073 50       		.byte	0x50
 4117 0074 00       		.byte	0
 4118              	.LVUS27:
 4119 0075 09       		.uleb128 .LVU162
 4120 0076 00       		.uleb128 .LVU164
 4121              	.LLST27:
 4122 0077 08       		.byte	0x8
 4123 0078 00000000 		.4byte	.LVL38
 4124 007c 06       		.uleb128 .LVL39-.LVL38
 4125 007d 03       		.uleb128 0x3
 4126 007e 08       		.byte	0x8
 4127 007f 20       		.byte	0x20
 4128 0080 9F       		.byte	0x9f
 4129 0081 00       		.byte	0
 4130              	.LVUS28:
 4131 0082 0C       		.uleb128 .LVU182
 4132 0083 00       		.uleb128 .LVU184
 4133              	.LLST28:
 4134 0084 08       		.byte	0x8
 4135 0085 12000000 		.4byte	.LVL41
 4136 0089 06       		.uleb128 .LVL42-.LVL41
 4137 008a 02       		.uleb128 0x2
 4138 008b 30       		.byte	0x30
 4139 008c 9F       		.byte	0x9f
 4140 008d 00       		.byte	0
 4141              	.LVUS24:
 4142 008e 00       		.uleb128 0
 4143 008f 00       		.uleb128 .LVU151
 4144 0090 00       		.uleb128 .LVU151
 4145 0091 00       		.uleb128 .LVU152
 4146 0092 00       		.uleb128 .LVU152
 4147 0093 00       		.uleb128 0
 4148              	.LLST24:
 4149 0094 06       		.byte	0x6
 4150 0095 00000000 		.4byte	.LVL35
 4151 0099 04       		.byte	0x4
 4152 009a 00       		.uleb128 .LVL35-.LVL35
 4153 009b 02       		.uleb128 .LVL36-.LVL35
 4154 009c 01       		.uleb128 0x1
 4155 009d 50       		.byte	0x50
 4156 009e 04       		.byte	0x4
 4157 009f 02       		.uleb128 .LVL36-.LVL35
 4158 00a0 05       		.uleb128 .LVL37-1-.LVL35
 4159 00a1 03       		.uleb128 0x3
 4160 00a2 70       		.byte	0x70
 4161 00a3 58       		.sleb128 -40
ARM GAS  C:\msys64\tmp\ccrvwsPm.s 			page 74


 4162 00a4 9F       		.byte	0x9f
 4163 00a5 04       		.byte	0x4
 4164 00a6 05       		.uleb128 .LVL37-1-.LVL35
 4165 00a7 06       		.uleb128 .LFE242-.LVL35
 4166 00a8 0A       		.uleb128 0xa
 4167 00a9 A3       		.byte	0xa3
 4168 00aa 03       		.uleb128 0x3
 4169 00ab A5       		.byte	0xa5
 4170 00ac 00       		.uleb128 0
 4171 00ad 26       		.uleb128 0x26
 4172 00ae A8       		.byte	0xa8
 4173 00af 2D       		.uleb128 0x2d
 4174 00b0 A8       		.byte	0xa8
 4175 00b1 00       		.uleb128 0
 4176 00b2 9F       		.byte	0x9f
 4177 00b3 00       		.byte	0
 4178              	.LVUS22:
 4179 00b4 00       		.uleb128 0
 4180 00b5 00       		.uleb128 .LVU141
 4181 00b6 00       		.uleb128 .LVU141
 4182 00b7 00       		.uleb128 .LVU142
 4183 00b8 00       		.uleb128 .LVU142
 4184 00b9 00       		.uleb128 0
 4185              	.LLST22:
 4186 00ba 06       		.byte	0x6
 4187 00bb 00000000 		.4byte	.LVL32
 4188 00bf 04       		.byte	0x4
 4189 00c0 00       		.uleb128 .LVL32-.LVL32
 4190 00c1 02       		.uleb128 .LVL33-.LVL32
 4191 00c2 01       		.uleb128 0x1
 4192 00c3 50       		.byte	0x50
 4193 00c4 04       		.byte	0x4
 4194 00c5 02       		.uleb128 .LVL33-.LVL32
 4195 00c6 05       		.uleb128 .LVL34-1-.LVL32
 4196 00c7 03       		.uleb128 0x3
 4197 00c8 70       		.byte	0x70
 4198 00c9 78       		.sleb128 -8
 4199 00ca 9F       		.byte	0x9f
 4200 00cb 04       		.byte	0x4
 4201 00cc 05       		.uleb128 .LVL34-1-.LVL32
 4202 00cd 06       		.uleb128 .LFE241-.LVL32
 4203 00ce 0A       		.uleb128 0xa
 4204 00cf A3       		.byte	0xa3
 4205 00d0 03       		.uleb128 0x3
 4206 00d1 A5       		.byte	0xa5
 4207 00d2 00       		.uleb128 0
 4208 00d3 26       		.uleb128 0x26
 4209 00d4 A8       		.byte	0xa8
 4210 00d5 2D       		.uleb128 0x2d
 4211 00d6 A8       		.byte	0xa8
 4212 00d7 00       		.uleb128 0
 4213 00d8 9F       		.byte	0x9f
 4214 00d9 00       		.byte	0
 4215              	.LVUS23:
 4216 00da 00       		.uleb128 0
 4217 00db 00       		.uleb128 .LVU142
 4218 00dc 00       		.uleb128 .LVU142
ARM GAS  C:\msys64\tmp\ccrvwsPm.s 			page 75


 4219 00dd 00       		.uleb128 0
 4220              	.LLST23:
 4221 00de 06       		.byte	0x6
 4222 00df 00000000 		.4byte	.LVL32
 4223 00e3 04       		.byte	0x4
 4224 00e4 00       		.uleb128 .LVL32-.LVL32
 4225 00e5 05       		.uleb128 .LVL34-1-.LVL32
 4226 00e6 01       		.uleb128 0x1
 4227 00e7 51       		.byte	0x51
 4228 00e8 04       		.byte	0x4
 4229 00e9 05       		.uleb128 .LVL34-1-.LVL32
 4230 00ea 06       		.uleb128 .LFE241-.LVL32
 4231 00eb 0A       		.uleb128 0xa
 4232 00ec A3       		.byte	0xa3
 4233 00ed 03       		.uleb128 0x3
 4234 00ee A5       		.byte	0xa5
 4235 00ef 01       		.uleb128 0x1
 4236 00f0 26       		.uleb128 0x26
 4237 00f1 A8       		.byte	0xa8
 4238 00f2 34       		.uleb128 0x34
 4239 00f3 A8       		.byte	0xa8
 4240 00f4 00       		.uleb128 0
 4241 00f5 9F       		.byte	0x9f
 4242 00f6 00       		.byte	0
 4243              	.LVUS18:
 4244 00f7 00       		.uleb128 0
 4245 00f8 00       		.uleb128 .LVU107
 4246 00f9 00       		.uleb128 .LVU107
 4247 00fa 00       		.uleb128 0
 4248              	.LLST18:
 4249 00fb 06       		.byte	0x6
 4250 00fc 00000000 		.4byte	.LVL25
 4251 0100 04       		.byte	0x4
 4252 0101 00       		.uleb128 .LVL25-.LVL25
 4253 0102 0D       		.uleb128 .LVL27-1-.LVL25
 4254 0103 01       		.uleb128 0x1
 4255 0104 50       		.byte	0x50
 4256 0105 04       		.byte	0x4
 4257 0106 0D       		.uleb128 .LVL27-1-.LVL25
 4258 0107 2E       		.uleb128 .LFE240-.LVL25
 4259 0108 01       		.uleb128 0x1
 4260 0109 54       		.byte	0x54
 4261 010a 00       		.byte	0
 4262              	.LVUS20:
 4263 010b 0B       		.uleb128 .LVU94
 4264 010c 00       		.uleb128 .LVU100
 4265              	.LLST20:
 4266 010d 08       		.byte	0x8
 4267 010e 00000000 		.4byte	.LVL25
 4268 0112 0A       		.uleb128 .LVL26-.LVL25
 4269 0113 03       		.uleb128 0x3
 4270 0114 08       		.byte	0x8
 4271 0115 20       		.byte	0x20
 4272 0116 9F       		.byte	0x9f
 4273 0117 00       		.byte	0
 4274              	.LVUS21:
 4275 0118 0C       		.uleb128 .LVU126
ARM GAS  C:\msys64\tmp\ccrvwsPm.s 			page 76


 4276 0119 00       		.uleb128 .LVU128
 4277              	.LLST21:
 4278 011a 08       		.byte	0x8
 4279 011b 26000000 		.4byte	.LVL30
 4280 011f 06       		.uleb128 .LVL31-.LVL30
 4281 0120 02       		.uleb128 0x2
 4282 0121 30       		.byte	0x30
 4283 0122 9F       		.byte	0x9f
 4284 0123 00       		.byte	0
 4285              	.LVUS12:
 4286 0124 00       		.uleb128 0
 4287 0125 00       		.uleb128 .LVU62
 4288 0126 00       		.uleb128 .LVU62
 4289 0127 00       		.uleb128 0
 4290              	.LLST12:
 4291 0128 06       		.byte	0x6
 4292 0129 00000000 		.4byte	.LVL20
 4293 012d 04       		.byte	0x4
 4294 012e 00       		.uleb128 .LVL20-.LVL20
 4295 012f 0D       		.uleb128 .LVL22-1-.LVL20
 4296 0130 01       		.uleb128 0x1
 4297 0131 50       		.byte	0x50
 4298 0132 04       		.byte	0x4
 4299 0133 0D       		.uleb128 .LVL22-1-.LVL20
 4300 0134 1A       		.uleb128 .LFE239-.LVL20
 4301 0135 01       		.uleb128 0x1
 4302 0136 54       		.byte	0x54
 4303 0137 00       		.byte	0
 4304              	.LVUS13:
 4305 0138 00       		.uleb128 0
 4306 0139 00       		.uleb128 .LVU62
 4307 013a 00       		.uleb128 .LVU62
 4308 013b 00       		.uleb128 0
 4309              	.LLST13:
 4310 013c 06       		.byte	0x6
 4311 013d 00000000 		.4byte	.LVL20
 4312 0141 04       		.byte	0x4
 4313 0142 00       		.uleb128 .LVL20-.LVL20
 4314 0143 0D       		.uleb128 .LVL22-1-.LVL20
 4315 0144 01       		.uleb128 0x1
 4316 0145 51       		.byte	0x51
 4317 0146 04       		.byte	0x4
 4318 0147 0D       		.uleb128 .LVL22-1-.LVL20
 4319 0148 1A       		.uleb128 .LFE239-.LVL20
 4320 0149 0A       		.uleb128 0xa
 4321 014a A3       		.byte	0xa3
 4322 014b 03       		.uleb128 0x3
 4323 014c A5       		.byte	0xa5
 4324 014d 01       		.uleb128 0x1
 4325 014e 26       		.uleb128 0x26
 4326 014f A8       		.byte	0xa8
 4327 0150 2D       		.uleb128 0x2d
 4328 0151 A8       		.byte	0xa8
 4329 0152 00       		.uleb128 0
 4330 0153 9F       		.byte	0x9f
 4331 0154 00       		.byte	0
 4332              	.LVUS15:
ARM GAS  C:\msys64\tmp\ccrvwsPm.s 			page 77


 4333 0155 0B       		.uleb128 .LVU49
 4334 0156 00       		.uleb128 .LVU55
 4335              	.LLST15:
 4336 0157 08       		.byte	0x8
 4337 0158 00000000 		.4byte	.LVL20
 4338 015c 0A       		.uleb128 .LVL21-.LVL20
 4339 015d 03       		.uleb128 0x3
 4340 015e 08       		.byte	0x8
 4341 015f 20       		.byte	0x20
 4342 0160 9F       		.byte	0x9f
 4343 0161 00       		.byte	0
 4344              	.LVUS17:
 4345 0162 0C       		.uleb128 .LVU78
 4346 0163 00       		.uleb128 .LVU80
 4347              	.LLST17:
 4348 0164 08       		.byte	0x8
 4349 0165 14000000 		.4byte	.LVL23
 4350 0169 04       		.uleb128 .LVL24-.LVL23
 4351 016a 02       		.uleb128 0x2
 4352 016b 30       		.byte	0x30
 4353 016c 9F       		.byte	0x9f
 4354 016d 00       		.byte	0
 4355              	.LVUS9:
 4356 016e 00       		.uleb128 0
 4357 016f 00       		.uleb128 .LVU27
 4358 0170 00       		.uleb128 .LVU27
 4359 0171 00       		.uleb128 .LVU36
 4360 0172 00       		.uleb128 .LVU36
 4361 0173 00       		.uleb128 .LVU37
 4362 0174 00       		.uleb128 .LVU37
 4363 0175 00       		.uleb128 0
 4364              	.LLST9:
 4365 0176 06       		.byte	0x6
 4366 0177 00000000 		.4byte	.LVL13
 4367 017b 04       		.byte	0x4
 4368 017c 00       		.uleb128 .LVL13-.LVL13
 4369 017d 08       		.uleb128 .LVL14-.LVL13
 4370 017e 01       		.uleb128 0x1
 4371 017f 50       		.byte	0x50
 4372 0180 04       		.byte	0x4
 4373 0181 08       		.uleb128 .LVL14-.LVL13
 4374 0182 2E       		.uleb128 .LVL18-.LVL13
 4375 0183 01       		.uleb128 0x1
 4376 0184 54       		.byte	0x54
 4377 0185 04       		.byte	0x4
 4378 0186 2E       		.uleb128 .LVL18-.LVL13
 4379 0187 31       		.uleb128 .LVL19-1-.LVL13
 4380 0188 03       		.uleb128 0x3
 4381 0189 70       		.byte	0x70
 4382 018a 58       		.sleb128 -40
 4383 018b 9F       		.byte	0x9f
 4384 018c 04       		.byte	0x4
 4385 018d 31       		.uleb128 .LVL19-1-.LVL13
 4386 018e 38       		.uleb128 .LFE238-.LVL13
 4387 018f 0A       		.uleb128 0xa
 4388 0190 A3       		.byte	0xa3
 4389 0191 03       		.uleb128 0x3
ARM GAS  C:\msys64\tmp\ccrvwsPm.s 			page 78


 4390 0192 A5       		.byte	0xa5
 4391 0193 00       		.uleb128 0
 4392 0194 26       		.uleb128 0x26
 4393 0195 A8       		.byte	0xa8
 4394 0196 2D       		.uleb128 0x2d
 4395 0197 A8       		.byte	0xa8
 4396 0198 00       		.uleb128 0
 4397 0199 9F       		.byte	0x9f
 4398 019a 00       		.byte	0
 4399              	.LVUS10:
 4400 019b 00       		.uleb128 0
 4401 019c 00       		.uleb128 .LVU30
 4402 019d 00       		.uleb128 .LVU30
 4403 019e 00       		.uleb128 .LVU34
 4404 019f 00       		.uleb128 .LVU34
 4405 01a0 00       		.uleb128 0
 4406              	.LLST10:
 4407 01a1 06       		.byte	0x6
 4408 01a2 00000000 		.4byte	.LVL13
 4409 01a6 04       		.byte	0x4
 4410 01a7 00       		.uleb128 .LVL13-.LVL13
 4411 01a8 0C       		.uleb128 .LVL15-.LVL13
 4412 01a9 01       		.uleb128 0x1
 4413 01aa 51       		.byte	0x51
 4414 01ab 04       		.byte	0x4
 4415 01ac 0C       		.uleb128 .LVL15-.LVL13
 4416 01ad 1D       		.uleb128 .LVL17-1-.LVL13
 4417 01ae 01       		.uleb128 0x1
 4418 01af 53       		.byte	0x53
 4419 01b0 04       		.byte	0x4
 4420 01b1 1D       		.uleb128 .LVL17-1-.LVL13
 4421 01b2 38       		.uleb128 .LFE238-.LVL13
 4422 01b3 0A       		.uleb128 0xa
 4423 01b4 A3       		.byte	0xa3
 4424 01b5 03       		.uleb128 0x3
 4425 01b6 A5       		.byte	0xa5
 4426 01b7 01       		.uleb128 0x1
 4427 01b8 26       		.uleb128 0x26
 4428 01b9 A8       		.byte	0xa8
 4429 01ba 2D       		.uleb128 0x2d
 4430 01bb A8       		.byte	0xa8
 4431 01bc 00       		.uleb128 0
 4432 01bd 9F       		.byte	0x9f
 4433 01be 00       		.byte	0
 4434              	.LVUS11:
 4435 01bf 00       		.uleb128 0
 4436 01c0 00       		.uleb128 .LVU33
 4437 01c1 00       		.uleb128 .LVU33
 4438 01c2 00       		.uleb128 .LVU36
 4439 01c3 00       		.uleb128 .LVU36
 4440 01c4 00       		.uleb128 .LVU37
 4441 01c5 00       		.uleb128 .LVU37
 4442 01c6 00       		.uleb128 0
 4443              	.LLST11:
 4444 01c7 06       		.byte	0x6
 4445 01c8 00000000 		.4byte	.LVL13
 4446 01cc 04       		.byte	0x4
ARM GAS  C:\msys64\tmp\ccrvwsPm.s 			page 79


 4447 01cd 00       		.uleb128 .LVL13-.LVL13
 4448 01ce 1A       		.uleb128 .LVL16-.LVL13
 4449 01cf 01       		.uleb128 0x1
 4450 01d0 52       		.byte	0x52
 4451 01d1 04       		.byte	0x4
 4452 01d2 1A       		.uleb128 .LVL16-.LVL13
 4453 01d3 2E       		.uleb128 .LVL18-.LVL13
 4454 01d4 01       		.uleb128 0x1
 4455 01d5 55       		.byte	0x55
 4456 01d6 04       		.byte	0x4
 4457 01d7 2E       		.uleb128 .LVL18-.LVL13
 4458 01d8 31       		.uleb128 .LVL19-1-.LVL13
 4459 01d9 01       		.uleb128 0x1
 4460 01da 53       		.byte	0x53
 4461 01db 04       		.byte	0x4
 4462 01dc 31       		.uleb128 .LVL19-1-.LVL13
 4463 01dd 38       		.uleb128 .LFE238-.LVL13
 4464 01de 0A       		.uleb128 0xa
 4465 01df A3       		.byte	0xa3
 4466 01e0 03       		.uleb128 0x3
 4467 01e1 A5       		.byte	0xa5
 4468 01e2 02       		.uleb128 0x2
 4469 01e3 26       		.uleb128 0x26
 4470 01e4 A8       		.byte	0xa8
 4471 01e5 2D       		.uleb128 0x2d
 4472 01e6 A8       		.byte	0xa8
 4473 01e7 00       		.uleb128 0
 4474 01e8 9F       		.byte	0x9f
 4475 01e9 00       		.byte	0
 4476              	.LVUS0:
 4477 01ea 00       		.uleb128 0
 4478 01eb 00       		.uleb128 .LVU3
 4479 01ec 00       		.uleb128 .LVU3
 4480 01ed 00       		.uleb128 .LVU4
 4481 01ee 00       		.uleb128 .LVU4
 4482 01ef 00       		.uleb128 0
 4483              	.LLST0:
 4484 01f0 06       		.byte	0x6
 4485 01f1 00000000 		.4byte	.LVL0
 4486 01f5 04       		.byte	0x4
 4487 01f6 00       		.uleb128 .LVL0-.LVL0
 4488 01f7 06       		.uleb128 .LVL1-.LVL0
 4489 01f8 01       		.uleb128 0x1
 4490 01f9 50       		.byte	0x50
 4491 01fa 04       		.byte	0x4
 4492 01fb 06       		.uleb128 .LVL1-.LVL0
 4493 01fc 09       		.uleb128 .LVL2-1-.LVL0
 4494 01fd 03       		.uleb128 0x3
 4495 01fe 70       		.byte	0x70
 4496 01ff 78       		.sleb128 -8
 4497 0200 9F       		.byte	0x9f
 4498 0201 04       		.byte	0x4
 4499 0202 09       		.uleb128 .LVL2-1-.LVL0
 4500 0203 0A       		.uleb128 .LFE236-.LVL0
 4501 0204 0A       		.uleb128 0xa
 4502 0205 A3       		.byte	0xa3
 4503 0206 03       		.uleb128 0x3
ARM GAS  C:\msys64\tmp\ccrvwsPm.s 			page 80


 4504 0207 A5       		.byte	0xa5
 4505 0208 00       		.uleb128 0
 4506 0209 26       		.uleb128 0x26
 4507 020a A8       		.byte	0xa8
 4508 020b 2D       		.uleb128 0x2d
 4509 020c A8       		.byte	0xa8
 4510 020d 00       		.uleb128 0
 4511 020e 9F       		.byte	0x9f
 4512 020f 00       		.byte	0
 4513              	.LVUS1:
 4514 0210 00       		.uleb128 0
 4515 0211 00       		.uleb128 .LVU8
 4516 0212 00       		.uleb128 .LVU8
 4517 0213 00       		.uleb128 .LVU9
 4518 0214 00       		.uleb128 .LVU9
 4519 0215 00       		.uleb128 0
 4520              	.LLST1:
 4521 0216 06       		.byte	0x6
 4522 0217 00000000 		.4byte	.LVL3
 4523 021b 04       		.byte	0x4
 4524 021c 00       		.uleb128 .LVL3-.LVL3
 4525 021d 06       		.uleb128 .LVL4-.LVL3
 4526 021e 01       		.uleb128 0x1
 4527 021f 50       		.byte	0x50
 4528 0220 04       		.byte	0x4
 4529 0221 06       		.uleb128 .LVL4-.LVL3
 4530 0222 09       		.uleb128 .LVL5-1-.LVL3
 4531 0223 03       		.uleb128 0x3
 4532 0224 70       		.byte	0x70
 4533 0225 58       		.sleb128 -40
 4534 0226 9F       		.byte	0x9f
 4535 0227 04       		.byte	0x4
 4536 0228 09       		.uleb128 .LVL5-1-.LVL3
 4537 0229 0A       		.uleb128 .LFE235-.LVL3
 4538 022a 0A       		.uleb128 0xa
 4539 022b A3       		.byte	0xa3
 4540 022c 03       		.uleb128 0x3
 4541 022d A5       		.byte	0xa5
 4542 022e 00       		.uleb128 0
 4543 022f 26       		.uleb128 0x26
 4544 0230 A8       		.byte	0xa8
 4545 0231 2D       		.uleb128 0x2d
 4546 0232 A8       		.byte	0xa8
 4547 0233 00       		.uleb128 0
 4548 0234 9F       		.byte	0x9f
 4549 0235 00       		.byte	0
 4550              	.LVUS2:
 4551 0236 00       		.uleb128 0
 4552 0237 00       		.uleb128 .LVU9
 4553 0238 00       		.uleb128 .LVU9
 4554 0239 00       		.uleb128 0
 4555              	.LLST2:
 4556 023a 06       		.byte	0x6
 4557 023b 00000000 		.4byte	.LVL3
 4558 023f 04       		.byte	0x4
 4559 0240 00       		.uleb128 .LVL3-.LVL3
 4560 0241 09       		.uleb128 .LVL5-1-.LVL3
ARM GAS  C:\msys64\tmp\ccrvwsPm.s 			page 81


 4561 0242 01       		.uleb128 0x1
 4562 0243 51       		.byte	0x51
 4563 0244 04       		.byte	0x4
 4564 0245 09       		.uleb128 .LVL5-1-.LVL3
 4565 0246 0A       		.uleb128 .LFE235-.LVL3
 4566 0247 0A       		.uleb128 0xa
 4567 0248 A3       		.byte	0xa3
 4568 0249 03       		.uleb128 0x3
 4569 024a A5       		.byte	0xa5
 4570 024b 01       		.uleb128 0x1
 4571 024c 26       		.uleb128 0x26
 4572 024d A8       		.byte	0xa8
 4573 024e 34       		.uleb128 0x34
 4574 024f A8       		.byte	0xa8
 4575 0250 00       		.uleb128 0
 4576 0251 9F       		.byte	0x9f
 4577 0252 00       		.byte	0
 4578              	.LVUS3:
 4579 0253 00       		.uleb128 0
 4580 0254 00       		.uleb128 .LVU13
 4581 0255 00       		.uleb128 .LVU13
 4582 0256 00       		.uleb128 .LVU14
 4583 0257 00       		.uleb128 .LVU14
 4584 0258 00       		.uleb128 0
 4585              	.LLST3:
 4586 0259 06       		.byte	0x6
 4587 025a 00000000 		.4byte	.LVL6
 4588 025e 04       		.byte	0x4
 4589 025f 00       		.uleb128 .LVL6-.LVL6
 4590 0260 06       		.uleb128 .LVL7-.LVL6
 4591 0261 01       		.uleb128 0x1
 4592 0262 50       		.byte	0x50
 4593 0263 04       		.byte	0x4
 4594 0264 06       		.uleb128 .LVL7-.LVL6
 4595 0265 09       		.uleb128 .LVL8-1-.LVL6
 4596 0266 03       		.uleb128 0x3
 4597 0267 70       		.byte	0x70
 4598 0268 78       		.sleb128 -8
 4599 0269 9F       		.byte	0x9f
 4600 026a 04       		.byte	0x4
 4601 026b 09       		.uleb128 .LVL8-1-.LVL6
 4602 026c 0A       		.uleb128 .LFE234-.LVL6
 4603 026d 0A       		.uleb128 0xa
 4604 026e A3       		.byte	0xa3
 4605 026f 03       		.uleb128 0x3
 4606 0270 A5       		.byte	0xa5
 4607 0271 00       		.uleb128 0
 4608 0272 26       		.uleb128 0x26
 4609 0273 A8       		.byte	0xa8
 4610 0274 2D       		.uleb128 0x2d
 4611 0275 A8       		.byte	0xa8
 4612 0276 00       		.uleb128 0
 4613 0277 9F       		.byte	0x9f
 4614 0278 00       		.byte	0
 4615              	.LVUS4:
 4616 0279 00       		.uleb128 0
 4617 027a 00       		.uleb128 .LVU14
ARM GAS  C:\msys64\tmp\ccrvwsPm.s 			page 82


 4618 027b 00       		.uleb128 .LVU14
 4619 027c 00       		.uleb128 0
 4620              	.LLST4:
 4621 027d 06       		.byte	0x6
 4622 027e 00000000 		.4byte	.LVL6
 4623 0282 04       		.byte	0x4
 4624 0283 00       		.uleb128 .LVL6-.LVL6
 4625 0284 09       		.uleb128 .LVL8-1-.LVL6
 4626 0285 01       		.uleb128 0x1
 4627 0286 51       		.byte	0x51
 4628 0287 04       		.byte	0x4
 4629 0288 09       		.uleb128 .LVL8-1-.LVL6
 4630 0289 0A       		.uleb128 .LFE234-.LVL6
 4631 028a 0A       		.uleb128 0xa
 4632 028b A3       		.byte	0xa3
 4633 028c 03       		.uleb128 0x3
 4634 028d A5       		.byte	0xa5
 4635 028e 01       		.uleb128 0x1
 4636 028f 26       		.uleb128 0x26
 4637 0290 A8       		.byte	0xa8
 4638 0291 2D       		.uleb128 0x2d
 4639 0292 A8       		.byte	0xa8
 4640 0293 00       		.uleb128 0
 4641 0294 9F       		.byte	0x9f
 4642 0295 00       		.byte	0
 4643              	.LVUS5:
 4644 0296 00       		.uleb128 0
 4645 0297 00       		.uleb128 .LVU14
 4646 0298 00       		.uleb128 .LVU14
 4647 0299 00       		.uleb128 0
 4648              	.LLST5:
 4649 029a 06       		.byte	0x6
 4650 029b 00000000 		.4byte	.LVL6
 4651 029f 04       		.byte	0x4
 4652 02a0 00       		.uleb128 .LVL6-.LVL6
 4653 02a1 09       		.uleb128 .LVL8-1-.LVL6
 4654 02a2 01       		.uleb128 0x1
 4655 02a3 52       		.byte	0x52
 4656 02a4 04       		.byte	0x4
 4657 02a5 09       		.uleb128 .LVL8-1-.LVL6
 4658 02a6 0A       		.uleb128 .LFE234-.LVL6
 4659 02a7 0A       		.uleb128 0xa
 4660 02a8 A3       		.byte	0xa3
 4661 02a9 03       		.uleb128 0x3
 4662 02aa A5       		.byte	0xa5
 4663 02ab 02       		.uleb128 0x2
 4664 02ac 26       		.uleb128 0x26
 4665 02ad A8       		.byte	0xa8
 4666 02ae 2D       		.uleb128 0x2d
 4667 02af A8       		.byte	0xa8
 4668 02b0 00       		.uleb128 0
 4669 02b1 9F       		.byte	0x9f
 4670 02b2 00       		.byte	0
 4671              	.LVUS6:
 4672 02b3 00       		.uleb128 0
 4673 02b4 00       		.uleb128 .LVU18
 4674 02b5 00       		.uleb128 .LVU18
ARM GAS  C:\msys64\tmp\ccrvwsPm.s 			page 83


 4675 02b6 00       		.uleb128 .LVU19
 4676 02b7 00       		.uleb128 .LVU19
 4677 02b8 00       		.uleb128 0
 4678              	.LLST6:
 4679 02b9 06       		.byte	0x6
 4680 02ba 00000000 		.4byte	.LVL9
 4681 02be 04       		.byte	0x4
 4682 02bf 00       		.uleb128 .LVL9-.LVL9
 4683 02c0 06       		.uleb128 .LVL10-.LVL9
 4684 02c1 01       		.uleb128 0x1
 4685 02c2 50       		.byte	0x50
 4686 02c3 04       		.byte	0x4
 4687 02c4 06       		.uleb128 .LVL10-.LVL9
 4688 02c5 09       		.uleb128 .LVL11-1-.LVL9
 4689 02c6 03       		.uleb128 0x3
 4690 02c7 70       		.byte	0x70
 4691 02c8 58       		.sleb128 -40
 4692 02c9 9F       		.byte	0x9f
 4693 02ca 04       		.byte	0x4
 4694 02cb 09       		.uleb128 .LVL11-1-.LVL9
 4695 02cc 0A       		.uleb128 .LFE233-.LVL9
 4696 02cd 0A       		.uleb128 0xa
 4697 02ce A3       		.byte	0xa3
 4698 02cf 03       		.uleb128 0x3
 4699 02d0 A5       		.byte	0xa5
 4700 02d1 00       		.uleb128 0
 4701 02d2 26       		.uleb128 0x26
 4702 02d3 A8       		.byte	0xa8
 4703 02d4 2D       		.uleb128 0x2d
 4704 02d5 A8       		.byte	0xa8
 4705 02d6 00       		.uleb128 0
 4706 02d7 9F       		.byte	0x9f
 4707 02d8 00       		.byte	0
 4708              	.LVUS7:
 4709 02d9 00       		.uleb128 0
 4710 02da 00       		.uleb128 .LVU19
 4711 02db 00       		.uleb128 .LVU19
 4712 02dc 00       		.uleb128 0
 4713              	.LLST7:
 4714 02dd 06       		.byte	0x6
 4715 02de 00000000 		.4byte	.LVL9
 4716 02e2 04       		.byte	0x4
 4717 02e3 00       		.uleb128 .LVL9-.LVL9
 4718 02e4 09       		.uleb128 .LVL11-1-.LVL9
 4719 02e5 01       		.uleb128 0x1
 4720 02e6 51       		.byte	0x51
 4721 02e7 04       		.byte	0x4
 4722 02e8 09       		.uleb128 .LVL11-1-.LVL9
 4723 02e9 0A       		.uleb128 .LFE233-.LVL9
 4724 02ea 0A       		.uleb128 0xa
 4725 02eb A3       		.byte	0xa3
 4726 02ec 03       		.uleb128 0x3
 4727 02ed A5       		.byte	0xa5
 4728 02ee 01       		.uleb128 0x1
 4729 02ef 26       		.uleb128 0x26
 4730 02f0 A8       		.byte	0xa8
 4731 02f1 2D       		.uleb128 0x2d
ARM GAS  C:\msys64\tmp\ccrvwsPm.s 			page 84


 4732 02f2 A8       		.byte	0xa8
 4733 02f3 00       		.uleb128 0
 4734 02f4 9F       		.byte	0x9f
 4735 02f5 00       		.byte	0
 4736              	.LVUS8:
 4737 02f6 00       		.uleb128 0
 4738 02f7 00       		.uleb128 .LVU19
 4739 02f8 00       		.uleb128 .LVU19
 4740 02f9 00       		.uleb128 0
 4741              	.LLST8:
 4742 02fa 06       		.byte	0x6
 4743 02fb 00000000 		.4byte	.LVL9
 4744 02ff 04       		.byte	0x4
 4745 0300 00       		.uleb128 .LVL9-.LVL9
 4746 0301 09       		.uleb128 .LVL11-1-.LVL9
 4747 0302 01       		.uleb128 0x1
 4748 0303 52       		.byte	0x52
 4749 0304 04       		.byte	0x4
 4750 0305 09       		.uleb128 .LVL11-1-.LVL9
 4751 0306 0A       		.uleb128 .LFE233-.LVL9
 4752 0307 0A       		.uleb128 0xa
 4753 0308 A3       		.byte	0xa3
 4754 0309 03       		.uleb128 0x3
 4755 030a A5       		.byte	0xa5
 4756 030b 02       		.uleb128 0x2
 4757 030c 26       		.uleb128 0x26
 4758 030d A8       		.byte	0xa8
 4759 030e 2D       		.uleb128 0x2d
 4760 030f A8       		.byte	0xa8
 4761 0310 00       		.uleb128 0
 4762 0311 9F       		.byte	0x9f
 4763 0312 00       		.byte	0
 4764              	.Ldebug_loc3:
 4765              		.section	.debug_aranges,"",%progbits
 4766 0000 74000000 		.4byte	0x74
 4767 0004 0200     		.2byte	0x2
 4768 0006 00000000 		.4byte	.Ldebug_info0
 4769 000a 04       		.byte	0x4
 4770 000b 00       		.byte	0
 4771 000c 0000     		.2byte	0
 4772 000e 0000     		.2byte	0
 4773 0010 00000000 		.4byte	.LFB236
 4774 0014 0A000000 		.4byte	.LFE236-.LFB236
 4775 0018 00000000 		.4byte	.LFB235
 4776 001c 0A000000 		.4byte	.LFE235-.LFB235
 4777 0020 00000000 		.4byte	.LFB234
 4778 0024 0A000000 		.4byte	.LFE234-.LFB234
 4779 0028 00000000 		.4byte	.LFB233
 4780 002c 0A000000 		.4byte	.LFE233-.LFB233
 4781 0030 00000000 		.4byte	.LFB237
 4782 0034 04000000 		.4byte	.LFE237-.LFB237
 4783 0038 00000000 		.4byte	.LFB238
 4784 003c 38000000 		.4byte	.LFE238-.LFB238
 4785 0040 00000000 		.4byte	.LFB239
 4786 0044 1A000000 		.4byte	.LFE239-.LFB239
 4787 0048 00000000 		.4byte	.LFB240
 4788 004c 2E000000 		.4byte	.LFE240-.LFB240
ARM GAS  C:\msys64\tmp\ccrvwsPm.s 			page 85


 4789 0050 00000000 		.4byte	.LFB241
 4790 0054 06000000 		.4byte	.LFE241-.LFB241
 4791 0058 00000000 		.4byte	.LFB242
 4792 005c 06000000 		.4byte	.LFE242-.LFB242
 4793 0060 00000000 		.4byte	.LFB243
 4794 0064 1A000000 		.4byte	.LFE243-.LFB243
 4795 0068 00000000 		.4byte	.LFB244
 4796 006c 16000000 		.4byte	.LFE244-.LFB244
 4797 0070 00000000 		.4byte	0
 4798 0074 00000000 		.4byte	0
 4799              		.section	.debug_rnglists,"",%progbits
 4800              	.Ldebug_ranges0:
 4801 0000 87000000 		.4byte	.Ldebug_ranges3-.Ldebug_ranges2
 4802              	.Ldebug_ranges2:
 4803 0004 0500     		.2byte	0x5
 4804 0006 04       		.byte	0x4
 4805 0007 00       		.byte	0
 4806 0008 00000000 		.4byte	0
 4807              	.LLRL14:
 4808 000c 05       		.byte	0x5
 4809 000d 00000000 		.4byte	.LBB78
 4810 0011 04       		.byte	0x4
 4811 0012 00       		.uleb128 .LBB78-.LBB78
 4812 0013 00       		.uleb128 .LBE78-.LBB78
 4813 0014 04       		.byte	0x4
 4814 0015 02       		.uleb128 .LBB91-.LBB78
 4815 0016 04       		.uleb128 .LBE91-.LBB78
 4816 0017 04       		.byte	0x4
 4817 0018 06       		.uleb128 .LBB92-.LBB78
 4818 0019 0A       		.uleb128 .LBE92-.LBB78
 4819 001a 00       		.byte	0
 4820              	.LLRL16:
 4821 001b 05       		.byte	0x5
 4822 001c 10000000 		.4byte	.LBB93
 4823 0020 04       		.byte	0x4
 4824 0021 00       		.uleb128 .LBB93-.LBB93
 4825 0022 02       		.uleb128 .LBE93-.LBB93
 4826 0023 04       		.byte	0x4
 4827 0024 04       		.uleb128 .LBB104-.LBB93
 4828 0025 08       		.uleb128 .LBE104-.LBB93
 4829 0026 00       		.byte	0
 4830              	.LLRL19:
 4831 0027 05       		.byte	0x5
 4832 0028 00000000 		.4byte	.LBB105
 4833 002c 04       		.byte	0x4
 4834 002d 00       		.uleb128 .LBB105-.LBB105
 4835 002e 00       		.uleb128 .LBE105-.LBB105
 4836 002f 04       		.byte	0x4
 4837 0030 02       		.uleb128 .LBB118-.LBB105
 4838 0031 04       		.uleb128 .LBE118-.LBB105
 4839 0032 04       		.byte	0x4
 4840 0033 06       		.uleb128 .LBB119-.LBB105
 4841 0034 0A       		.uleb128 .LBE119-.LBB105
 4842 0035 00       		.byte	0
 4843              	.LLRL32:
 4844 0036 05       		.byte	0x5
 4845 0037 0C000000 		.4byte	.LBB144
ARM GAS  C:\msys64\tmp\ccrvwsPm.s 			page 86


 4846 003b 04       		.byte	0x4
 4847 003c 00       		.uleb128 .LBB144-.LBB144
 4848 003d 02       		.uleb128 .LBE144-.LBB144
 4849 003e 04       		.byte	0x4
 4850 003f 04       		.uleb128 .LBB155-.LBB144
 4851 0040 08       		.uleb128 .LBE155-.LBB144
 4852 0041 00       		.byte	0
 4853              	.LLRL34:
 4854 0042 07       		.byte	0x7
 4855 0043 00000000 		.4byte	.LFB236
 4856 0047 0A       		.uleb128 .LFE236-.LFB236
 4857 0048 07       		.byte	0x7
 4858 0049 00000000 		.4byte	.LFB235
 4859 004d 0A       		.uleb128 .LFE235-.LFB235
 4860 004e 07       		.byte	0x7
 4861 004f 00000000 		.4byte	.LFB234
 4862 0053 0A       		.uleb128 .LFE234-.LFB234
 4863 0054 07       		.byte	0x7
 4864 0055 00000000 		.4byte	.LFB233
 4865 0059 0A       		.uleb128 .LFE233-.LFB233
 4866 005a 07       		.byte	0x7
 4867 005b 00000000 		.4byte	.LFB237
 4868 005f 04       		.uleb128 .LFE237-.LFB237
 4869 0060 07       		.byte	0x7
 4870 0061 00000000 		.4byte	.LFB238
 4871 0065 38       		.uleb128 .LFE238-.LFB238
 4872 0066 07       		.byte	0x7
 4873 0067 00000000 		.4byte	.LFB239
 4874 006b 1A       		.uleb128 .LFE239-.LFB239
 4875 006c 07       		.byte	0x7
 4876 006d 00000000 		.4byte	.LFB240
 4877 0071 2E       		.uleb128 .LFE240-.LFB240
 4878 0072 07       		.byte	0x7
 4879 0073 00000000 		.4byte	.LFB241
 4880 0077 06       		.uleb128 .LFE241-.LFB241
 4881 0078 07       		.byte	0x7
 4882 0079 00000000 		.4byte	.LFB242
 4883 007d 06       		.uleb128 .LFE242-.LFB242
 4884 007e 07       		.byte	0x7
 4885 007f 00000000 		.4byte	.LFB243
 4886 0083 1A       		.uleb128 .LFE243-.LFB243
 4887 0084 07       		.byte	0x7
 4888 0085 00000000 		.4byte	.LFB244
 4889 0089 16       		.uleb128 .LFE244-.LFB244
 4890 008a 00       		.byte	0
 4891              	.Ldebug_ranges3:
 4892              		.section	.debug_line,"",%progbits
 4893              	.Ldebug_line0:
 4894 0000 3A070000 		.section	.debug_str,"MS",%progbits,1
 4894      03003703 
 4894      00000201 
 4894      FB0E0D00 
 4894      01010101 
 4895              	.LASF37:
 4896 0000 70726576 		.ascii	"prev\000"
 4896      00
 4897              	.LASF6:
ARM GAS  C:\msys64\tmp\ccrvwsPm.s 			page 87


 4898 0005 73697A65 		.ascii	"size_t\000"
 4898      5F7400
 4899              	.LASF97:
 4900 000c 73645075 		.ascii	"sdPutWouldBlock\000"
 4900      74576F75 
 4900      6C64426C 
 4900      6F636B00 
 4901              	.LASF20:
 4902 001c 75696E74 		.ascii	"uint64_t\000"
 4902      36345F74 
 4902      00
 4903              	.LASF7:
 4904 0025 5F5F7569 		.ascii	"__uint8_t\000"
 4904      6E74385F 
 4904      7400
 4905              	.LASF61:
 4906 002f 715F7264 		.ascii	"q_rd\000"
 4906      00
 4907              	.LASF46:
 4908 0034 706F7274 		.ascii	"port_intctx\000"
 4908      5F696E74 
 4908      63747800 
 4909              	.LASF113:
 4910 0040 706F7274 		.ascii	"port_lock\000"
 4910      5F6C6F63 
 4910      6B00
 4911              	.LASF0:
 4912 004a 6C6F6E67 		.ascii	"long long unsigned int\000"
 4912      206C6F6E 
 4912      6720756E 
 4912      7369676E 
 4912      65642069 
 4913              	.LASF48:
 4914 0061 65786974 		.ascii	"exitcode\000"
 4914      636F6465 
 4914      00
 4915              	.LASF53:
 4916 006a 696F5F71 		.ascii	"io_queue_t\000"
 4916      75657565 
 4916      5F7400
 4917              	.LASF36:
 4918 0075 6E657874 		.ascii	"next\000"
 4918      00
 4919              	.LASF35:
 4920 007a 63685F74 		.ascii	"ch_threads_queue\000"
 4920      68726561 
 4920      64735F71 
 4920      75657565 
 4920      00
 4921              	.LASF104:
 4922 008b 73644F62 		.ascii	"sdObjectInit\000"
 4922      6A656374 
 4922      496E6974 
 4922      00
 4923              	.LASF83:
 4924 0098 72656164 		.ascii	"readt\000"
 4924      7400
ARM GAS  C:\msys64\tmp\ccrvwsPm.s 			page 88


 4925              	.LASF55:
 4926 009e 715F7761 		.ascii	"q_waiting\000"
 4926      6974696E 
 4926      6700
 4927              	.LASF3:
 4928 00a8 6C6F6E67 		.ascii	"long long int\000"
 4928      206C6F6E 
 4928      6720696E 
 4928      7400
 4929              	.LASF5:
 4930 00b6 7369676E 		.ascii	"signed char\000"
 4930      65642063 
 4930      68617200 
 4931              	.LASF38:
 4932 00c2 47545052 		.ascii	"GTPR\000"
 4932      00
 4933              	.LASF112:
 4934 00c7 706F7274 		.ascii	"port_unlock\000"
 4934      5F756E6C 
 4934      6F636B00 
 4935              	.LASF30:
 4936 00d3 73746174 		.ascii	"state\000"
 4936      6500
 4937              	.LASF12:
 4938 00d9 6C6F6E67 		.ascii	"long int\000"
 4938      20696E74 
 4938      00
 4939              	.LASF22:
 4940 00e2 74737461 		.ascii	"tstate_t\000"
 4940      74655F74 
 4940      00
 4941              	.LASF57:
 4942 00eb 715F6275 		.ascii	"q_buffer\000"
 4942      66666572 
 4942      00
 4943              	.LASF94:
 4944 00f4 63685363 		.ascii	"chSchRescheduleS\000"
 4944      68526573 
 4944      63686564 
 4944      756C6553 
 4944      00
 4945              	.LASF13:
 4946 0105 5F5F7569 		.ascii	"__uint32_t\000"
 4946      6E743332 
 4946      5F7400
 4947              	.LASF43:
 4948 0110 72656761 		.ascii	"regarm_t\000"
 4948      726D5F74 
 4948      00
 4949              	.LASF63:
 4950 0119 7173697A 		.ascii	"qsize_t\000"
 4950      655F7400 
 4951              	.LASF110:
 4952 0121 6F73616C 		.ascii	"osalSysLock\000"
 4952      5379734C 
 4952      6F636B00 
 4953              	.LASF119:
ARM GAS  C:\msys64\tmp\ccrvwsPm.s 			page 89


 4954 012d 76616C75 		.ascii	"value\000"
 4954      6500
 4955              	.LASF54:
 4956 0133 696F5F71 		.ascii	"io_queue\000"
 4956      75657565 
 4956      00
 4957              	.LASF73:
 4958 013c 75736172 		.ascii	"usart\000"
 4958      7400
 4959              	.LASF1:
 4960 0142 756E7369 		.ascii	"unsigned int\000"
 4960      676E6564 
 4960      20696E74 
 4960      00
 4961              	.LASF114:
 4962 014f 474E5520 		.ascii	"GNU C11 14.3.1 20250623 -mcpu=cortex-m4 -mfloat-abi"
 4962      43313120 
 4962      31342E33 
 4962      2E312032 
 4962      30323530 
 4963 0182 3D686172 		.ascii	"=hard -mfpu=fpv4-sp-d16 -mno-thumb-interwork -mthum"
 4963      64202D6D 
 4963      6670753D 
 4963      66707634 
 4963      2D73702D 
 4964 01b5 62202D6D 		.ascii	"b -march=armv7e-m+fp -ggdb -O2 -std=c11 -fno-inline"
 4964      61726368 
 4964      3D61726D 
 4964      7637652D 
 4964      6D2B6670 
 4965 01e8 2D736D61 		.ascii	"-small-functions -fomit-frame-pointer -falign-funct"
 4965      6C6C2D66 
 4965      756E6374 
 4965      696F6E73 
 4965      202D666F 
 4966 021b 696F6E73 		.ascii	"ions=16 -fstack-usage -ffast-math -ffunction-sectio"
 4966      3D313620 
 4966      2D667374 
 4966      61636B2D 
 4966      75736167 
 4967 024e 6E73202D 		.ascii	"ns -fdata-sections -fno-common -fsingle-precision-c"
 4967      66646174 
 4967      612D7365 
 4967      6374696F 
 4967      6E73202D 
 4968 0281 6F6E7374 		.ascii	"onstant\000"
 4968      616E7400 
 4969              	.LASF17:
 4970 0289 75696E74 		.ascii	"uint16_t\000"
 4970      31365F74 
 4970      00
 4971              	.LASF77:
 4972 0292 53657269 		.ascii	"SerialDriverVMT\000"
 4972      616C4472 
 4972      69766572 
 4972      564D5400 
 4973              	.LASF105:
ARM GAS  C:\msys64\tmp\ccrvwsPm.s 			page 90


 4974 02a2 696E6F74 		.ascii	"inotify\000"
 4974      69667900 
 4975              	.LASF50:
 4976 02aa 77747472 		.ascii	"wttrp\000"
 4976      7000
 4977              	.LASF95:
 4978 02b0 73645F6C 		.ascii	"sd_lld_init\000"
 4978      6C645F69 
 4978      6E697400 
 4979              	.LASF81:
 4980 02bc 67657474 		.ascii	"gett\000"
 4980      00
 4981              	.LASF27:
 4982 02c1 71756575 		.ascii	"queue\000"
 4982      6500
 4983              	.LASF10:
 4984 02c7 73686F72 		.ascii	"short unsigned int\000"
 4984      7420756E 
 4984      7369676E 
 4984      65642069 
 4984      6E7400
 4985              	.LASF116:
 4986 02da 433A5C55 		.ascii	"C:\\Users\\danie\\SynologyDrive\\ZZ_GITHUB_PROJECTS"
 4986      73657273 
 4986      5C64616E 
 4986      69655C53 
 4986      796E6F6C 
 4987 0309 5F4F4E5F 		.ascii	"_ON_WINDOWS\\NanoVNA-H4-Stand_Alone_Custom_Firmware"
 4987      57494E44 
 4987      4F57535C 
 4987      4E616E6F 
 4987      564E412D 
 4988 033b 00       		.ascii	"\000"
 4989              	.LASF34:
 4990 033c 63685F74 		.ascii	"ch_thread\000"
 4990      68726561 
 4990      6400
 4991              	.LASF24:
 4992 0346 6D73675F 		.ascii	"msg_t\000"
 4992      7400
 4993              	.LASF42:
 4994 034c 55534152 		.ascii	"USART_TypeDef\000"
 4994      545F5479 
 4994      70654465 
 4994      6600
 4995              	.LASF82:
 4996 035a 77726974 		.ascii	"writet\000"
 4996      657400
 4997              	.LASF21:
 4998 0361 746D6F64 		.ascii	"tmode_t\000"
 4998      655F7400 
 4999              	.LASF93:
 5000 0369 714F626A 		.ascii	"qObjectInit\000"
 5000      65637449 
 5000      6E697400 
 5001              	.LASF75:
 5002 0375 73706565 		.ascii	"speed\000"
ARM GAS  C:\msys64\tmp\ccrvwsPm.s 			page 91


 5002      6400
 5003              	.LASF62:
 5004 037b 716E6F74 		.ascii	"qnotify_t\000"
 5004      6966795F 
 5004      7400
 5005              	.LASF44:
 5006 0385 73746B61 		.ascii	"stkalign_t\000"
 5006      6C69676E 
 5006      5F7400
 5007              	.LASF78:
 5008 0390 77726974 		.ascii	"write\000"
 5008      6500
 5009              	.LASF64:
 5010 0396 696E7075 		.ascii	"input_queue_t\000"
 5010      745F7175 
 5010      6575655F 
 5010      7400
 5011              	.LASF80:
 5012 03a4 70757474 		.ascii	"putt\000"
 5012      00
 5013              	.LASF92:
 5014 03a9 69714765 		.ascii	"iqGetTimeout\000"
 5014      7454696D 
 5014      656F7574 
 5014      00
 5015              	.LASF32:
 5016 03b6 74687265 		.ascii	"thread_reference_t\000"
 5016      61645F72 
 5016      65666572 
 5016      656E6365 
 5016      5F7400
 5017              	.LASF58:
 5018 03c9 715F636F 		.ascii	"q_counter\000"
 5018      756E7465 
 5018      7200
 5019              	.LASF4:
 5020 03d3 6C6F6E67 		.ascii	"long double\000"
 5020      20646F75 
 5020      626C6500 
 5021              	.LASF45:
 5022 03df 706F7274 		.ascii	"port_context\000"
 5022      5F636F6E 
 5022      74657874 
 5022      00
 5023              	.LASF101:
 5024 03ec 73645374 		.ascii	"sdStop\000"
 5024      6F7000
 5025              	.LASF28:
 5026 03f3 7072696F 		.ascii	"prio\000"
 5026      00
 5027              	.LASF76:
 5028 03f8 53657269 		.ascii	"SerialConfig\000"
 5028      616C436F 
 5028      6E666967 
 5028      00
 5029              	.LASF15:
 5030 0405 5F5F7569 		.ascii	"__uint64_t\000"
ARM GAS  C:\msys64\tmp\ccrvwsPm.s 			page 92


 5030      6E743634 
 5030      5F7400
 5031              	.LASF108:
 5032 0410 6F73616C 		.ascii	"osalOsRescheduleS\000"
 5032      4F735265 
 5032      73636865 
 5032      64756C65 
 5032      5300
 5033              	.LASF40:
 5034 0422 52455345 		.ascii	"RESERVED1\000"
 5034      52564544 
 5034      3100
 5035              	.LASF41:
 5036 042c 52455345 		.ascii	"RESERVED2\000"
 5036      52564544 
 5036      3200
 5037              	.LASF67:
 5038 0436 53445F53 		.ascii	"SD_STOP\000"
 5038      544F5000 
 5039              	.LASF23:
 5040 043e 74707269 		.ascii	"tprio_t\000"
 5040      6F5F7400 
 5041              	.LASF52:
 5042 0446 5F426F6F 		.ascii	"_Bool\000"
 5042      6C00
 5043              	.LASF18:
 5044 044c 696E7433 		.ascii	"int32_t\000"
 5044      325F7400 
 5045              	.LASF2:
 5046 0454 756E7369 		.ascii	"unsigned char\000"
 5046      676E6564 
 5046      20636861 
 5046      7200
 5047              	.LASF88:
 5048 0462 73645F6C 		.ascii	"sd_lld_start\000"
 5048      6C645F73 
 5048      74617274 
 5048      00
 5049              	.LASF8:
 5050 046f 73686F72 		.ascii	"short int\000"
 5050      7420696E 
 5050      7400
 5051              	.LASF89:
 5052 0479 6F715772 		.ascii	"oqWriteTimeout\000"
 5052      69746554 
 5052      696D656F 
 5052      757400
 5053              	.LASF72:
 5054 0488 6F717565 		.ascii	"oqueue\000"
 5054      756500
 5055              	.LASF99:
 5056 048f 5F5F6675 		.ascii	"__func__\000"
 5056      6E635F5F 
 5056      00
 5057              	.LASF111:
 5058 0498 63685379 		.ascii	"chSysLock\000"
 5058      734C6F63 
ARM GAS  C:\msys64\tmp\ccrvwsPm.s 			page 93


 5058      6B00
 5059              	.LASF109:
 5060 04a2 6F73616C 		.ascii	"osalSysUnlock\000"
 5060      53797355 
 5060      6E6C6F63 
 5060      6B00
 5061              	.LASF66:
 5062 04b0 53445F55 		.ascii	"SD_UNINIT\000"
 5062      4E494E49 
 5062      5400
 5063              	.LASF19:
 5064 04ba 75696E74 		.ascii	"uint32_t\000"
 5064      33325F74 
 5064      00
 5065              	.LASF60:
 5066 04c3 715F7772 		.ascii	"q_wr\000"
 5066      00
 5067              	.LASF70:
 5068 04c8 53657269 		.ascii	"SerialDriver\000"
 5068      616C4472 
 5068      69766572 
 5068      00
 5069              	.LASF14:
 5070 04d5 6C6F6E67 		.ascii	"long unsigned int\000"
 5070      20756E73 
 5070      69676E65 
 5070      6420696E 
 5070      7400
 5071              	.LASF29:
 5072 04e7 77616261 		.ascii	"wabase\000"
 5072      736500
 5073              	.LASF79:
 5074 04ee 72656164 		.ascii	"read\000"
 5074      00
 5075              	.LASF51:
 5076 04f3 63686172 		.ascii	"char\000"
 5076      00
 5077              	.LASF100:
 5078 04f8 7364496E 		.ascii	"sdIncomingDataI\000"
 5078      636F6D69 
 5078      6E674461 
 5078      74614900 
 5079              	.LASF59:
 5080 0508 715F7369 		.ascii	"q_size\000"
 5080      7A6500
 5081              	.LASF103:
 5082 050f 636F6E66 		.ascii	"config\000"
 5082      696700
 5083              	.LASF102:
 5084 0516 73645374 		.ascii	"sdStart\000"
 5084      61727400 
 5085              	.LASF9:
 5086 051e 5F5F7569 		.ascii	"__uint16_t\000"
 5086      6E743136 
 5086      5F7400
 5087              	.LASF26:
 5088 0529 74687265 		.ascii	"thread_t\000"
ARM GAS  C:\msys64\tmp\ccrvwsPm.s 			page 94


 5088      61645F74 
 5088      00
 5089              	.LASF25:
 5090 0532 73797374 		.ascii	"systime_t\000"
 5090      696D655F 
 5090      7400
 5091              	.LASF11:
 5092 053c 5F5F696E 		.ascii	"__int32_t\000"
 5092      7433325F 
 5092      7400
 5093              	.LASF118:
 5094 0546 5F5F7365 		.ascii	"__set_BASEPRI\000"
 5094      745F4241 
 5094      53455052 
 5094      4900
 5095              	.LASF84:
 5096 0554 71476574 		.ascii	"qGetI\000"
 5096      4900
 5097              	.LASF39:
 5098 055a 52544F52 		.ascii	"RTOR\000"
 5098      00
 5099              	.LASF68:
 5100 055f 53445F52 		.ascii	"SD_READY\000"
 5100      45414459 
 5100      00
 5101              	.LASF65:
 5102 0568 6F757470 		.ascii	"output_queue_t\000"
 5102      75745F71 
 5102      75657565 
 5102      5F7400
 5103              	.LASF69:
 5104 0577 73647374 		.ascii	"sdstate_t\000"
 5104      6174655F 
 5104      7400
 5105              	.LASF87:
 5106 0581 73645F6C 		.ascii	"sd_lld_stop\000"
 5106      6C645F73 
 5106      746F7000 
 5107              	.LASF91:
 5108 058d 6F715075 		.ascii	"oqPutTimeout\000"
 5108      7454696D 
 5108      656F7574 
 5108      00
 5109              	.LASF33:
 5110 059a 74687265 		.ascii	"threads_queue_t\000"
 5110      6164735F 
 5110      71756575 
 5110      655F7400 
 5111              	.LASF47:
 5112 05aa 7264796D 		.ascii	"rdymsg\000"
 5112      736700
 5113              	.LASF56:
 5114 05b1 715F6E6F 		.ascii	"q_notify\000"
 5114      74696679 
 5114      00
 5115              	.LASF98:
 5116 05ba 73645265 		.ascii	"sdRequestDataI\000"
ARM GAS  C:\msys64\tmp\ccrvwsPm.s 			page 95


 5116      71756573 
 5116      74446174 
 5116      614900
 5117              	.LASF16:
 5118 05c9 75696E74 		.ascii	"uint8_t\000"
 5118      385F7400 
 5119              	.LASF31:
 5120 05d1 666C6167 		.ascii	"flags\000"
 5120      7300
 5121              	.LASF106:
 5122 05d7 6F6E6F74 		.ascii	"onotify\000"
 5122      69667900 
 5123              	.LASF86:
 5124 05df 71526573 		.ascii	"qResetI\000"
 5124      65744900 
 5125              	.LASF85:
 5126 05e7 71507574 		.ascii	"qPutI\000"
 5126      4900
 5127              	.LASF49:
 5128 05ed 77746F62 		.ascii	"wtobjp\000"
 5128      6A7000
 5129              	.LASF71:
 5130 05f4 69717565 		.ascii	"iqueue\000"
 5130      756500
 5131              	.LASF117:
 5132 05fb 63685379 		.ascii	"chSysUnlock\000"
 5132      73556E6C 
 5132      6F636B00 
 5133              	.LASF74:
 5134 0607 636C6F63 		.ascii	"clock\000"
 5134      6B00
 5135              	.LASF96:
 5136 060d 73644765 		.ascii	"sdGetWouldBlock\000"
 5136      74576F75 
 5136      6C64426C 
 5136      6F636B00 
 5137              	.LASF107:
 5138 061d 7364496E 		.ascii	"sdInit\000"
 5138      697400
 5139              	.LASF90:
 5140 0624 69715265 		.ascii	"iqReadTimeout\000"
 5140      61645469 
 5140      6D656F75 
 5140      7400
 5141              	.LASF115:
 5142 0632 43686962 		.ascii	"ChibiOS/os/hal/src/hal_serial.c\000"
 5142      694F532F 
 5142      6F732F68 
 5142      616C2F73 
 5142      72632F68 
 5143              		.ident	"GCC: (Arm GNU Toolchain 14.3.Rel1 (Build arm-14.174)) 14.3.1 20250623"
ARM GAS  C:\msys64\tmp\ccrvwsPm.s 			page 96


DEFINED SYMBOLS
                            *ABS*:00000000 hal_serial.c
C:\msys64\tmp\ccrvwsPm.s:19     .text.get:00000000 $t
C:\msys64\tmp\ccrvwsPm.s:25     .text.get:00000000 get
C:\msys64\tmp\ccrvwsPm.s:46     .text.put:00000000 $t
C:\msys64\tmp\ccrvwsPm.s:52     .text.put:00000000 put
C:\msys64\tmp\ccrvwsPm.s:73     .text.read:00000000 $t
C:\msys64\tmp\ccrvwsPm.s:79     .text.read:00000000 read
C:\msys64\tmp\ccrvwsPm.s:100    .text.write:00000000 $t
C:\msys64\tmp\ccrvwsPm.s:106    .text.write:00000000 write
C:\msys64\tmp\ccrvwsPm.s:127    .text.sdInit:00000000 $t
C:\msys64\tmp\ccrvwsPm.s:134    .text.sdInit:00000000 sdInit
C:\msys64\tmp\ccrvwsPm.s:148    .text.sdObjectInit:00000000 $t
C:\msys64\tmp\ccrvwsPm.s:155    .text.sdObjectInit:00000000 sdObjectInit
C:\msys64\tmp\ccrvwsPm.s:214    .text.sdObjectInit:00000034 $d
C:\msys64\tmp\ccrvwsPm.s:821    .rodata.vmt:00000000 vmt
C:\msys64\tmp\ccrvwsPm.s:219    .text.sdStart:00000000 $t
C:\msys64\tmp\ccrvwsPm.s:226    .text.sdStart:00000000 sdStart
C:\msys64\tmp\ccrvwsPm.s:374    .text.sdStop:00000000 $t
C:\msys64\tmp\ccrvwsPm.s:381    .text.sdStop:00000000 sdStop
C:\msys64\tmp\ccrvwsPm.s:528    .text.sdIncomingDataI:00000000 $t
C:\msys64\tmp\ccrvwsPm.s:535    .text.sdIncomingDataI:00000000 sdIncomingDataI
C:\msys64\tmp\ccrvwsPm.s:562    .text.sdRequestDataI:00000000 $t
C:\msys64\tmp\ccrvwsPm.s:569    .text.sdRequestDataI:00000000 sdRequestDataI
C:\msys64\tmp\ccrvwsPm.s:594    .text.sdPutWouldBlock:00000000 $t
C:\msys64\tmp\ccrvwsPm.s:601    .text.sdPutWouldBlock:00000000 sdPutWouldBlock
C:\msys64\tmp\ccrvwsPm.s:700    .text.sdGetWouldBlock:00000000 $t
C:\msys64\tmp\ccrvwsPm.s:707    .text.sdGetWouldBlock:00000000 sdGetWouldBlock
C:\msys64\tmp\ccrvwsPm.s:818    .rodata.vmt:00000000 $d

UNDEFINED SYMBOLS
iqGetTimeout
oqPutTimeout
iqReadTimeout
oqWriteTimeout
sd_lld_init
qObjectInit
sd_lld_start
sd_lld_stop
qResetI
chSchRescheduleS
qPutI
qGetI
