ARM GAS  C:\msys64\tmp\ccKhEA16.s 			page 1


   1              		.cpu cortex-m4
   2              		.arch armv7e-m
   3              		.fpu fpv4-sp-d16
   4              		.eabi_attribute 27, 1
   5              		.eabi_attribute 28, 1
   6              		.eabi_attribute 23, 1
   7              		.eabi_attribute 24, 1
   8              		.eabi_attribute 25, 1
   9              		.eabi_attribute 26, 1
  10              		.eabi_attribute 30, 2
  11              		.eabi_attribute 34, 1
  12              		.eabi_attribute 18, 4
  13              		.file	"hal_usb.c"
  14              		.text
  15              	.Ltext0:
  16              		.cfi_sections	.debug_frame
  17              		.file 1 "ChibiOS/os/hal/src/hal_usb.c"
  18              		.section	.text._usb_ep0_error,"ax",%progbits
  19              		.align	1
  20              		.p2align 4,,15
  21              		.syntax unified
  22              		.thumb
  23              		.thumb_func
  24              		.type	_usb_ep0_error, %function
  25              	_usb_ep0_error:
  26              	.LVL0:
  27              	.LFB233:
  28              		.loc 1 51 45 view -0
  29              		.cfi_startproc
  30              		@ args = 0, pretend = 0, frame = 0
  31              		@ frame_needed = 0, uses_anonymous_args = 0
  32              		.loc 1 52 3 view .LVU1
  33              		.loc 1 51 45 is_stmt 0 view .LVU2
  34 0000 10B5     		push	{r4, lr}
  35              		.cfi_def_cfa_offset 8
  36              		.cfi_offset 4, -8
  37              		.cfi_offset 14, -4
  38              		.loc 1 52 3 view .LVU3
  39 0002 0021     		movs	r1, #0
  40              		.loc 1 51 45 view .LVU4
  41 0004 0446     		mov	r4, r0
  42              		.loc 1 52 3 view .LVU5
  43 0006 FFF7FEFF 		bl	usb_lld_stall_in
  44              	.LVL1:
  45              		.loc 1 53 3 is_stmt 1 view .LVU6
  46 000a 0021     		movs	r1, #0
  47 000c 2046     		mov	r0, r4
  48 000e FFF7FEFF 		bl	usb_lld_stall_out
  49              	.LVL2:
  50              		.loc 1 54 3 view .LVU7
  51 0012 6368     		ldr	r3, [r4, #4]
  52 0014 1B68     		ldr	r3, [r3]
  53 0016 13B1     		cbz	r3, .L2
  54              		.loc 1 54 3 discriminator 1 view .LVU8
  55 0018 0521     		movs	r1, #5
  56 001a 2046     		mov	r0, r4
  57 001c 9847     		blx	r3
ARM GAS  C:\msys64\tmp\ccKhEA16.s 			page 2


  58              	.LVL3:
  59              	.L2:
  60              		.loc 1 54 52 view .LVU9
  61              		.loc 1 55 3 view .LVU10
  62              		.loc 1 55 18 is_stmt 0 view .LVU11
  63 001e 0623     		movs	r3, #6
  64 0020 84F86430 		strb	r3, [r4, #100]
  65              		.loc 1 56 1 view .LVU12
  66 0024 10BD     		pop	{r4, pc}
  67              		.loc 1 56 1 view .LVU13
  68              		.cfi_endproc
  69              	.LFE233:
  70              		.size	_usb_ep0_error, .-_usb_ep0_error
  71 0026 00BF     		.section	.text.set_address,"ax",%progbits
  72              		.align	1
  73              		.p2align 4,,15
  74              		.syntax unified
  75              		.thumb
  76              		.thumb_func
  77              		.type	set_address, %function
  78              	set_address:
  79              	.LVL4:
  80              	.LFB234:
  81              		.loc 1 81 42 is_stmt 1 view -0
  82              		.cfi_startproc
  83              		@ args = 0, pretend = 0, frame = 0
  84              		@ frame_needed = 0, uses_anonymous_args = 0
  85              		.loc 1 82 3 view .LVU15
  86              		.loc 1 81 42 is_stmt 0 view .LVU16
  87 0000 10B5     		push	{r4, lr}
  88              		.cfi_def_cfa_offset 8
  89              		.cfi_offset 4, -8
  90              		.cfi_offset 14, -4
  91              		.loc 1 82 17 view .LVU17
  92 0002 B0F87630 		ldrh	r3, [r0, #118]
  93 0006 80F87E30 		strb	r3, [r0, #126]
  94              		.loc 1 83 3 is_stmt 1 view .LVU18
  95              		.loc 1 81 42 is_stmt 0 view .LVU19
  96 000a 0446     		mov	r4, r0
  97              		.loc 1 83 3 view .LVU20
  98 000c FFF7FEFF 		bl	usb_lld_set_address
  99              	.LVL5:
 100              		.loc 1 84 3 is_stmt 1 view .LVU21
 101 0010 6368     		ldr	r3, [r4, #4]
 102 0012 1B68     		ldr	r3, [r3]
 103 0014 13B1     		cbz	r3, .L9
 104              		.loc 1 84 3 discriminator 1 view .LVU22
 105 0016 0121     		movs	r1, #1
 106 0018 2046     		mov	r0, r4
 107 001a 9847     		blx	r3
 108              	.LVL6:
 109              	.L9:
 110              		.loc 1 84 52 view .LVU23
 111              		.loc 1 85 3 view .LVU24
 112              		.loc 1 85 15 is_stmt 0 view .LVU25
 113 001c 0323     		movs	r3, #3
 114 001e 2370     		strb	r3, [r4]
ARM GAS  C:\msys64\tmp\ccKhEA16.s 			page 3


 115              		.loc 1 86 1 view .LVU26
 116 0020 10BD     		pop	{r4, pc}
 117              		.loc 1 86 1 view .LVU27
 118              		.cfi_endproc
 119              	.LFE234:
 120              		.size	set_address, .-set_address
 121 0022 00BF     		.section	.text.usbInit,"ax",%progbits
 122              		.align	1
 123              		.p2align 4,,15
 124              		.global	usbInit
 125              		.syntax unified
 126              		.thumb
 127              		.thumb_func
 128              		.type	usbInit, %function
 129              	usbInit:
 130              	.LFB239:
 131              		.loc 1 234 20 is_stmt 1 view -0
 132              		.cfi_startproc
 133              		@ args = 0, pretend = 0, frame = 0
 134              		@ frame_needed = 0, uses_anonymous_args = 0
 135              		@ link register save eliminated.
 136              		.loc 1 236 3 view .LVU29
 137 0000 FFF7FEBF 		b	usb_lld_init
 138              	.LVL7:
 139              		.cfi_endproc
 140              	.LFE239:
 141              		.size	usbInit, .-usbInit
 142              		.section	.text.usbObjectInit,"ax",%progbits
 143              		.align	1
 144              		.p2align 4,,15
 145              		.global	usbObjectInit
 146              		.syntax unified
 147              		.thumb
 148              		.thumb_func
 149              		.type	usbObjectInit, %function
 150              	usbObjectInit:
 151              	.LVL8:
 152              	.LFB240:
 153              		.loc 1 246 37 view -0
 154              		.cfi_startproc
 155              		@ args = 0, pretend = 0, frame = 0
 156              		@ frame_needed = 0, uses_anonymous_args = 0
 157              		.loc 1 247 3 view .LVU31
 158              		.loc 1 249 3 view .LVU32
 159              		.loc 1 246 37 is_stmt 0 view .LVU33
 160 0000 38B5     		push	{r3, r4, r5, lr}
 161              		.cfi_def_cfa_offset 16
 162              		.cfi_offset 3, -16
 163              		.cfi_offset 4, -12
 164              		.cfi_offset 5, -8
 165              		.cfi_offset 14, -4
 166              		.loc 1 250 22 view .LVU34
 167 0002 0025     		movs	r5, #0
 168              		.loc 1 246 37 view .LVU35
 169 0004 0446     		mov	r4, r0
 170              		.loc 1 249 22 view .LVU36
 171 0006 0123     		movs	r3, #1
ARM GAS  C:\msys64\tmp\ccKhEA16.s 			page 4


 172 0008 0370     		strb	r3, [r0]
 173              		.loc 1 250 3 is_stmt 1 view .LVU37
 174              		.loc 1 250 22 is_stmt 0 view .LVU38
 175 000a 4560     		str	r5, [r0, #4]
 176              		.loc 1 251 3 is_stmt 1 view .LVU39
 177              	.LVL9:
 178              		.loc 1 251 17 discriminator 1 view .LVU40
 179              		.loc 1 252 25 is_stmt 0 view .LVU41
 180 000c 3822     		movs	r2, #56
 181 000e 2946     		mov	r1, r5
 182 0010 2C30     		adds	r0, r0, #44
 183              	.LVL10:
 184              		.loc 1 252 25 view .LVU42
 185 0012 FFF7FEFF 		bl	memset
 186              	.LVL11:
 187              		.loc 1 255 3 is_stmt 1 view .LVU43
 188              		.loc 1 256 3 view .LVU44
 189              		.loc 1 255 22 is_stmt 0 view .LVU45
 190 0016 A560     		str	r5, [r4, #8]
 191              		.loc 1 257 1 view .LVU46
 192 0018 38BD     		pop	{r3, r4, r5, pc}
 193              		.loc 1 257 1 view .LVU47
 194              		.cfi_endproc
 195              	.LFE240:
 196              		.size	usbObjectInit, .-usbObjectInit
 197 001a 00BF     		.section	.text.usbStart,"ax",%progbits
 198              		.align	1
 199              		.p2align 4,,15
 200              		.global	usbStart
 201              		.syntax unified
 202              		.thumb
 203              		.thumb_func
 204              		.type	usbStart, %function
 205              	usbStart:
 206              	.LVL12:
 207              	.LFB241:
 208              		.loc 1 267 57 is_stmt 1 view -0
 209              		.cfi_startproc
 210              		@ args = 0, pretend = 0, frame = 0
 211              		@ frame_needed = 0, uses_anonymous_args = 0
 212              		.loc 1 268 3 view .LVU49
 213              		.loc 1 270 3 view .LVU50
 214              		.loc 1 270 3 view .LVU51
 215              		.loc 1 270 3 view .LVU52
 216              		.loc 1 272 3 view .LVU53
 217              	.LBB138:
 218              	.LBI138:
 219              		.file 2 "ChibiOS/os/hal/osal/rt/osal.h"
 220              		.loc 2 491 20 view .LVU54
 221              		.loc 2 493 3 view .LVU55
 222              	.LBB139:
 223              	.LBI139:
 224              		.file 3 "ChibiOS/os/rt/include/chsys.h"
 225              		.loc 3 374 20 view .LVU56
 226              		.loc 3 376 3 view .LVU57
 227              	.LBB140:
 228              	.LBI140:
ARM GAS  C:\msys64\tmp\ccKhEA16.s 			page 5


 229              		.file 4 "ChibiOS/os/common/ports/ARMCMx/chcore_v7m.h"
 230              		.loc 4 604 20 view .LVU58
 231              		.loc 4 612 3 view .LVU59
 232              	.LBB141:
 233              	.LBI141:
 234              		.file 5 "ChibiOS/os/common/ext/CMSIS/include/core_cmFunc.h"
 235              		.loc 5 546 57 view .LVU60
 236              	.LBB142:
 237              		.loc 5 548 3 view .LVU61
 238              	.LBE142:
 239              	.LBE141:
 240              	.LBE140:
 241              	.LBE139:
 242              	.LBE138:
 243              		.loc 1 267 57 is_stmt 0 view .LVU62
 244 0000 10B5     		push	{r4, lr}
 245              		.cfi_def_cfa_offset 8
 246              		.cfi_offset 4, -8
 247              		.cfi_offset 14, -4
 248              		.loc 1 267 57 view .LVU63
 249 0002 0B46     		mov	r3, r1
 250 0004 0446     		mov	r4, r0
 251              	.LBB147:
 252              	.LBB146:
 253              	.LBB145:
 254              	.LBB144:
 255              	.LBB143:
 256              		.loc 5 548 3 view .LVU64
 257 0006 2022     		movs	r2, #32
 258              		.syntax unified
 259              	@ 548 "ChibiOS/os/common/ext/CMSIS/include/core_cmFunc.h" 1
 260 0008 82F31188 		MSR basepri, r2
 261              	@ 0 "" 2
 262              	.LVL13:
 263              		.loc 5 548 3 view .LVU65
 264              		.thumb
 265              		.syntax unified
 266              	.LBE143:
 267              	.LBE144:
 268              	.LBE145:
 269              		.loc 3 377 34 is_stmt 1 view .LVU66
 270              		.loc 3 378 20 view .LVU67
 271              	.LBE146:
 272              	.LBE147:
 273              		.loc 1 273 3 view .LVU68
 274              		.loc 1 273 3 view .LVU69
 275              		.loc 1 273 3 view .LVU70
 276              		.loc 1 275 3 view .LVU71
 277              		.loc 1 277 18 is_stmt 0 view .LVU72
 278 000c 0021     		movs	r1, #0
 279              	.LVL14:
 280              		.loc 1 275 16 view .LVU73
 281 000e 4360     		str	r3, [r0, #4]
 282              		.loc 1 276 3 is_stmt 1 view .LVU74
 283              	.LVL15:
 284              		.loc 1 276 17 discriminator 1 view .LVU75
 285              		.loc 1 277 18 is_stmt 0 view .LVU76
ARM GAS  C:\msys64\tmp\ccKhEA16.s 			page 6


 286 0010 0C30     		adds	r0, r0, #12
 287              	.LVL16:
 288              		.loc 1 277 18 view .LVU77
 289 0012 FFF7FEFF 		bl	memset
 290              	.LVL17:
 291              		.loc 1 279 3 is_stmt 1 view .LVU78
 292 0016 2046     		mov	r0, r4
 293 0018 FFF7FEFF 		bl	usb_lld_start
 294              	.LVL18:
 295              		.loc 1 280 3 view .LVU79
 296              		.loc 1 280 15 is_stmt 0 view .LVU80
 297 001c 0222     		movs	r2, #2
 298              	.LBB148:
 299              	.LBB149:
 300              	.LBB150:
 301              	.LBB151:
 302              	.LBB152:
 303              	.LBB153:
 304              		.loc 5 548 3 view .LVU81
 305 001e 0023     		movs	r3, #0
 306              	.LBE153:
 307              	.LBE152:
 308              	.LBE151:
 309              	.LBE150:
 310              	.LBE149:
 311              	.LBE148:
 312              		.loc 1 280 15 view .LVU82
 313 0020 2270     		strb	r2, [r4]
 314              		.loc 1 281 3 is_stmt 1 view .LVU83
 315              	.LBB159:
 316              	.LBI148:
 317              		.loc 2 502 20 view .LVU84
 318              		.loc 2 504 3 view .LVU85
 319              	.LBB158:
 320              	.LBI149:
 321              		.loc 3 386 20 view .LVU86
 322              	.LBB157:
 323              		.loc 3 388 22 view .LVU87
 324              		.loc 3 389 33 view .LVU88
 325              		.loc 3 395 3 view .LVU89
 326              		.loc 3 395 3 view .LVU90
 327              		.loc 3 395 3 view .LVU91
 328              		.loc 3 399 3 view .LVU92
 329              	.LBB156:
 330              	.LBI151:
 331              		.loc 4 628 20 view .LVU93
 332              		.loc 4 631 3 view .LVU94
 333              	.LVL19:
 334              	.LBB155:
 335              	.LBI152:
 336              		.loc 5 546 57 view .LVU95
 337              	.LBB154:
 338              		.loc 5 548 3 view .LVU96
 339              		.syntax unified
 340              	@ 548 "ChibiOS/os/common/ext/CMSIS/include/core_cmFunc.h" 1
 341 0022 83F31188 		MSR basepri, r3
 342              	@ 0 "" 2
ARM GAS  C:\msys64\tmp\ccKhEA16.s 			page 7


 343              	.LVL20:
 344              		.loc 5 548 3 is_stmt 0 view .LVU97
 345              		.thumb
 346              		.syntax unified
 347              	.LBE154:
 348              	.LBE155:
 349              	.LBE156:
 350              	.LBE157:
 351              	.LBE158:
 352              	.LBE159:
 353              		.loc 1 282 1 view .LVU98
 354 0026 10BD     		pop	{r4, pc}
 355              		.loc 1 282 1 view .LVU99
 356              		.cfi_endproc
 357              	.LFE241:
 358              		.size	usbStart, .-usbStart
 359              		.section	.text.usbStop,"ax",%progbits
 360              		.align	1
 361              		.p2align 4,,15
 362              		.global	usbStop
 363              		.syntax unified
 364              		.thumb
 365              		.thumb_func
 366              		.type	usbStop, %function
 367              	usbStop:
 368              	.LVL21:
 369              	.LFB242:
 370              		.loc 1 291 31 is_stmt 1 view -0
 371              		.cfi_startproc
 372              		@ args = 0, pretend = 0, frame = 0
 373              		@ frame_needed = 0, uses_anonymous_args = 0
 374              		.loc 1 292 3 view .LVU101
 375              		.loc 1 294 3 view .LVU102
 376              		.loc 1 294 3 view .LVU103
 377              		.loc 1 294 3 view .LVU104
 378              		.loc 1 296 3 view .LVU105
 379              	.LBB160:
 380              	.LBI160:
 381              		.loc 2 491 20 view .LVU106
 382              		.loc 2 493 3 view .LVU107
 383              	.LBB161:
 384              	.LBI161:
 385              		.loc 3 374 20 view .LVU108
 386              		.loc 3 376 3 view .LVU109
 387              	.LBB162:
 388              	.LBI162:
 389              		.loc 4 604 20 view .LVU110
 390              		.loc 4 612 3 view .LVU111
 391              	.LBB163:
 392              	.LBI163:
 393              		.loc 5 546 57 view .LVU112
 394              	.LBB164:
 395              		.loc 5 548 3 view .LVU113
 396              	.LBE164:
 397              	.LBE163:
 398              	.LBE162:
 399              	.LBE161:
ARM GAS  C:\msys64\tmp\ccKhEA16.s 			page 8


 400              	.LBE160:
 401              		.loc 1 291 31 is_stmt 0 view .LVU114
 402 0000 38B5     		push	{r3, r4, r5, lr}
 403              		.cfi_def_cfa_offset 16
 404              		.cfi_offset 3, -16
 405              		.cfi_offset 4, -12
 406              		.cfi_offset 5, -8
 407              		.cfi_offset 14, -4
 408              		.loc 1 291 31 view .LVU115
 409 0002 0446     		mov	r4, r0
 410              	.LBB169:
 411              	.LBB168:
 412              	.LBB167:
 413              	.LBB166:
 414              	.LBB165:
 415              		.loc 5 548 3 view .LVU116
 416 0004 2025     		movs	r5, #32
 417              		.syntax unified
 418              	@ 548 "ChibiOS/os/common/ext/CMSIS/include/core_cmFunc.h" 1
 419 0006 85F31188 		MSR basepri, r5
 420              	@ 0 "" 2
 421              	.LVL22:
 422              		.loc 5 548 3 view .LVU117
 423              		.thumb
 424              		.syntax unified
 425              	.LBE165:
 426              	.LBE166:
 427              	.LBE167:
 428              		.loc 3 377 34 is_stmt 1 view .LVU118
 429              		.loc 3 378 20 view .LVU119
 430              	.LBE168:
 431              	.LBE169:
 432              		.loc 1 297 3 view .LVU120
 433              		.loc 1 297 3 view .LVU121
 434              		.loc 1 297 3 view .LVU122
 435              		.loc 1 301 3 view .LVU123
 436 000a FFF7FEFF 		bl	usb_lld_stop
 437              	.LVL23:
 438              		.loc 1 302 3 view .LVU124
 439              		.loc 1 302 15 is_stmt 0 view .LVU125
 440 000e 2046     		mov	r0, r4
 441 0010 0123     		movs	r3, #1
 442 0012 00F80C3B 		strb	r3, [r0], #12
 443              		.loc 1 305 3 is_stmt 1 view .LVU126
 444              	.LVL24:
 445              		.loc 1 305 17 discriminator 1 view .LVU127
 446              		.loc 1 316 18 is_stmt 0 view .LVU128
 447 0016 0021     		movs	r1, #0
 448 0018 2A46     		mov	r2, r5
 449 001a FFF7FEFF 		bl	memset
 450              	.LVL25:
 451              		.loc 1 318 3 is_stmt 1 view .LVU129
 452              	.LBB170:
 453              	.LBI170:
 454              		.loc 2 598 20 view .LVU130
 455              	.LBB171:
 456              		.loc 2 600 3 view .LVU131
ARM GAS  C:\msys64\tmp\ccKhEA16.s 			page 9


 457 001e FFF7FEFF 		bl	chSchRescheduleS
 458              	.LVL26:
 459              	.LBE171:
 460              	.LBE170:
 461              		.loc 1 319 3 view .LVU132
 462              	.LBB172:
 463              	.LBI172:
 464              		.loc 2 502 20 view .LVU133
 465              		.loc 2 504 3 view .LVU134
 466              	.LBB173:
 467              	.LBI173:
 468              		.loc 3 386 20 view .LVU135
 469              	.LBB174:
 470              		.loc 3 388 22 view .LVU136
 471              		.loc 3 389 33 view .LVU137
 472              		.loc 3 395 3 view .LVU138
 473              		.loc 3 395 3 view .LVU139
 474              		.loc 3 395 3 view .LVU140
 475              		.loc 3 399 3 view .LVU141
 476              	.LBB175:
 477              	.LBI175:
 478              		.loc 4 628 20 view .LVU142
 479              		.loc 4 631 3 view .LVU143
 480              	.LBB176:
 481              	.LBI176:
 482              		.loc 5 546 57 view .LVU144
 483              	.LBB177:
 484              		.loc 5 548 3 view .LVU145
 485 0022 0023     		movs	r3, #0
 486              		.syntax unified
 487              	@ 548 "ChibiOS/os/common/ext/CMSIS/include/core_cmFunc.h" 1
 488 0024 83F31188 		MSR basepri, r3
 489              	@ 0 "" 2
 490              	.LVL27:
 491              		.loc 5 548 3 is_stmt 0 view .LVU146
 492              		.thumb
 493              		.syntax unified
 494              	.LBE177:
 495              	.LBE176:
 496              	.LBE175:
 497              	.LBE174:
 498              	.LBE173:
 499              	.LBE172:
 500              		.loc 1 320 1 view .LVU147
 501 0028 38BD     		pop	{r3, r4, r5, pc}
 502              		.loc 1 320 1 view .LVU148
 503              		.cfi_endproc
 504              	.LFE242:
 505              		.size	usbStop, .-usbStop
 506 002a 00BF     		.section	.text.usbInitEndpointI,"ax",%progbits
 507              		.align	1
 508              		.p2align 4,,15
 509              		.global	usbInitEndpointI
 510              		.syntax unified
 511              		.thumb
 512              		.thumb_func
 513              		.type	usbInitEndpointI, %function
ARM GAS  C:\msys64\tmp\ccKhEA16.s 			page 10


 514              	usbInitEndpointI:
 515              	.LVL28:
 516              	.LFB243:
 517              		.loc 1 336 54 is_stmt 1 view -0
 518              		.cfi_startproc
 519              		@ args = 0, pretend = 0, frame = 0
 520              		@ frame_needed = 0, uses_anonymous_args = 0
 521              		@ link register save eliminated.
 522              		.loc 1 338 23 view .LVU150
 523              		.loc 1 339 3 view .LVU151
 524              		.loc 1 339 3 view .LVU152
 525              		.loc 1 339 3 view .LVU153
 526              		.loc 1 340 3 view .LVU154
 527              		.loc 1 340 3 view .LVU155
 528              		.loc 1 340 3 view .LVU156
 529              		.loc 1 342 3 view .LVU157
 530              		.loc 1 342 3 view .LVU158
 531              		.loc 1 342 3 view .LVU159
 532              		.loc 1 345 3 view .LVU160
 533              		.loc 1 348 11 is_stmt 0 view .LVU161
 534 0000 5369     		ldr	r3, [r2, #20]
 535              		.loc 1 345 17 view .LVU162
 536 0002 00EB810C 		add	ip, r0, r1, lsl #2
 537 0006 CCF80C20 		str	r2, [ip, #12]
 538              		.loc 1 348 3 is_stmt 1 view .LVU163
 539              		.loc 1 348 6 is_stmt 0 view .LVU164
 540 000a 3BB1     		cbz	r3, .L22
 541              		.loc 1 349 5 is_stmt 1 view .LVU165
 542 000c 4FF0000C 		mov	ip, #0
 543 0010 C3F800C0 		str	ip, [r3]	@ unaligned
 544 0014 C3F804C0 		str	ip, [r3, #4]	@ unaligned
 545 0018 C3F808C0 		str	ip, [r3, #8]	@ unaligned
 546              	.L22:
 547              		.loc 1 351 3 view .LVU166
 548              		.loc 1 351 11 is_stmt 0 view .LVU167
 549 001c 9369     		ldr	r3, [r2, #24]
 550              		.loc 1 351 6 view .LVU168
 551 001e 1BB1     		cbz	r3, .L23
 552              		.loc 1 352 5 is_stmt 1 view .LVU169
 553 0020 0022     		movs	r2, #0
 554              	.LVL29:
 555              		.loc 1 352 5 is_stmt 0 view .LVU170
 556 0022 1A60     		str	r2, [r3]	@ unaligned
 557 0024 5A60     		str	r2, [r3, #4]	@ unaligned
 558 0026 9A60     		str	r2, [r3, #8]	@ unaligned
 559              	.L23:
 560              		.loc 1 356 3 is_stmt 1 view .LVU171
 561 0028 FFF7FEBF 		b	usb_lld_init_endpoint
 562              	.LVL30:
 563              		.loc 1 356 3 is_stmt 0 view .LVU172
 564              		.cfi_endproc
 565              	.LFE243:
 566              		.size	usbInitEndpointI, .-usbInitEndpointI
 567              		.section	.text.usbDisableEndpointsI,"ax",%progbits
 568              		.align	1
 569              		.p2align 4,,15
 570              		.global	usbDisableEndpointsI
ARM GAS  C:\msys64\tmp\ccKhEA16.s 			page 11


 571              		.syntax unified
 572              		.thumb
 573              		.thumb_func
 574              		.type	usbDisableEndpointsI, %function
 575              	usbDisableEndpointsI:
 576              	.LVL31:
 577              	.LFB244:
 578              		.loc 1 370 44 is_stmt 1 view -0
 579              		.cfi_startproc
 580              		@ args = 0, pretend = 0, frame = 0
 581              		@ frame_needed = 0, uses_anonymous_args = 0
 582              		@ link register save eliminated.
 583              		.loc 1 371 3 view .LVU174
 584              		.loc 1 373 23 view .LVU175
 585              		.loc 1 374 3 view .LVU176
 586              		.loc 1 374 3 view .LVU177
 587              		.loc 1 374 3 view .LVU178
 588              		.loc 1 375 3 view .LVU179
 589              		.loc 1 375 3 view .LVU180
 590              		.loc 1 375 3 view .LVU181
 591              		.loc 1 377 3 view .LVU182
 592              		.loc 1 378 3 view .LVU183
 593              		.loc 1 377 22 is_stmt 0 view .LVU184
 594 0000 8168     		ldr	r1, [r0, #8]
 595              		.loc 1 383 18 view .LVU185
 596 0002 0022     		movs	r2, #0
 597              		.loc 1 377 22 view .LVU186
 598 0004 21F00111 		bic	r1, r1, #65537
 599              		.loc 1 383 18 view .LVU187
 600 0008 C0E90522 		strd	r2, r2, [r0, #20]
 601 000c C0E90722 		strd	r2, r2, [r0, #28]
 602 0010 C0E90922 		strd	r2, r2, [r0, #36]
 603 0014 0261     		str	r2, [r0, #16]
 604              		.loc 1 377 22 view .LVU188
 605 0016 8160     		str	r1, [r0, #8]
 606              		.loc 1 382 3 is_stmt 1 view .LVU189
 607              	.LVL32:
 608              		.loc 1 382 17 discriminator 1 view .LVU190
 609              		.loc 1 383 5 view .LVU191
 610              		.loc 1 382 50 discriminator 3 view .LVU192
 611              		.loc 1 382 17 discriminator 1 view .LVU193
 612              		.loc 1 383 5 view .LVU194
 613              		.loc 1 382 50 discriminator 3 view .LVU195
 614              		.loc 1 382 17 discriminator 1 view .LVU196
 615              		.loc 1 383 5 view .LVU197
 616              		.loc 1 382 50 discriminator 3 view .LVU198
 617              		.loc 1 382 17 discriminator 1 view .LVU199
 618              		.loc 1 383 5 view .LVU200
 619              		.loc 1 382 50 discriminator 3 view .LVU201
 620              		.loc 1 382 17 discriminator 1 view .LVU202
 621              		.loc 1 387 3 view .LVU203
 622 0018 FFF7FEBF 		b	usb_lld_disable_endpoints
 623              	.LVL33:
 624              		.loc 1 387 3 is_stmt 0 view .LVU204
 625              		.cfi_endproc
 626              	.LFE244:
 627              		.size	usbDisableEndpointsI, .-usbDisableEndpointsI
ARM GAS  C:\msys64\tmp\ccKhEA16.s 			page 12


 628              		.section	.text.usbStartReceiveI,"ax",%progbits
 629              		.align	1
 630              		.p2align 4,,15
 631              		.global	usbStartReceiveI
 632              		.syntax unified
 633              		.thumb
 634              		.thumb_func
 635              		.type	usbStartReceiveI, %function
 636              	usbStartReceiveI:
 637              	.LVL34:
 638              	.LFB245:
 639              		.loc 1 405 47 is_stmt 1 view -0
 640              		.cfi_startproc
 641              		@ args = 0, pretend = 0, frame = 0
 642              		@ frame_needed = 0, uses_anonymous_args = 0
 643              		.loc 1 406 3 view .LVU206
 644              		.loc 1 408 23 view .LVU207
 645              		.loc 1 409 3 view .LVU208
 646              		.loc 1 409 3 view .LVU209
 647              		.loc 1 409 3 view .LVU210
 648              		.loc 1 413 3 view .LVU211
 649              		.loc 1 405 47 is_stmt 0 view .LVU212
 650 0000 70B5     		push	{r4, r5, r6, lr}
 651              		.cfi_def_cfa_offset 16
 652              		.cfi_offset 4, -16
 653              		.cfi_offset 5, -12
 654              		.cfi_offset 6, -8
 655              		.cfi_offset 14, -4
 656              		.loc 1 417 18 view .LVU213
 657 0002 00EB8105 		add	r5, r0, r1, lsl #2
 658              		.loc 1 413 19 view .LVU214
 659 0006 4689     		ldrh	r6, [r0, #10]
 660              		.loc 1 417 7 view .LVU215
 661 0008 ED68     		ldr	r5, [r5, #12]
 662              		.loc 1 413 46 view .LVU216
 663 000a 4FF0010E 		mov	lr, #1
 664              		.loc 1 417 7 view .LVU217
 665 000e AD69     		ldr	r5, [r5, #24]
 666              		.loc 1 413 46 view .LVU218
 667 0010 0EFA01FE 		lsl	lr, lr, r1
 668              		.loc 1 413 19 view .LVU219
 669 0014 4EEA060E 		orr	lr, lr, r6
 670 0018 A0F80AE0 		strh	lr, [r0, #10]	@ movhi
 671              		.loc 1 417 3 is_stmt 1 view .LVU220
 672              	.LVL35:
 673              		.loc 1 419 3 view .LVU221
 674              		.loc 1 419 15 is_stmt 0 view .LVU222
 675 001c AA60     		str	r2, [r5, #8]
 676              		.loc 1 420 3 is_stmt 1 view .LVU223
 677              		.loc 1 421 15 is_stmt 0 view .LVU224
 678 001e 0022     		movs	r2, #0
 679              	.LVL36:
 680              		.loc 1 421 15 view .LVU225
 681 0020 C5E90032 		strd	r3, r2, [r5]
 682              		.loc 1 427 3 is_stmt 1 view .LVU226
 683              		.loc 1 428 1 is_stmt 0 view .LVU227
 684 0024 BDE87040 		pop	{r4, r5, r6, lr}
ARM GAS  C:\msys64\tmp\ccKhEA16.s 			page 13


 685              		.cfi_restore 14
 686              		.cfi_restore 6
 687              		.cfi_restore 5
 688              		.cfi_restore 4
 689              		.cfi_def_cfa_offset 0
 690              	.LVL37:
 691              		.loc 1 427 3 view .LVU228
 692 0028 FFF7FEBF 		b	usb_lld_start_out
 693              	.LVL38:
 694              		.loc 1 427 3 view .LVU229
 695              		.cfi_endproc
 696              	.LFE245:
 697              		.size	usbStartReceiveI, .-usbStartReceiveI
 698              		.section	.text.usbStartTransmitI,"ax",%progbits
 699              		.align	1
 700              		.p2align 4,,15
 701              		.global	usbStartTransmitI
 702              		.syntax unified
 703              		.thumb
 704              		.thumb_func
 705              		.type	usbStartTransmitI, %function
 706              	usbStartTransmitI:
 707              	.LVL39:
 708              	.LFB246:
 709              		.loc 1 444 54 is_stmt 1 view -0
 710              		.cfi_startproc
 711              		@ args = 0, pretend = 0, frame = 0
 712              		@ frame_needed = 0, uses_anonymous_args = 0
 713              		.loc 1 445 3 view .LVU231
 714              		.loc 1 447 23 view .LVU232
 715              		.loc 1 448 3 view .LVU233
 716              		.loc 1 448 3 view .LVU234
 717              		.loc 1 448 3 view .LVU235
 718              		.loc 1 452 3 view .LVU236
 719              		.loc 1 444 54 is_stmt 0 view .LVU237
 720 0000 70B5     		push	{r4, r5, r6, lr}
 721              		.cfi_def_cfa_offset 16
 722              		.cfi_offset 4, -16
 723              		.cfi_offset 5, -12
 724              		.cfi_offset 6, -8
 725              		.cfi_offset 14, -4
 726              		.loc 1 456 18 view .LVU238
 727 0002 00EB8105 		add	r5, r0, r1, lsl #2
 728              		.loc 1 452 22 view .LVU239
 729 0006 0689     		ldrh	r6, [r0, #8]
 730              		.loc 1 456 7 view .LVU240
 731 0008 ED68     		ldr	r5, [r5, #12]
 732              		.loc 1 452 49 view .LVU241
 733 000a 4FF0010E 		mov	lr, #1
 734              		.loc 1 456 7 view .LVU242
 735 000e 6D69     		ldr	r5, [r5, #20]
 736              		.loc 1 452 49 view .LVU243
 737 0010 0EFA01FE 		lsl	lr, lr, r1
 738              		.loc 1 452 22 view .LVU244
 739 0014 4EEA060E 		orr	lr, lr, r6
 740 0018 A0F808E0 		strh	lr, [r0, #8]	@ movhi
 741              		.loc 1 456 3 is_stmt 1 view .LVU245
ARM GAS  C:\msys64\tmp\ccKhEA16.s 			page 14


 742              	.LVL40:
 743              		.loc 1 458 3 view .LVU246
 744              		.loc 1 458 15 is_stmt 0 view .LVU247
 745 001c AA60     		str	r2, [r5, #8]
 746              		.loc 1 459 3 is_stmt 1 view .LVU248
 747              		.loc 1 460 15 is_stmt 0 view .LVU249
 748 001e 0022     		movs	r2, #0
 749              	.LVL41:
 750              		.loc 1 460 15 view .LVU250
 751 0020 C5E90032 		strd	r3, r2, [r5]
 752              		.loc 1 466 3 is_stmt 1 view .LVU251
 753              		.loc 1 467 1 is_stmt 0 view .LVU252
 754 0024 BDE87040 		pop	{r4, r5, r6, lr}
 755              		.cfi_restore 14
 756              		.cfi_restore 6
 757              		.cfi_restore 5
 758              		.cfi_restore 4
 759              		.cfi_def_cfa_offset 0
 760              	.LVL42:
 761              		.loc 1 466 3 view .LVU253
 762 0028 FFF7FEBF 		b	usb_lld_start_in
 763              	.LVL43:
 764              		.loc 1 466 3 view .LVU254
 765              		.cfi_endproc
 766              	.LFE246:
 767              		.size	usbStartTransmitI, .-usbStartTransmitI
 768              		.section	.text.usbStallReceiveI,"ax",%progbits
 769              		.align	1
 770              		.p2align 4,,15
 771              		.global	usbStallReceiveI
 772              		.syntax unified
 773              		.thumb
 774              		.thumb_func
 775              		.type	usbStallReceiveI, %function
 776              	usbStallReceiveI:
 777              	.LVL44:
 778              	.LFB247:
 779              		.loc 1 550 52 is_stmt 1 view -0
 780              		.cfi_startproc
 781              		@ args = 0, pretend = 0, frame = 0
 782              		@ frame_needed = 0, uses_anonymous_args = 0
 783              		.loc 1 551 23 view .LVU256
 784              		.loc 1 552 3 view .LVU257
 785              		.loc 1 552 3 view .LVU258
 786              		.loc 1 552 3 view .LVU259
 787              		.loc 1 554 3 view .LVU260
 788              		.loc 1 550 52 is_stmt 0 view .LVU261
 789 0000 10B5     		push	{r4, lr}
 790              		.cfi_def_cfa_offset 8
 791              		.cfi_offset 4, -8
 792              		.cfi_offset 14, -4
 793              		.loc 1 554 7 view .LVU262
 794 0002 0122     		movs	r2, #1
 795 0004 4489     		ldrh	r4, [r0, #10]
 796 0006 02FA01F3 		lsl	r3, r2, r1
 797              		.loc 1 554 6 view .LVU263
 798 000a 1C40     		ands	r4, r3, r4
ARM GAS  C:\msys64\tmp\ccKhEA16.s 			page 15


 799 000c 01D0     		beq	.L39
 800              		.loc 1 555 12 view .LVU264
 801 000e 1046     		mov	r0, r2
 802              	.LVL45:
 803              		.loc 1 560 1 view .LVU265
 804 0010 10BD     		pop	{r4, pc}
 805              	.LVL46:
 806              	.L39:
 807              		.loc 1 558 3 is_stmt 1 view .LVU266
 808 0012 FFF7FEFF 		bl	usb_lld_stall_out
 809              	.LVL47:
 810              		.loc 1 559 3 view .LVU267
 811              		.loc 1 559 10 is_stmt 0 view .LVU268
 812 0016 2046     		mov	r0, r4
 813              		.loc 1 560 1 view .LVU269
 814 0018 10BD     		pop	{r4, pc}
 815              		.cfi_endproc
 816              	.LFE247:
 817              		.size	usbStallReceiveI, .-usbStallReceiveI
 818 001a 00BF     		.section	.text.usbStallTransmitI,"ax",%progbits
 819              		.align	1
 820              		.p2align 4,,15
 821              		.global	usbStallTransmitI
 822              		.syntax unified
 823              		.thumb
 824              		.thumb_func
 825              		.type	usbStallTransmitI, %function
 826              	usbStallTransmitI:
 827              	.LVL48:
 828              	.LFB248:
 829              		.loc 1 574 53 is_stmt 1 view -0
 830              		.cfi_startproc
 831              		@ args = 0, pretend = 0, frame = 0
 832              		@ frame_needed = 0, uses_anonymous_args = 0
 833              		.loc 1 576 23 view .LVU271
 834              		.loc 1 577 3 view .LVU272
 835              		.loc 1 577 3 view .LVU273
 836              		.loc 1 577 3 view .LVU274
 837              		.loc 1 579 3 view .LVU275
 838              		.loc 1 574 53 is_stmt 0 view .LVU276
 839 0000 10B5     		push	{r4, lr}
 840              		.cfi_def_cfa_offset 8
 841              		.cfi_offset 4, -8
 842              		.cfi_offset 14, -4
 843              		.loc 1 579 7 view .LVU277
 844 0002 0122     		movs	r2, #1
 845 0004 0489     		ldrh	r4, [r0, #8]
 846 0006 02FA01F3 		lsl	r3, r2, r1
 847              		.loc 1 579 6 view .LVU278
 848 000a 1C40     		ands	r4, r3, r4
 849 000c 01D0     		beq	.L44
 850              		.loc 1 580 12 view .LVU279
 851 000e 1046     		mov	r0, r2
 852              	.LVL49:
 853              		.loc 1 585 1 view .LVU280
 854 0010 10BD     		pop	{r4, pc}
 855              	.LVL50:
ARM GAS  C:\msys64\tmp\ccKhEA16.s 			page 16


 856              	.L44:
 857              		.loc 1 583 3 is_stmt 1 view .LVU281
 858 0012 FFF7FEFF 		bl	usb_lld_stall_in
 859              	.LVL51:
 860              		.loc 1 584 3 view .LVU282
 861              		.loc 1 584 10 is_stmt 0 view .LVU283
 862 0016 2046     		mov	r0, r4
 863              		.loc 1 585 1 view .LVU284
 864 0018 10BD     		pop	{r4, pc}
 865              		.cfi_endproc
 866              	.LFE248:
 867              		.size	usbStallTransmitI, .-usbStallTransmitI
 868 001a 00BF     		.section	.text._usb_reset,"ax",%progbits
 869              		.align	1
 870              		.p2align 4,,15
 871              		.global	_usb_reset
 872              		.syntax unified
 873              		.thumb
 874              		.thumb_func
 875              		.type	_usb_reset, %function
 876              	_usb_reset:
 877              	.LVL52:
 878              	.LFB249:
 879              		.loc 1 596 34 is_stmt 1 view -0
 880              		.cfi_startproc
 881              		@ args = 0, pretend = 0, frame = 0
 882              		@ frame_needed = 0, uses_anonymous_args = 0
 883              		.loc 1 597 3 view .LVU286
 884              		.loc 1 599 3 view .LVU287
 885              		.loc 1 596 34 is_stmt 0 view .LVU288
 886 0000 70B5     		push	{r4, r5, r6, lr}
 887              		.cfi_def_cfa_offset 16
 888              		.cfi_offset 4, -16
 889              		.cfi_offset 5, -12
 890              		.cfi_offset 6, -8
 891              		.cfi_offset 14, -4
 892              		.loc 1 599 23 view .LVU289
 893 0002 0223     		movs	r3, #2
 894              		.loc 1 596 34 view .LVU290
 895 0004 0446     		mov	r4, r0
 896              		.loc 1 601 23 view .LVU291
 897 0006 0025     		movs	r5, #0
 898              		.loc 1 599 23 view .LVU292
 899 0008 0370     		strb	r3, [r0]
 900              		.loc 1 601 3 is_stmt 1 view .LVU293
 901              		.loc 1 602 3 view .LVU294
 902              		.loc 1 603 3 view .LVU295
 903              		.loc 1 601 23 is_stmt 0 view .LVU296
 904 000a C567     		str	r5, [r0, #124]
 905              		.loc 1 604 3 is_stmt 1 view .LVU297
 906              		.loc 1 605 3 view .LVU298
 907              		.loc 1 604 23 is_stmt 0 view .LVU299
 908 000c 8560     		str	r5, [r0, #8]
 909              		.loc 1 610 3 is_stmt 1 view .LVU300
 910              	.LVL53:
 911              		.loc 1 610 17 discriminator 1 view .LVU301
 912              		.loc 1 611 18 is_stmt 0 view .LVU302
ARM GAS  C:\msys64\tmp\ccKhEA16.s 			page 17


 913 000e 2022     		movs	r2, #32
 914 0010 2946     		mov	r1, r5
 915 0012 0C30     		adds	r0, r0, #12
 916              	.LVL54:
 917              		.loc 1 611 18 view .LVU303
 918 0014 FFF7FEFF 		bl	memset
 919              	.LVL55:
 920              		.loc 1 614 3 is_stmt 1 view .LVU304
 921              		.loc 1 614 18 is_stmt 0 view .LVU305
 922 0018 84F86450 		strb	r5, [r4, #100]
 923              		.loc 1 616 3 is_stmt 1 view .LVU306
 924 001c 2046     		mov	r0, r4
 925 001e FFF7FEFF 		bl	usb_lld_reset
 926              	.LVL56:
 927              		.loc 1 618 3 view .LVU307
 928 0022 6368     		ldr	r3, [r4, #4]
 929 0024 1B68     		ldr	r3, [r3]
 930 0026 23B1     		cbz	r3, .L45
 931              		.loc 1 618 3 discriminator 1 view .LVU308
 932 0028 2946     		mov	r1, r5
 933 002a 2046     		mov	r0, r4
 934              		.loc 1 619 1 is_stmt 0 view .LVU309
 935 002c BDE87040 		pop	{r4, r5, r6, lr}
 936              		.cfi_remember_state
 937              		.cfi_restore 14
 938              		.cfi_restore 6
 939              		.cfi_restore 5
 940              		.cfi_restore 4
 941              		.cfi_def_cfa_offset 0
 942              	.LVL57:
 943              		.loc 1 618 3 discriminator 1 view .LVU310
 944 0030 1847     		bx	r3	@ indirect register sibling call
 945              	.LVL58:
 946              	.L45:
 947              		.cfi_restore_state
 948              		.loc 1 619 1 view .LVU311
 949 0032 70BD     		pop	{r4, r5, r6, pc}
 950              		.loc 1 619 1 view .LVU312
 951              		.cfi_endproc
 952              	.LFE249:
 953              		.size	_usb_reset, .-_usb_reset
 954              		.section	.text._usb_suspend,"ax",%progbits
 955              		.align	1
 956              		.p2align 4,,15
 957              		.global	_usb_suspend
 958              		.syntax unified
 959              		.thumb
 960              		.thumb_func
 961              		.type	_usb_suspend, %function
 962              	_usb_suspend:
 963              	.LVL59:
 964              	.LFB250:
 965              		.loc 1 630 36 is_stmt 1 view -0
 966              		.cfi_startproc
 967              		@ args = 0, pretend = 0, frame = 0
 968              		@ frame_needed = 0, uses_anonymous_args = 0
 969              		@ link register save eliminated.
ARM GAS  C:\msys64\tmp\ccKhEA16.s 			page 18


 970              		.loc 1 632 3 view .LVU314
 971              		.loc 1 634 3 is_stmt 0 view .LVU315
 972 0000 4268     		ldr	r2, [r0, #4]
 973              		.loc 1 632 15 view .LVU316
 974 0002 0521     		movs	r1, #5
 975 0004 0170     		strb	r1, [r0]
 976              		.loc 1 634 3 is_stmt 1 view .LVU317
 977 0006 1368     		ldr	r3, [r2]
 978 0008 0BB1     		cbz	r3, .L48
 979              		.loc 1 634 3 discriminator 1 view .LVU318
 980 000a 0321     		movs	r1, #3
 981 000c 1847     		bx	r3	@ indirect register sibling call
 982              	.LVL60:
 983              	.L48:
 984              		.loc 1 639 1 is_stmt 0 view .LVU319
 985 000e 7047     		bx	lr
 986              		.cfi_endproc
 987              	.LFE250:
 988              		.size	_usb_suspend, .-_usb_suspend
 989              		.section	.text._usb_wakeup,"ax",%progbits
 990              		.align	1
 991              		.p2align 4,,15
 992              		.global	_usb_wakeup
 993              		.syntax unified
 994              		.thumb
 995              		.thumb_func
 996              		.type	_usb_wakeup, %function
 997              	_usb_wakeup:
 998              	.LVL61:
 999              	.LFB251:
 1000              		.loc 1 650 35 is_stmt 1 view -0
 1001              		.cfi_startproc
 1002              		@ args = 0, pretend = 0, frame = 0
 1003              		@ frame_needed = 0, uses_anonymous_args = 0
 1004              		@ link register save eliminated.
 1005              		.loc 1 652 3 view .LVU321
 1006              		.loc 1 654 3 is_stmt 0 view .LVU322
 1007 0000 4268     		ldr	r2, [r0, #4]
 1008              		.loc 1 652 15 view .LVU323
 1009 0002 0421     		movs	r1, #4
 1010 0004 0170     		strb	r1, [r0]
 1011              		.loc 1 654 3 is_stmt 1 view .LVU324
 1012 0006 1368     		ldr	r3, [r2]
 1013 0008 03B1     		cbz	r3, .L50
 1014              		.loc 1 654 3 discriminator 1 view .LVU325
 1015 000a 1847     		bx	r3	@ indirect register sibling call
 1016              	.LVL62:
 1017              	.L50:
 1018              		.loc 1 655 1 is_stmt 0 view .LVU326
 1019 000c 7047     		bx	lr
 1020              		.cfi_endproc
 1021              	.LFE251:
 1022              		.size	_usb_wakeup, .-_usb_wakeup
 1023 000e 00BF     		.section	.text._usb_ep0setup,"ax",%progbits
 1024              		.align	1
 1025              		.p2align 4,,15
 1026              		.global	_usb_ep0setup
ARM GAS  C:\msys64\tmp\ccKhEA16.s 			page 19


 1027              		.syntax unified
 1028              		.thumb
 1029              		.thumb_func
 1030              		.type	_usb_ep0setup, %function
 1031              	_usb_ep0setup:
 1032              	.LVL63:
 1033              	.LFB252:
 1034              		.loc 1 667 49 is_stmt 1 view -0
 1035              		.cfi_startproc
 1036              		@ args = 0, pretend = 0, frame = 0
 1037              		@ frame_needed = 0, uses_anonymous_args = 0
 1038              		.loc 1 668 3 view .LVU328
 1039              		.loc 1 667 49 is_stmt 0 view .LVU329
 1040 0000 38B5     		push	{r3, r4, r5, lr}
 1041              		.cfi_def_cfa_offset 16
 1042              		.cfi_offset 3, -16
 1043              		.cfi_offset 4, -12
 1044              		.cfi_offset 5, -8
 1045              		.cfi_offset 14, -4
 1046              		.loc 1 667 49 view .LVU330
 1047 0002 0446     		mov	r4, r0
 1048              		.loc 1 668 18 view .LVU331
 1049 0004 0025     		movs	r5, #0
 1050 0006 80F86450 		strb	r5, [r0, #100]
 1051              		.loc 1 670 3 is_stmt 1 view .LVU332
 1052 000a 00F17402 		add	r2, r0, #116
 1053 000e FFF7FEFF 		bl	usb_lld_read_setup
 1054              	.LVL64:
 1055              		.loc 1 672 3 view .LVU333
 1056              		.loc 1 674 20 is_stmt 0 view .LVU334
 1057 0012 6368     		ldr	r3, [r4, #4]
 1058              		.loc 1 672 18 view .LVU335
 1059 0014 2567     		str	r5, [r4, #112]
 1060              		.loc 1 674 3 is_stmt 1 view .LVU336
 1061              		.loc 1 674 20 is_stmt 0 view .LVU337
 1062 0016 9B68     		ldr	r3, [r3, #8]
 1063              		.loc 1 674 6 view .LVU338
 1064 0018 EBB1     		cbz	r3, .L57
 1065              		.loc 1 674 53 discriminator 1 view .LVU339
 1066 001a 2046     		mov	r0, r4
 1067 001c 9847     		blx	r3
 1068              	.LVL65:
 1069              		.loc 1 674 48 discriminator 1 view .LVU340
 1070 001e D0B1     		cbz	r0, .L57
 1071              		.loc 1 691 11 view .LVU341
 1072 0020 E26E     		ldr	r2, [r4, #108]
 1073              	.L74:
 1074              		.loc 1 691 3 is_stmt 1 view .LVU342
 1075              		.loc 1 691 31 is_stmt 0 view .LVU343
 1076 0022 B4F87A30 		ldrh	r3, [r4, #122]
 1077              		.loc 1 691 6 view .LVU344
 1078 0026 9342     		cmp	r3, r2
 1079              		.loc 1 692 5 is_stmt 1 view .LVU345
 1080              		.loc 1 692 16 is_stmt 0 view .LVU346
 1081 0028 38BF     		it	cc
 1082 002a E366     		strcc	r3, [r4, #108]
 1083              	.L92:
ARM GAS  C:\msys64\tmp\ccKhEA16.s 			page 20


 1084              		.loc 1 695 3 is_stmt 1 view .LVU347
 1085              	.LBB201:
 1086              	.LBI201:
 1087              		.loc 2 513 20 view .LVU348
 1088              		.loc 2 515 3 view .LVU349
 1089              	.LBB202:
 1090              	.LBI202:
 1091              		.loc 3 414 20 view .LVU350
 1092              		.loc 3 416 3 view .LVU351
 1093              	.LBB203:
 1094              	.LBI203:
 1095              		.loc 4 643 20 view .LVU352
 1096              		.loc 4 645 3 view .LVU353
 1097              	.LBB204:
 1098              	.LBI204:
 1099              		.loc 4 604 20 view .LVU354
 1100              		.loc 4 612 3 view .LVU355
 1101              	.LVL66:
 1102              	.LBB205:
 1103              	.LBI205:
 1104              		.loc 5 546 57 view .LVU356
 1105              	.LBB206:
 1106              		.loc 5 548 3 view .LVU357
 1107 002c 2023     		movs	r3, #32
 1108              		.syntax unified
 1109              	@ 548 "ChibiOS/os/common/ext/CMSIS/include/core_cmFunc.h" 1
 1110 002e 83F31188 		MSR basepri, r3
 1111              	@ 0 "" 2
 1112              	.LVL67:
 1113              		.loc 5 548 3 is_stmt 0 view .LVU358
 1114              		.thumb
 1115              		.syntax unified
 1116              	.LBE206:
 1117              	.LBE205:
 1118              	.LBE204:
 1119              	.LBE203:
 1120              		.loc 3 417 34 is_stmt 1 view .LVU359
 1121              		.loc 3 418 29 view .LVU360
 1122              	.LBE202:
 1123              	.LBE201:
 1124              		.loc 1 696 3 view .LVU361
 1125              		.loc 1 696 6 is_stmt 0 view .LVU362
 1126 0032 94F97420 		ldrsb	r2, [r4, #116]
 1127              		.loc 1 698 13 view .LVU363
 1128 0036 E36E     		ldr	r3, [r4, #108]
 1129              		.loc 1 696 6 view .LVU364
 1130 0038 002A     		cmp	r2, #0
 1131 003a 23DB     		blt	.L107
 1132              		.loc 1 713 5 is_stmt 1 view .LVU365
 1133              		.loc 1 713 8 is_stmt 0 view .LVU366
 1134 003c 7BB3     		cbz	r3, .L91
 1135              		.loc 1 715 7 is_stmt 1 view .LVU367
 1136 003e A26E     		ldr	r2, [r4, #104]
 1137 0040 0021     		movs	r1, #0
 1138 0042 2046     		mov	r0, r4
 1139 0044 FFF7FEFF 		bl	usbStartReceiveI
 1140              	.LVL68:
ARM GAS  C:\msys64\tmp\ccKhEA16.s 			page 21


 1141              		.loc 1 716 7 view .LVU368
 1142 0048 0423     		movs	r3, #4
 1143              		.loc 1 710 22 is_stmt 0 view .LVU369
 1144 004a 84F86430 		strb	r3, [r4, #100]
 1145              		.loc 1 727 3 is_stmt 1 view .LVU370
 1146              	.LBB207:
 1147              	.LBI207:
 1148              		.loc 2 524 20 view .LVU371
 1149              	.LBB208:
 1150              		.loc 2 526 3 view .LVU372
 1151              	.LBB209:
 1152              	.LBI209:
 1153              		.loc 3 434 20 view .LVU373
 1154              		.loc 3 436 31 view .LVU374
 1155              		.loc 3 437 33 view .LVU375
 1156              		.loc 3 438 3 view .LVU376
 1157              	.LBB210:
 1158              	.LBI210:
 1159              		.loc 4 654 20 view .LVU377
 1160              		.loc 4 656 3 view .LVU378
 1161              	.LBB211:
 1162              	.LBI211:
 1163              		.loc 4 628 20 view .LVU379
 1164              		.loc 4 631 3 view .LVU380
 1165              	.LVL69:
 1166              	.LBB212:
 1167              	.LBI212:
 1168              		.loc 5 546 57 view .LVU381
 1169              	.LBB213:
 1170              		.loc 5 548 3 view .LVU382
 1171 004e 0023     		movs	r3, #0
 1172              		.syntax unified
 1173              	@ 548 "ChibiOS/os/common/ext/CMSIS/include/core_cmFunc.h" 1
 1174 0050 83F31188 		MSR basepri, r3
 1175              	@ 0 "" 2
 1176              	.LVL70:
 1177              		.loc 5 548 3 is_stmt 0 view .LVU383
 1178              		.thumb
 1179              		.syntax unified
 1180              	.LBE213:
 1181              	.LBE212:
 1182              	.LBE211:
 1183              	.LBE210:
 1184              	.LBE209:
 1185              	.LBE208:
 1186              	.LBE207:
 1187              		.loc 1 728 1 view .LVU384
 1188 0054 38BD     		pop	{r3, r4, r5, pc}
 1189              	.LVL71:
 1190              	.L57:
 1191              		.loc 1 676 5 is_stmt 1 view .LVU385
 1192              	.LBB232:
 1193              	.LBI232:
 1194              		.loc 1 206 13 view .LVU386
 1195              	.LBB233:
 1196              		.loc 1 207 3 view .LVU387
 1197              		.loc 1 207 31 is_stmt 0 view .LVU388
ARM GAS  C:\msys64\tmp\ccKhEA16.s 			page 22


 1198 0056 94F87430 		ldrb	r3, [r4, #116]	@ zero_extendqisi2
 1199              	.LVL72:
 1200              		.loc 1 209 3 is_stmt 1 view .LVU389
 1201              		.loc 1 209 6 is_stmt 0 view .LVU390
 1202 005a 13F0600F 		tst	r3, #96
 1203 005e 2BD1     		bne	.L62
 1204              	.LBB234:
 1205              		.loc 1 211 5 is_stmt 1 view .LVU391
 1206 0060 03F01F03 		and	r3, r3, #31
 1207              	.LVL73:
 1208              		.loc 1 212 5 is_stmt 0 view .LVU392
 1209 0064 012B     		cmp	r3, #1
 1210              		.loc 1 211 35 view .LVU393
 1211 0066 94F87520 		ldrb	r2, [r4, #117]	@ zero_extendqisi2
 1212              	.LVL74:
 1213              		.loc 1 212 5 is_stmt 1 view .LVU394
 1214 006a 24D0     		beq	.L58
 1215 006c 022B     		cmp	r3, #2
 1216 006e 34D0     		beq	.L59
 1217 0070 13BB     		cbnz	r3, .L62
 1218              		.loc 1 213 43 view .LVU395
 1219              	.LVL75:
 1220              	.LBB235:
 1221              	.LBI235:
 1222              		.loc 1 101 13 view .LVU396
 1223              	.LBB236:
 1224              		.loc 1 102 3 view .LVU397
 1225 0072 092A     		cmp	r2, #9
 1226 0074 20D8     		bhi	.L62
 1227 0076 DFE802F0 		tbb	[pc, r2]
 1228              	.L64:
 1229 007a 8A       		.byte	(.L69-.L64)/2
 1230 007b 6D       		.byte	(.L68-.L64)/2
 1231 007c 1F       		.byte	(.L62-.L64)/2
 1232 007d 6D       		.byte	(.L68-.L64)/2
 1233 007e 1F       		.byte	(.L62-.L64)/2
 1234 007f B9       		.byte	(.L67-.L64)/2
 1235 0080 A7       		.byte	(.L66-.L64)/2
 1236 0081 1F       		.byte	(.L62-.L64)/2
 1237 0082 A1       		.byte	(.L65-.L64)/2
 1238 0083 90       		.byte	(.L63-.L64)/2
 1239              	.LVL76:
 1240              		.p2align 1
 1241              	.L107:
 1242              		.loc 1 102 3 is_stmt 0 view .LVU398
 1243              	.LBE236:
 1244              	.LBE235:
 1245              	.LBE234:
 1246              	.LBE233:
 1247              	.LBE232:
 1248              		.loc 1 698 5 is_stmt 1 view .LVU399
 1249              		.loc 1 698 8 is_stmt 0 view .LVU400
 1250 0084 EBB1     		cbz	r3, .L89
 1251              		.loc 1 700 7 is_stmt 1 view .LVU401
 1252 0086 A26E     		ldr	r2, [r4, #104]
 1253 0088 0021     		movs	r1, #0
 1254 008a 2046     		mov	r0, r4
ARM GAS  C:\msys64\tmp\ccKhEA16.s 			page 23


 1255 008c FFF7FEFF 		bl	usbStartTransmitI
 1256              	.LVL77:
 1257              		.loc 1 701 7 view .LVU402
 1258 0090 0123     		movs	r3, #1
 1259              		.loc 1 710 22 is_stmt 0 view .LVU403
 1260 0092 84F86430 		strb	r3, [r4, #100]
 1261              		.loc 1 727 3 is_stmt 1 view .LVU404
 1262              	.LBB260:
 1263              		.loc 2 524 20 view .LVU405
 1264              	.LBB229:
 1265              		.loc 2 526 3 view .LVU406
 1266              	.LBB226:
 1267              		.loc 3 434 20 view .LVU407
 1268              		.loc 3 436 31 view .LVU408
 1269              		.loc 3 437 33 view .LVU409
 1270              		.loc 3 438 3 view .LVU410
 1271              	.LBB223:
 1272              		.loc 4 654 20 view .LVU411
 1273              		.loc 4 656 3 view .LVU412
 1274              	.LBB220:
 1275              		.loc 4 628 20 view .LVU413
 1276              		.loc 4 631 3 view .LVU414
 1277              	.LVL78:
 1278              	.LBB217:
 1279              		.loc 5 546 57 view .LVU415
 1280              	.LBB214:
 1281              		.loc 5 548 3 view .LVU416
 1282 0096 0023     		movs	r3, #0
 1283              		.syntax unified
 1284              	@ 548 "ChibiOS/os/common/ext/CMSIS/include/core_cmFunc.h" 1
 1285 0098 83F31188 		MSR basepri, r3
 1286              	@ 0 "" 2
 1287              	.LVL79:
 1288              		.loc 5 548 3 is_stmt 0 view .LVU417
 1289              		.thumb
 1290              		.syntax unified
 1291              	.LBE214:
 1292              	.LBE217:
 1293              	.LBE220:
 1294              	.LBE223:
 1295              	.LBE226:
 1296              	.LBE229:
 1297              	.LBE260:
 1298              		.loc 1 728 1 view .LVU418
 1299 009c 38BD     		pop	{r3, r4, r5, pc}
 1300              	.LVL80:
 1301              	.L91:
 1302              		.loc 1 720 7 is_stmt 1 view .LVU419
 1303 009e 1A46     		mov	r2, r3
 1304 00a0 1946     		mov	r1, r3
 1305 00a2 2046     		mov	r0, r4
 1306 00a4 FFF7FEFF 		bl	usbStartTransmitI
 1307              	.LVL81:
 1308              		.loc 1 724 7 view .LVU420
 1309              		.loc 1 720 7 is_stmt 0 view .LVU421
 1310 00a8 0523     		movs	r3, #5
 1311              		.loc 1 710 22 view .LVU422
ARM GAS  C:\msys64\tmp\ccKhEA16.s 			page 24


 1312 00aa 84F86430 		strb	r3, [r4, #100]
 1313              		.loc 1 727 3 is_stmt 1 view .LVU423
 1314              	.LBB261:
 1315              		.loc 2 524 20 view .LVU424
 1316              	.LBB230:
 1317              		.loc 2 526 3 view .LVU425
 1318              	.LBB227:
 1319              		.loc 3 434 20 view .LVU426
 1320              		.loc 3 436 31 view .LVU427
 1321              		.loc 3 437 33 view .LVU428
 1322              		.loc 3 438 3 view .LVU429
 1323              	.LBB224:
 1324              		.loc 4 654 20 view .LVU430
 1325              		.loc 4 656 3 view .LVU431
 1326              	.LBB221:
 1327              		.loc 4 628 20 view .LVU432
 1328              		.loc 4 631 3 view .LVU433
 1329              	.LVL82:
 1330              	.LBB218:
 1331              		.loc 5 546 57 view .LVU434
 1332              	.LBB215:
 1333              		.loc 5 548 3 view .LVU435
 1334 00ae 0023     		movs	r3, #0
 1335              		.syntax unified
 1336              	@ 548 "ChibiOS/os/common/ext/CMSIS/include/core_cmFunc.h" 1
 1337 00b0 83F31188 		MSR basepri, r3
 1338              	@ 0 "" 2
 1339              	.LVL83:
 1340              		.loc 5 548 3 is_stmt 0 view .LVU436
 1341              		.thumb
 1342              		.syntax unified
 1343              	.LBE215:
 1344              	.LBE218:
 1345              	.LBE221:
 1346              	.LBE224:
 1347              	.LBE227:
 1348              	.LBE230:
 1349              	.LBE261:
 1350              		.loc 1 728 1 view .LVU437
 1351 00b4 38BD     		pop	{r3, r4, r5, pc}
 1352              	.LVL84:
 1353              	.L58:
 1354              	.LBB262:
 1355              	.LBB258:
 1356              	.LBB256:
 1357              		.loc 1 214 43 is_stmt 1 view .LVU438
 1358              	.LBB241:
 1359              	.LBI241:
 1360              		.loc 1 155 13 view .LVU439
 1361              	.LBB242:
 1362              		.loc 1 156 3 view .LVU440
 1363 00b6 AAB3     		cbz	r2, .L77
 1364              	.LVL85:
 1365              	.L62:
 1366              		.loc 1 156 3 is_stmt 0 view .LVU441
 1367              	.LBE242:
 1368              	.LBE241:
ARM GAS  C:\msys64\tmp\ccKhEA16.s 			page 25


 1369              	.LBE256:
 1370              	.LBE258:
 1371              	.LBE262:
 1372              		.loc 1 677 7 is_stmt 1 view .LVU442
 1373 00b8 2046     		mov	r0, r4
 1374              		.loc 1 728 1 is_stmt 0 view .LVU443
 1375 00ba BDE83840 		pop	{r3, r4, r5, lr}
 1376              		.cfi_remember_state
 1377              		.cfi_restore 14
 1378              		.cfi_restore 5
 1379              		.cfi_restore 4
 1380              		.cfi_restore 3
 1381              		.cfi_def_cfa_offset 0
 1382              	.LVL86:
 1383              		.loc 1 677 7 view .LVU444
 1384 00be FFF7FEBF 		b	_usb_ep0_error
 1385              	.LVL87:
 1386              	.L89:
 1387              		.cfi_restore_state
 1388              		.loc 1 706 7 is_stmt 1 view .LVU445
 1389 00c2 1A46     		mov	r2, r3
 1390 00c4 1946     		mov	r1, r3
 1391 00c6 2046     		mov	r0, r4
 1392 00c8 FFF7FEFF 		bl	usbStartReceiveI
 1393              	.LVL88:
 1394              		.loc 1 710 7 view .LVU446
 1395              		.loc 1 706 7 is_stmt 0 view .LVU447
 1396 00cc 0323     		movs	r3, #3
 1397              		.loc 1 710 22 view .LVU448
 1398 00ce 84F86430 		strb	r3, [r4, #100]
 1399              		.loc 1 727 3 is_stmt 1 view .LVU449
 1400              	.LBB263:
 1401              		.loc 2 524 20 view .LVU450
 1402              	.LBB231:
 1403              		.loc 2 526 3 view .LVU451
 1404              	.LBB228:
 1405              		.loc 3 434 20 view .LVU452
 1406              		.loc 3 436 31 view .LVU453
 1407              		.loc 3 437 33 view .LVU454
 1408              		.loc 3 438 3 view .LVU455
 1409              	.LBB225:
 1410              		.loc 4 654 20 view .LVU456
 1411              		.loc 4 656 3 view .LVU457
 1412              	.LBB222:
 1413              		.loc 4 628 20 view .LVU458
 1414              		.loc 4 631 3 view .LVU459
 1415              	.LVL89:
 1416              	.LBB219:
 1417              		.loc 5 546 57 view .LVU460
 1418              	.LBB216:
 1419              		.loc 5 548 3 view .LVU461
 1420 00d2 0023     		movs	r3, #0
 1421              		.syntax unified
 1422              	@ 548 "ChibiOS/os/common/ext/CMSIS/include/core_cmFunc.h" 1
 1423 00d4 83F31188 		MSR basepri, r3
 1424              	@ 0 "" 2
 1425              	.LVL90:
ARM GAS  C:\msys64\tmp\ccKhEA16.s 			page 26


 1426              		.loc 5 548 3 is_stmt 0 view .LVU462
 1427              		.thumb
 1428              		.syntax unified
 1429              	.LBE216:
 1430              	.LBE219:
 1431              	.LBE222:
 1432              	.LBE225:
 1433              	.LBE228:
 1434              	.LBE231:
 1435              	.LBE263:
 1436              		.loc 1 728 1 view .LVU463
 1437 00d8 38BD     		pop	{r3, r4, r5, pc}
 1438              	.LVL91:
 1439              	.L59:
 1440              	.LBB264:
 1441              	.LBB259:
 1442              	.LBB257:
 1443              		.loc 1 215 43 is_stmt 1 view .LVU464
 1444              	.LBB244:
 1445              	.LBI244:
 1446              		.loc 1 169 13 view .LVU465
 1447              	.LBB245:
 1448              		.loc 1 170 3 view .LVU466
 1449              		.loc 1 170 29 is_stmt 0 view .LVU467
 1450 00da B4F87830 		ldrh	r3, [r4, #120]
 1451              		.loc 1 170 12 view .LVU468
 1452 00de 03F00F01 		and	r1, r3, #15
 1453              	.LVL92:
 1454              		.loc 1 171 3 is_stmt 1 view .LVU469
 1455 00e2 03F08003 		and	r3, r3, #128
 1456              	.LVL93:
 1457              		.loc 1 172 3 view .LVU470
 1458 00e6 0C2A     		cmp	r2, #12
 1459 00e8 E6D8     		bhi	.L62
 1460 00ea 01A0     		adr	r0, .L78
 1461 00ec 50F822F0 		ldr	pc, [r0, r2, lsl #2]
 1462              		.p2align 2
 1463              	.L78:
 1464 00f0 73010000 		.word	.L80+1
 1465 00f4 31010000 		.word	.L79+1
 1466 00f8 B9000000 		.word	.L62+1
 1467 00fc 31010000 		.word	.L79+1
 1468 0100 B9000000 		.word	.L62+1
 1469 0104 B9000000 		.word	.L62+1
 1470 0108 B9000000 		.word	.L62+1
 1471 010c B9000000 		.word	.L62+1
 1472 0110 B9000000 		.word	.L62+1
 1473 0114 B9000000 		.word	.L62+1
 1474 0118 B9000000 		.word	.L62+1
 1475 011c B9000000 		.word	.L62+1
 1476 0120 25010000 		.word	.L77+1
 1477              	.LVL94:
 1478              		.p2align 1
 1479              	.L77:
 1480              		.loc 1 172 3 is_stmt 0 view .LVU471
 1481              	.LBE245:
 1482              	.LBE244:
ARM GAS  C:\msys64\tmp\ccKhEA16.s 			page 27


 1483              	.LBB249:
 1484              	.LBB243:
 1485              		.loc 1 159 5 is_stmt 1 view .LVU472
 1486 0124 3D4A     		ldr	r2, .L109
 1487              	.LVL95:
 1488              		.loc 1 159 5 is_stmt 0 view .LVU473
 1489 0126 0223     		movs	r3, #2
 1490 0128 C4E91A23 		strd	r2, r3, [r4, #104]
 1491              		.loc 1 159 5 is_stmt 1 view .LVU474
 1492              		.loc 1 159 60 view .LVU475
 1493              		.loc 1 160 5 view .LVU476
 1494              	.LVL96:
 1495              	.L70:
 1496              		.loc 1 160 5 is_stmt 0 view .LVU477
 1497              	.LBE243:
 1498              	.LBE249:
 1499              	.LBB250:
 1500              	.LBB238:
 1501              		.loc 1 147 59 discriminator 2 view .LVU478
 1502 012c 0222     		movs	r2, #2
 1503 012e 78E7     		b	.L74
 1504              	.LVL97:
 1505              	.L79:
 1506              		.loc 1 147 59 discriminator 2 view .LVU479
 1507              	.LBE238:
 1508              	.LBE250:
 1509              	.LBB251:
 1510              	.LBB246:
 1511              		.loc 1 192 5 is_stmt 1 view .LVU480
 1512              		.loc 1 192 8 is_stmt 0 view .LVU481
 1513 0130 B4F87600 		ldrh	r0, [r4, #118]
 1514 0134 0028     		cmp	r0, #0
 1515 0136 BFD1     		bne	.L62
 1516              		.loc 1 195 5 is_stmt 1 view .LVU482
 1517              		.loc 1 195 8 is_stmt 0 view .LVU483
 1518 0138 0029     		cmp	r1, #0
 1519 013a BDD0     		beq	.L62
 1520              		.loc 1 197 5 is_stmt 1 view .LVU484
 1521              		.loc 1 197 8 is_stmt 0 view .LVU485
 1522 013c 012A     		cmp	r2, #1
 1523              		.loc 1 179 23 discriminator 1 view .LVU486
 1524 013e C9B2     		uxtb	r1, r1
 1525              	.LVL98:
 1526              		.loc 1 197 57 discriminator 2 view .LVU487
 1527 0140 2046     		mov	r0, r4
 1528              		.loc 1 197 8 view .LVU488
 1529 0142 61D0     		beq	.L108
 1530              	.LVL99:
 1531              		.loc 1 198 44 is_stmt 1 view .LVU489
 1532              		.loc 1 198 47 is_stmt 0 view .LVU490
 1533 0144 002B     		cmp	r3, #0
 1534 0146 63D0     		beq	.L87
 1535              		.loc 1 198 57 is_stmt 1 discriminator 1 view .LVU491
 1536 0148 FFF7FEFF 		bl	usb_lld_stall_in
 1537              	.LVL100:
 1538              	.L72:
 1539              		.loc 1 198 57 is_stmt 0 discriminator 1 view .LVU492
ARM GAS  C:\msys64\tmp\ccKhEA16.s 			page 28


 1540              	.LBE246:
 1541              	.LBE251:
 1542              	.LBB252:
 1543              	.LBB239:
 1544              		.loc 1 113 9 is_stmt 1 view .LVU493
 1545 014c 0023     		movs	r3, #0
 1546 014e C4E91A33 		strd	r3, r3, [r4, #104]
 1547              		.loc 1 113 9 view .LVU494
 1548              		.loc 1 113 46 view .LVU495
 1549              		.loc 1 114 9 view .LVU496
 1550              	.LVL101:
 1551              		.loc 1 114 9 is_stmt 0 view .LVU497
 1552 0152 6BE7     		b	.L92
 1553              	.LVL102:
 1554              	.L68:
 1555              		.loc 1 109 7 is_stmt 1 view .LVU498
 1556              		.loc 1 109 10 is_stmt 0 view .LVU499
 1557 0154 B4F87630 		ldrh	r3, [r4, #118]
 1558 0158 012B     		cmp	r3, #1
 1559 015a ADD1     		bne	.L62
 1560              		.loc 1 110 9 is_stmt 1 view .LVU500
 1561              		.loc 1 110 13 is_stmt 0 view .LVU501
 1562 015c B4F87C30 		ldrh	r3, [r4, #124]
 1563              		.loc 1 111 9 is_stmt 1 view .LVU502
 1564              		.loc 1 111 12 is_stmt 0 view .LVU503
 1565 0160 032A     		cmp	r2, #3
 1566              		.loc 1 110 21 view .LVU504
 1567 0162 14BF     		ite	ne
 1568 0164 23F00203 		bicne	r3, r3, #2
 1569              		.loc 1 112 11 is_stmt 1 view .LVU505
 1570              		.loc 1 112 23 is_stmt 0 view .LVU506
 1571 0168 43F00203 		orreq	r3, r3, #2
 1572 016c A4F87C30 		strh	r3, [r4, #124]	@ movhi
 1573 0170 ECE7     		b	.L72
 1574              	.LVL103:
 1575              	.L80:
 1576              		.loc 1 112 23 view .LVU507
 1577              	.LBE239:
 1578              	.LBE252:
 1579              	.LBB253:
 1580              	.LBB247:
 1581              		.loc 1 179 5 is_stmt 1 view .LVU508
 1582              		.loc 1 179 23 is_stmt 0 discriminator 1 view .LVU509
 1583 0172 C9B2     		uxtb	r1, r1
 1584              	.LVL104:
 1585              		.loc 1 179 23 discriminator 1 view .LVU510
 1586 0174 2046     		mov	r0, r4
 1587              		.loc 1 179 55 view .LVU511
 1588 0176 002B     		cmp	r3, #0
 1589 0178 3ED0     		beq	.L81
 1590              	.LVL105:
 1591              		.loc 1 179 23 discriminator 1 view .LVU512
 1592 017a FFF7FEFF 		bl	usb_lld_get_status_in
 1593              	.LVL106:
 1594              	.L82:
 1595              		.loc 1 179 5 discriminator 4 view .LVU513
 1596 017e 0128     		cmp	r0, #1
ARM GAS  C:\msys64\tmp\ccKhEA16.s 			page 29


 1597 0180 3DD0     		beq	.L83
 1598 0182 0228     		cmp	r0, #2
 1599 0184 98D1     		bne	.L62
 1600              		.loc 1 183 30 is_stmt 1 view .LVU514
 1601 0186 264B     		ldr	r3, .L109+4
 1602 0188 C4E91A30 		strd	r3, r0, [r4, #104]
 1603              		.loc 1 183 30 view .LVU515
 1604              		.loc 1 183 87 view .LVU516
 1605              		.loc 1 184 9 view .LVU517
 1606              	.LVL107:
 1607              		.loc 1 184 9 is_stmt 0 view .LVU518
 1608 018c CEE7     		b	.L70
 1609              	.LVL108:
 1610              	.L69:
 1611              		.loc 1 184 9 view .LVU519
 1612              	.LBE247:
 1613              	.LBE253:
 1614              	.LBB254:
 1615              	.LBB240:
 1616              		.loc 1 104 7 is_stmt 1 view .LVU520
 1617 018e 04F17C02 		add	r2, r4, #124
 1618              	.LVL109:
 1619              		.loc 1 104 7 is_stmt 0 view .LVU521
 1620 0192 0223     		movs	r3, #2
 1621 0194 C4E91A23 		strd	r2, r3, [r4, #104]
 1622              		.loc 1 104 7 is_stmt 1 view .LVU522
 1623              		.loc 1 104 64 view .LVU523
 1624              		.loc 1 105 7 view .LVU524
 1625              	.LVL110:
 1626              		.loc 1 105 7 is_stmt 0 view .LVU525
 1627 0198 C8E7     		b	.L70
 1628              	.LVL111:
 1629              	.L63:
 1630              		.loc 1 146 7 is_stmt 1 view .LVU526
 1631              		.loc 1 146 27 is_stmt 0 view .LVU527
 1632 019a 94F87630 		ldrb	r3, [r4, #118]	@ zero_extendqisi2
 1633              		.loc 1 148 7 view .LVU528
 1634 019e 6268     		ldr	r2, [r4, #4]
 1635              	.LVL112:
 1636              		.loc 1 146 27 view .LVU529
 1637 01a0 84F87F30 		strb	r3, [r4, #127]
 1638              		.loc 1 147 7 is_stmt 1 view .LVU530
 1639              		.loc 1 147 59 is_stmt 0 discriminator 1 view .LVU531
 1640 01a4 002B     		cmp	r3, #0
 1641 01a6 0CBF     		ite	eq
 1642 01a8 0321     		moveq	r1, #3
 1643 01aa 0421     		movne	r1, #4
 1644              		.loc 1 147 19 discriminator 4 view .LVU532
 1645 01ac 2170     		strb	r1, [r4]
 1646              		.loc 1 148 7 is_stmt 1 view .LVU533
 1647 01ae 1368     		ldr	r3, [r2]
 1648 01b0 002B     		cmp	r3, #0
 1649 01b2 CBD0     		beq	.L72
 1650              		.loc 1 148 7 discriminator 1 view .LVU534
 1651 01b4 0221     		movs	r1, #2
 1652 01b6 2046     		mov	r0, r4
 1653 01b8 9847     		blx	r3
ARM GAS  C:\msys64\tmp\ccKhEA16.s 			page 30


 1654              	.LVL113:
 1655              		.loc 1 148 7 is_stmt 0 discriminator 1 view .LVU535
 1656 01ba C7E7     		b	.L72
 1657              	.LVL114:
 1658              	.L65:
 1659              		.loc 1 142 7 is_stmt 1 view .LVU536
 1660 01bc 0122     		movs	r2, #1
 1661              	.LVL115:
 1662              		.loc 1 142 7 is_stmt 0 view .LVU537
 1663 01be 04F17F03 		add	r3, r4, #127
 1664 01c2 C4E91A32 		strd	r3, r2, [r4, #104]
 1665              		.loc 1 142 7 is_stmt 1 view .LVU538
 1666              		.loc 1 142 60 view .LVU539
 1667              		.loc 1 143 7 view .LVU540
 1668              	.LVL116:
 1669              		.loc 1 143 7 is_stmt 0 view .LVU541
 1670 01c6 2CE7     		b	.L74
 1671              	.LVL117:
 1672              	.L66:
 1673              	.LBB237:
 1674              		.loc 1 130 9 is_stmt 1 view .LVU542
 1675              		.loc 1 131 53 is_stmt 0 view .LVU543
 1676 01c8 B4F87610 		ldrh	r1, [r4, #118]
 1677              		.loc 1 130 47 view .LVU544
 1678 01cc 6268     		ldr	r2, [r4, #4]
 1679              	.LVL118:
 1680              		.loc 1 130 35 view .LVU545
 1681 01ce B4F87830 		ldrh	r3, [r4, #120]
 1682 01d2 5568     		ldr	r5, [r2, #4]
 1683 01d4 2046     		mov	r0, r4
 1684 01d6 CAB2     		uxtb	r2, r1
 1685 01d8 090A     		lsrs	r1, r1, #8
 1686 01da A847     		blx	r5
 1687              	.LVL119:
 1688              		.loc 1 134 9 is_stmt 1 view .LVU546
 1689              		.loc 1 134 12 is_stmt 0 view .LVU547
 1690 01dc 0028     		cmp	r0, #0
 1691 01de 3FF46BAF 		beq	.L62
 1692              		.loc 1 135 9 is_stmt 1 view .LVU548
 1693 01e2 D0E90023 		ldrd	r2, r3, [r0]
 1694 01e6 C4E91A32 		strd	r3, r2, [r4, #104]
 1695              		.loc 1 135 9 view .LVU549
 1696              		.loc 1 135 76 view .LVU550
 1697              		.loc 1 136 9 view .LVU551
 1698              	.LVL120:
 1699              		.loc 1 136 9 is_stmt 0 view .LVU552
 1700 01ea 1AE7     		b	.L74
 1701              	.LVL121:
 1702              	.L67:
 1703              		.loc 1 136 9 view .LVU553
 1704              	.LBE237:
 1705              		.loc 1 124 7 is_stmt 1 view .LVU554
 1706              		.loc 1 124 7 is_stmt 0 discriminator 1 view .LVU555
 1707 01ec 0D4A     		ldr	r2, .L109+8
 1708              	.LVL122:
 1709              		.loc 1 124 7 discriminator 1 view .LVU556
 1710 01ee 2267     		str	r2, [r4, #112]
ARM GAS  C:\msys64\tmp\ccKhEA16.s 			page 31


 1711              		.loc 1 124 7 view .LVU557
 1712 01f0 0023     		movs	r3, #0
 1713 01f2 C4E91A33 		strd	r3, r3, [r4, #104]
 1714              		.loc 1 124 7 is_stmt 1 view .LVU558
 1715              		.loc 1 124 7 discriminator 1 view .LVU559
 1716              		.loc 1 124 51 view .LVU560
 1717              		.loc 1 126 7 view .LVU561
 1718              	.LVL123:
 1719              		.loc 1 126 7 is_stmt 0 view .LVU562
 1720 01f6 19E7     		b	.L92
 1721              	.LVL124:
 1722              	.L81:
 1723              		.loc 1 126 7 view .LVU563
 1724              	.LBE240:
 1725              	.LBE254:
 1726              	.LBB255:
 1727              	.LBB248:
 1728              		.loc 1 179 57 discriminator 2 view .LVU564
 1729 01f8 FFF7FEFF 		bl	usb_lld_get_status_out
 1730              	.LVL125:
 1731              		.loc 1 179 57 discriminator 2 view .LVU565
 1732 01fc BFE7     		b	.L82
 1733              	.L83:
 1734              		.loc 1 181 30 is_stmt 1 view .LVU566
 1735 01fe 0A4A     		ldr	r2, .L109+12
 1736 0200 0223     		movs	r3, #2
 1737 0202 C4E91A23 		strd	r2, r3, [r4, #104]
 1738              		.loc 1 181 30 view .LVU567
 1739              		.loc 1 181 87 view .LVU568
 1740              		.loc 1 182 9 view .LVU569
 1741              	.LVL126:
 1742              		.loc 1 182 9 is_stmt 0 view .LVU570
 1743 0206 91E7     		b	.L70
 1744              	.LVL127:
 1745              	.L108:
 1746              		.loc 1 197 44 is_stmt 1 discriminator 1 view .LVU571
 1747              		.loc 1 197 47 is_stmt 0 discriminator 1 view .LVU572
 1748 0208 2BB1     		cbz	r3, .L86
 1749              		.loc 1 197 57 is_stmt 1 discriminator 2 view .LVU573
 1750 020a FFF7FEFF 		bl	usb_lld_clear_in
 1751              	.LVL128:
 1752              		.loc 1 197 57 is_stmt 0 discriminator 2 view .LVU574
 1753 020e 9DE7     		b	.L72
 1754              	.LVL129:
 1755              	.L87:
 1756              		.loc 1 198 90 is_stmt 1 discriminator 2 view .LVU575
 1757 0210 FFF7FEFF 		bl	usb_lld_stall_out
 1758              	.LVL130:
 1759              		.loc 1 198 90 is_stmt 0 discriminator 2 view .LVU576
 1760 0214 9AE7     		b	.L72
 1761              	.LVL131:
 1762              	.L86:
 1763              		.loc 1 197 90 is_stmt 1 discriminator 3 view .LVU577
 1764 0216 FFF7FEFF 		bl	usb_lld_clear_out
 1765              	.LVL132:
 1766              		.loc 1 197 90 is_stmt 0 discriminator 3 view .LVU578
 1767 021a 97E7     		b	.L72
ARM GAS  C:\msys64\tmp\ccKhEA16.s 			page 32


 1768              	.L110:
 1769              		.align	2
 1770              	.L109:
 1771 021c 00000000 		.word	zero_status
 1772 0220 00000000 		.word	active_status
 1773 0224 00000000 		.word	set_address
 1774 0228 00000000 		.word	halted_status
 1775              	.LBE248:
 1776              	.LBE255:
 1777              	.LBE257:
 1778              	.LBE259:
 1779              	.LBE264:
 1780              		.cfi_endproc
 1781              	.LFE252:
 1782              		.size	_usb_ep0setup, .-_usb_ep0setup
 1783              		.section	.text._usb_ep0in,"ax",%progbits
 1784              		.align	1
 1785              		.p2align 4,,15
 1786              		.global	_usb_ep0in
 1787              		.syntax unified
 1788              		.thumb
 1789              		.thumb_func
 1790              		.type	_usb_ep0in, %function
 1791              	_usb_ep0in:
 1792              	.LVL133:
 1793              	.LFB253:
 1794              		.loc 1 740 46 is_stmt 1 view -0
 1795              		.cfi_startproc
 1796              		@ args = 0, pretend = 0, frame = 0
 1797              		@ frame_needed = 0, uses_anonymous_args = 0
 1798              		.loc 1 741 3 view .LVU580
 1799              		.loc 1 742 3 view .LVU581
 1800              		.loc 1 740 46 is_stmt 0 view .LVU582
 1801 0000 38B5     		push	{r3, r4, r5, lr}
 1802              		.cfi_def_cfa_offset 16
 1803              		.cfi_offset 3, -16
 1804              		.cfi_offset 4, -12
 1805              		.cfi_offset 5, -8
 1806              		.cfi_offset 14, -4
 1807              		.loc 1 742 3 view .LVU583
 1808 0002 90F86430 		ldrb	r3, [r0, #100]	@ zero_extendqisi2
 1809              		.loc 1 740 46 view .LVU584
 1810 0006 0446     		mov	r4, r0
 1811              		.loc 1 742 3 view .LVU585
 1812 0008 062B     		cmp	r3, #6
 1813 000a 19D8     		bhi	.L111
 1814 000c DFE803F0 		tbb	[pc, r3]
 1815              	.L114:
 1816 0010 19       		.byte	(.L113-.L114)/2
 1817 0011 04       		.byte	(.L117-.L114)/2
 1818 0012 09       		.byte	(.L116-.L114)/2
 1819 0013 19       		.byte	(.L113-.L114)/2
 1820 0014 19       		.byte	(.L113-.L114)/2
 1821 0015 1D       		.byte	(.L115-.L114)/2
 1822 0016 19       		.byte	(.L113-.L114)/2
 1823 0017 00       		.p2align 1
 1824              	.L117:
ARM GAS  C:\msys64\tmp\ccKhEA16.s 			page 33


 1825              		.loc 1 747 5 is_stmt 1 view .LVU586
 1826              		.loc 1 747 14 is_stmt 0 view .LVU587
 1827 0018 C56E     		ldr	r5, [r0, #108]
 1828              		.loc 1 747 34 view .LVU588
 1829 001a B0F87A20 		ldrh	r2, [r0, #122]
 1830              		.loc 1 747 8 view .LVU589
 1831 001e 9542     		cmp	r5, r2
 1832 0020 1AD3     		bcc	.L125
 1833              	.LVL134:
 1834              	.L116:
 1835              		.loc 1 755 5 is_stmt 1 view .LVU590
 1836              		.loc 1 759 5 view .LVU591
 1837              	.LBB265:
 1838              	.LBI265:
 1839              		.loc 2 513 20 view .LVU592
 1840              		.loc 2 515 3 view .LVU593
 1841              	.LBB266:
 1842              	.LBI266:
 1843              		.loc 3 414 20 view .LVU594
 1844              		.loc 3 416 3 view .LVU595
 1845              	.LBB267:
 1846              	.LBI267:
 1847              		.loc 4 643 20 view .LVU596
 1848              		.loc 4 645 3 view .LVU597
 1849              	.LBB268:
 1850              	.LBI268:
 1851              		.loc 4 604 20 view .LVU598
 1852              		.loc 4 612 3 view .LVU599
 1853              	.LBB269:
 1854              	.LBI269:
 1855              		.loc 5 546 57 view .LVU600
 1856              	.LBB270:
 1857              		.loc 5 548 3 view .LVU601
 1858 0022 2023     		movs	r3, #32
 1859              		.syntax unified
 1860              	@ 548 "ChibiOS/os/common/ext/CMSIS/include/core_cmFunc.h" 1
 1861 0024 83F31188 		MSR basepri, r3
 1862              	@ 0 "" 2
 1863              	.LVL135:
 1864              		.loc 5 548 3 is_stmt 0 view .LVU602
 1865              		.thumb
 1866              		.syntax unified
 1867              	.LBE270:
 1868              	.LBE269:
 1869              	.LBE268:
 1870              	.LBE267:
 1871              		.loc 3 417 34 is_stmt 1 view .LVU603
 1872              		.loc 3 418 29 view .LVU604
 1873              	.LBE266:
 1874              	.LBE265:
 1875              		.loc 1 760 5 view .LVU605
 1876 0028 0023     		movs	r3, #0
 1877 002a 1A46     		mov	r2, r3
 1878 002c 1946     		mov	r1, r3
 1879 002e 2046     		mov	r0, r4
 1880              	.LVL136:
 1881              		.loc 1 760 5 is_stmt 0 view .LVU606
ARM GAS  C:\msys64\tmp\ccKhEA16.s 			page 34


 1882 0030 FFF7FEFF 		bl	usbStartReceiveI
 1883              	.LVL137:
 1884              		.loc 1 761 5 is_stmt 1 view .LVU607
 1885              	.LBB271:
 1886              	.LBI271:
 1887              		.loc 2 524 20 view .LVU608
 1888              		.loc 2 526 3 view .LVU609
 1889              	.LBB272:
 1890              	.LBI272:
 1891              		.loc 3 434 20 view .LVU610
 1892              		.loc 3 436 31 view .LVU611
 1893              		.loc 3 437 33 view .LVU612
 1894              		.loc 3 438 3 view .LVU613
 1895              	.LBB273:
 1896              	.LBI273:
 1897              		.loc 4 654 20 view .LVU614
 1898              		.loc 4 656 3 view .LVU615
 1899              	.LBB274:
 1900              	.LBI274:
 1901              		.loc 4 628 20 view .LVU616
 1902              		.loc 4 631 3 view .LVU617
 1903              	.LBB275:
 1904              	.LBI275:
 1905              		.loc 5 546 57 view .LVU618
 1906              	.LBB276:
 1907              		.loc 5 548 3 view .LVU619
 1908 0034 0023     		movs	r3, #0
 1909              		.syntax unified
 1910              	@ 548 "ChibiOS/os/common/ext/CMSIS/include/core_cmFunc.h" 1
 1911 0036 83F31188 		MSR basepri, r3
 1912              	@ 0 "" 2
 1913              	.LVL138:
 1914              		.loc 5 548 3 is_stmt 0 view .LVU620
 1915              		.thumb
 1916              		.syntax unified
 1917              	.LBE276:
 1918              	.LBE275:
 1919              	.LBE274:
 1920              	.LBE273:
 1921              	.LBE272:
 1922              	.LBE271:
 1923              		.loc 1 766 5 is_stmt 1 view .LVU621
 1924              		.loc 1 766 20 is_stmt 0 view .LVU622
 1925 003a 0323     		movs	r3, #3
 1926 003c 84F86430 		strb	r3, [r4, #100]
 1927              		.loc 1 767 5 is_stmt 1 view .LVU623
 1928              	.L111:
 1929              		.loc 1 786 1 is_stmt 0 view .LVU624
 1930 0040 38BD     		pop	{r3, r4, r5, pc}
 1931              	.LVL139:
 1932              	.L113:
 1933              		.loc 1 778 5 is_stmt 1 view .LVU625
 1934              		.loc 1 779 5 view .LVU626
 1935              		.loc 1 781 5 view .LVU627
 1936              		.loc 1 786 1 is_stmt 0 view .LVU628
 1937 0042 BDE83840 		pop	{r3, r4, r5, lr}
 1938              		.cfi_remember_state
ARM GAS  C:\msys64\tmp\ccKhEA16.s 			page 35


 1939              		.cfi_restore 14
 1940              		.cfi_restore 5
 1941              		.cfi_restore 4
 1942              		.cfi_restore 3
 1943              		.cfi_def_cfa_offset 0
 1944              		.loc 1 781 5 view .LVU629
 1945 0046 FFF7FEBF 		b	_usb_ep0_error
 1946              	.LVL140:
 1947              	.L115:
 1948              		.cfi_restore_state
 1949              		.loc 1 770 5 is_stmt 1 view .LVU630
 1950              		.loc 1 770 13 is_stmt 0 view .LVU631
 1951 004a 036F     		ldr	r3, [r0, #112]
 1952              		.loc 1 770 8 view .LVU632
 1953 004c 03B1     		cbz	r3, .L118
 1954              		.loc 1 771 7 is_stmt 1 view .LVU633
 1955 004e 9847     		blx	r3
 1956              	.LVL141:
 1957              	.L118:
 1958              		.loc 1 772 5 view .LVU634
 1959              		.loc 1 772 20 is_stmt 0 view .LVU635
 1960 0050 0023     		movs	r3, #0
 1961 0052 84F86430 		strb	r3, [r4, #100]
 1962              		.loc 1 773 5 is_stmt 1 view .LVU636
 1963              		.loc 1 786 1 is_stmt 0 view .LVU637
 1964 0056 38BD     		pop	{r3, r4, r5, pc}
 1965              	.LVL142:
 1966              	.L125:
 1967              		.loc 1 748 36 view .LVU638
 1968 0058 C268     		ldr	r2, [r0, #12]
 1969 005a 128A     		ldrh	r2, [r2, #16]
 1970              		.loc 1 748 22 view .LVU639
 1971 005c B5FBF2F1 		udiv	r1, r5, r2
 1972              	.LVL143:
 1973              		.loc 1 748 22 view .LVU640
 1974 0060 02FB1155 		mls	r5, r2, r1, r5
 1975              		.loc 1 747 44 discriminator 1 view .LVU641
 1976 0064 002D     		cmp	r5, #0
 1977 0066 DCD1     		bne	.L116
 1978              		.loc 1 749 7 is_stmt 1 view .LVU642
 1979              	.LBB277:
 1980              	.LBI277:
 1981              		.loc 2 513 20 view .LVU643
 1982              		.loc 2 515 3 view .LVU644
 1983              	.LBB278:
 1984              	.LBI278:
 1985              		.loc 3 414 20 view .LVU645
 1986              		.loc 3 416 3 view .LVU646
 1987              	.LBB279:
 1988              	.LBI279:
 1989              		.loc 4 643 20 view .LVU647
 1990              		.loc 4 645 3 view .LVU648
 1991              	.LBB280:
 1992              	.LBI280:
 1993              		.loc 4 604 20 view .LVU649
 1994              		.loc 4 612 3 view .LVU650
 1995              	.LVL144:
ARM GAS  C:\msys64\tmp\ccKhEA16.s 			page 36


 1996              	.LBB281:
 1997              	.LBI281:
 1998              		.loc 5 546 57 view .LVU651
 1999              	.LBB282:
 2000              		.loc 5 548 3 view .LVU652
 2001 0068 2023     		movs	r3, #32
 2002              		.syntax unified
 2003              	@ 548 "ChibiOS/os/common/ext/CMSIS/include/core_cmFunc.h" 1
 2004 006a 83F31188 		MSR basepri, r3
 2005              	@ 0 "" 2
 2006              	.LVL145:
 2007              		.loc 5 548 3 is_stmt 0 view .LVU653
 2008              		.thumb
 2009              		.syntax unified
 2010              	.LBE282:
 2011              	.LBE281:
 2012              	.LBE280:
 2013              	.LBE279:
 2014              		.loc 3 417 34 is_stmt 1 view .LVU654
 2015              		.loc 3 418 29 view .LVU655
 2016              	.LBE278:
 2017              	.LBE277:
 2018              		.loc 1 750 7 view .LVU656
 2019 006e 2B46     		mov	r3, r5
 2020 0070 2A46     		mov	r2, r5
 2021 0072 2946     		mov	r1, r5
 2022 0074 FFF7FEFF 		bl	usbStartTransmitI
 2023              	.LVL146:
 2024              		.loc 1 751 7 view .LVU657
 2025              	.LBB283:
 2026              	.LBI283:
 2027              		.loc 2 524 20 view .LVU658
 2028              		.loc 2 526 3 view .LVU659
 2029              	.LBB284:
 2030              	.LBI284:
 2031              		.loc 3 434 20 view .LVU660
 2032              		.loc 3 436 31 view .LVU661
 2033              		.loc 3 437 33 view .LVU662
 2034              		.loc 3 438 3 view .LVU663
 2035              	.LBB285:
 2036              	.LBI285:
 2037              		.loc 4 654 20 view .LVU664
 2038              		.loc 4 656 3 view .LVU665
 2039              	.LBB286:
 2040              	.LBI286:
 2041              		.loc 4 628 20 view .LVU666
 2042              		.loc 4 631 3 view .LVU667
 2043              	.LBB287:
 2044              	.LBI287:
 2045              		.loc 5 546 57 view .LVU668
 2046              	.LBB288:
 2047              		.loc 5 548 3 view .LVU669
 2048              		.syntax unified
 2049              	@ 548 "ChibiOS/os/common/ext/CMSIS/include/core_cmFunc.h" 1
 2050 0078 85F31188 		MSR basepri, r5
 2051              	@ 0 "" 2
 2052              	.LVL147:
ARM GAS  C:\msys64\tmp\ccKhEA16.s 			page 37


 2053              		.loc 5 548 3 is_stmt 0 view .LVU670
 2054              		.thumb
 2055              		.syntax unified
 2056              	.LBE288:
 2057              	.LBE287:
 2058              	.LBE286:
 2059              	.LBE285:
 2060              	.LBE284:
 2061              	.LBE283:
 2062              		.loc 1 752 7 is_stmt 1 view .LVU671
 2063              		.loc 1 752 22 is_stmt 0 view .LVU672
 2064 007c 0223     		movs	r3, #2
 2065 007e 84F86430 		strb	r3, [r4, #100]
 2066              		.loc 1 753 7 is_stmt 1 view .LVU673
 2067              		.loc 1 786 1 is_stmt 0 view .LVU674
 2068 0082 38BD     		pop	{r3, r4, r5, pc}
 2069              		.loc 1 786 1 view .LVU675
 2070              		.cfi_endproc
 2071              	.LFE253:
 2072              		.size	_usb_ep0in, .-_usb_ep0in
 2073              		.section	.text._usb_ep0out,"ax",%progbits
 2074              		.align	1
 2075              		.p2align 4,,15
 2076              		.global	_usb_ep0out
 2077              		.syntax unified
 2078              		.thumb
 2079              		.thumb_func
 2080              		.type	_usb_ep0out, %function
 2081              	_usb_ep0out:
 2082              	.LVL148:
 2083              	.LFB254:
 2084              		.loc 1 798 47 is_stmt 1 view -0
 2085              		.cfi_startproc
 2086              		@ args = 0, pretend = 0, frame = 0
 2087              		@ frame_needed = 0, uses_anonymous_args = 0
 2088              		.loc 1 799 3 view .LVU677
 2089              		.loc 1 800 3 view .LVU678
 2090 0000 90F86430 		ldrb	r3, [r0, #100]	@ zero_extendqisi2
 2091              		.loc 1 798 47 is_stmt 0 view .LVU679
 2092 0004 10B5     		push	{r4, lr}
 2093              		.cfi_def_cfa_offset 8
 2094              		.cfi_offset 4, -8
 2095              		.cfi_offset 14, -4
 2096              		.loc 1 798 47 view .LVU680
 2097 0006 0446     		mov	r4, r0
 2098              		.loc 1 800 3 view .LVU681
 2099 0008 062B     		cmp	r3, #6
 2100 000a 13D8     		bhi	.L126
 2101 000c DFE803F0 		tbb	[pc, r3]
 2102              	.L129:
 2103 0010 13       		.byte	(.L128-.L129)/2
 2104 0011 13       		.byte	(.L128-.L129)/2
 2105 0012 13       		.byte	(.L128-.L129)/2
 2106 0013 17       		.byte	(.L131-.L129)/2
 2107 0014 04       		.byte	(.L130-.L129)/2
 2108 0015 13       		.byte	(.L128-.L129)/2
 2109 0016 13       		.byte	(.L128-.L129)/2
ARM GAS  C:\msys64\tmp\ccKhEA16.s 			page 38


 2110 0017 00       		.p2align 1
 2111              	.L130:
 2112              		.loc 1 804 5 is_stmt 1 view .LVU682
 2113              	.LBB289:
 2114              	.LBI289:
 2115              		.loc 2 513 20 view .LVU683
 2116              		.loc 2 515 3 view .LVU684
 2117              	.LBB290:
 2118              	.LBI290:
 2119              		.loc 3 414 20 view .LVU685
 2120              		.loc 3 416 3 view .LVU686
 2121              	.LBB291:
 2122              	.LBI291:
 2123              		.loc 4 643 20 view .LVU687
 2124              		.loc 4 645 3 view .LVU688
 2125              	.LBB292:
 2126              	.LBI292:
 2127              		.loc 4 604 20 view .LVU689
 2128              		.loc 4 612 3 view .LVU690
 2129              	.LVL149:
 2130              	.LBB293:
 2131              	.LBI293:
 2132              		.loc 5 546 57 view .LVU691
 2133              	.LBB294:
 2134              		.loc 5 548 3 view .LVU692
 2135 0018 2023     		movs	r3, #32
 2136              		.syntax unified
 2137              	@ 548 "ChibiOS/os/common/ext/CMSIS/include/core_cmFunc.h" 1
 2138 001a 83F31188 		MSR basepri, r3
 2139              	@ 0 "" 2
 2140              	.LVL150:
 2141              		.loc 5 548 3 is_stmt 0 view .LVU693
 2142              		.thumb
 2143              		.syntax unified
 2144              	.LBE294:
 2145              	.LBE293:
 2146              	.LBE292:
 2147              	.LBE291:
 2148              		.loc 3 417 34 is_stmt 1 view .LVU694
 2149              		.loc 3 418 29 view .LVU695
 2150              	.LBE290:
 2151              	.LBE289:
 2152              		.loc 1 805 5 view .LVU696
 2153 001e 0023     		movs	r3, #0
 2154 0020 1A46     		mov	r2, r3
 2155 0022 1946     		mov	r1, r3
 2156              	.LVL151:
 2157              		.loc 1 805 5 is_stmt 0 view .LVU697
 2158 0024 FFF7FEFF 		bl	usbStartTransmitI
 2159              	.LVL152:
 2160              		.loc 1 806 5 is_stmt 1 view .LVU698
 2161              	.LBB295:
 2162              	.LBI295:
 2163              		.loc 2 524 20 view .LVU699
 2164              		.loc 2 526 3 view .LVU700
 2165              	.LBB296:
 2166              	.LBI296:
ARM GAS  C:\msys64\tmp\ccKhEA16.s 			page 39


 2167              		.loc 3 434 20 view .LVU701
 2168              		.loc 3 436 31 view .LVU702
 2169              		.loc 3 437 33 view .LVU703
 2170              		.loc 3 438 3 view .LVU704
 2171              	.LBB297:
 2172              	.LBI297:
 2173              		.loc 4 654 20 view .LVU705
 2174              		.loc 4 656 3 view .LVU706
 2175              	.LBB298:
 2176              	.LBI298:
 2177              		.loc 4 628 20 view .LVU707
 2178              		.loc 4 631 3 view .LVU708
 2179              	.LBB299:
 2180              	.LBI299:
 2181              		.loc 5 546 57 view .LVU709
 2182              	.LBB300:
 2183              		.loc 5 548 3 view .LVU710
 2184 0028 0023     		movs	r3, #0
 2185              		.syntax unified
 2186              	@ 548 "ChibiOS/os/common/ext/CMSIS/include/core_cmFunc.h" 1
 2187 002a 83F31188 		MSR basepri, r3
 2188              	@ 0 "" 2
 2189              	.LVL153:
 2190              		.loc 5 548 3 is_stmt 0 view .LVU711
 2191              		.thumb
 2192              		.syntax unified
 2193              	.LBE300:
 2194              	.LBE299:
 2195              	.LBE298:
 2196              	.LBE297:
 2197              	.LBE296:
 2198              	.LBE295:
 2199              		.loc 1 811 5 is_stmt 1 view .LVU712
 2200              		.loc 1 811 20 is_stmt 0 view .LVU713
 2201 002e 0523     		movs	r3, #5
 2202 0030 84F86430 		strb	r3, [r4, #100]
 2203              		.loc 1 812 5 is_stmt 1 view .LVU714
 2204              	.L126:
 2205              		.loc 1 837 1 is_stmt 0 view .LVU715
 2206 0034 10BD     		pop	{r4, pc}
 2207              	.LVL154:
 2208              	.L128:
 2209              		.loc 1 829 5 is_stmt 1 view .LVU716
 2210              		.loc 1 830 5 view .LVU717
 2211              		.loc 1 832 5 view .LVU718
 2212              		.loc 1 837 1 is_stmt 0 view .LVU719
 2213 0036 BDE81040 		pop	{r4, lr}
 2214              		.cfi_remember_state
 2215              		.cfi_restore 14
 2216              		.cfi_restore 4
 2217              		.cfi_def_cfa_offset 0
 2218              		.loc 1 832 5 view .LVU720
 2219 003a FFF7FEBF 		b	_usb_ep0_error
 2220              	.LVL155:
 2221              	.L131:
 2222              		.cfi_restore_state
 2223              		.loc 1 816 5 is_stmt 1 view .LVU721
ARM GAS  C:\msys64\tmp\ccKhEA16.s 			page 40


 2224              		.loc 1 816 9 is_stmt 0 view .LVU722
 2225 003e C368     		ldr	r3, [r0, #12]
 2226 0040 9B69     		ldr	r3, [r3, #24]
 2227              		.loc 1 816 8 view .LVU723
 2228 0042 5B68     		ldr	r3, [r3, #4]
 2229 0044 002B     		cmp	r3, #0
 2230 0046 F5D1     		bne	.L126
 2231              		.loc 1 820 5 is_stmt 1 view .LVU724
 2232              		.loc 1 820 13 is_stmt 0 view .LVU725
 2233 0048 036F     		ldr	r3, [r0, #112]
 2234              		.loc 1 820 8 view .LVU726
 2235 004a 03B1     		cbz	r3, .L132
 2236              		.loc 1 821 7 is_stmt 1 view .LVU727
 2237 004c 9847     		blx	r3
 2238              	.LVL156:
 2239              	.L132:
 2240              		.loc 1 822 5 view .LVU728
 2241              		.loc 1 822 20 is_stmt 0 view .LVU729
 2242 004e 0023     		movs	r3, #0
 2243 0050 84F86430 		strb	r3, [r4, #100]
 2244              		.loc 1 823 5 is_stmt 1 view .LVU730
 2245              		.loc 1 837 1 is_stmt 0 view .LVU731
 2246 0054 10BD     		pop	{r4, pc}
 2247              		.loc 1 837 1 view .LVU732
 2248              		.cfi_endproc
 2249              	.LFE254:
 2250              		.size	_usb_ep0out, .-_usb_ep0out
 2251 0056 00BF     		.section	.rodata.halted_status,"a"
 2252              		.align	2
 2253              		.type	halted_status, %object
 2254              		.size	halted_status, 2
 2255              	halted_status:
 2256 0000 0100     		.ascii	"\001\000"
 2257              		.section	.rodata.active_status,"a"
 2258              		.align	2
 2259              		.type	active_status, %object
 2260              		.size	active_status, 2
 2261              	active_status:
 2262 0000 0000     		.space	2
 2263              		.section	.rodata.zero_status,"a"
 2264              		.align	2
 2265              		.type	zero_status, %object
 2266              		.size	zero_status, 2
 2267              	zero_status:
 2268 0000 0000     		.space	2
 2269              		.text
 2270              	.Letext0:
 2271              		.file 6 "C:/Program Files (x86)/Arm GNU Toolchain arm-none-eabi/14.3 rel1/lib/gcc/arm-none-eabi/14
 2272              		.file 7 "C:/Program Files (x86)/Arm GNU Toolchain arm-none-eabi/14.3 rel1/arm-none-eabi/include/ma
 2273              		.file 8 "C:/Program Files (x86)/Arm GNU Toolchain arm-none-eabi/14.3 rel1/arm-none-eabi/include/sy
 2274              		.file 9 "ChibiOS/os/common/ports/ARMCMx/compilers/GCC/chtypes.h"
 2275              		.file 10 "ChibiOS/os/rt/include/chsystypes.h"
 2276              		.file 11 "ChibiOS/os/rt/include/chschd.h"
 2277              		.file 12 "ChibiOS/os/common/ports/ARMCMx/chcore.h"
 2278              		.file 13 "ChibiOS/os/hal/include/hal_usb.h"
 2279              		.file 14 "ChibiOS/os/hal/ports/STM32/LLD/USBv1/hal_usb_lld.h"
 2280              		.file 15 "C:/Program Files (x86)/Arm GNU Toolchain arm-none-eabi/14.3 rel1/arm-none-eabi/include/s
ARM GAS  C:\msys64\tmp\ccKhEA16.s 			page 41


 2281              		.file 16 "<built-in>"