ARM GAS  C:\msys64\tmp\ccb7DTfv.s 			page 1


   1              		.cpu cortex-m4
   2              		.arch armv7e-m
   3              		.fpu fpv4-sp-d16
   4              		.eabi_attribute 27, 1
   5              		.eabi_attribute 28, 1
   6              		.eabi_attribute 23, 1
   7              		.eabi_attribute 24, 1
   8              		.eabi_attribute 25, 1
   9              		.eabi_attribute 26, 1
  10              		.eabi_attribute 30, 2
  11              		.eabi_attribute 34, 1
  12              		.eabi_attribute 18, 4
  13              		.file	"main.c"
  14              		.text
  15              	.Ltext0:
  16              		.cfi_sections	.debug_frame
  17              		.file 1 "main.c"
  18              		.section	.text.getSWRfromIndex,"ax",%progbits
  19              		.align	1
  20              		.p2align 4,,15
  21              		.syntax unified
  22              		.thumb
  23              		.thumb_func
  24              		.type	getSWRfromIndex, %function
  25              	getSWRfromIndex:
  26              	.LVL0:
  27              	.LFB243:
  28              		.loc 1 471 1 view -0
  29              		.cfi_startproc
  30              		@ args = 0, pretend = 0, frame = 0
  31              		@ frame_needed = 0, uses_anonymous_args = 0
  32              		@ link register save eliminated.
  33              		.loc 1 472 3 view .LVU1
  34              		.loc 1 472 12 is_stmt 0 view .LVU2
  35 0000 144B     		ldr	r3, .L7
  36              		.loc 1 472 6 view .LVU3
  37 0002 5B8B     		ldrh	r3, [r3, #26]
  38 0004 8342     		cmp	r3, r0
  39 0006 21D9     		bls	.L5
  40              		.loc 1 475 3 is_stmt 1 view .LVU4
  41              		.loc 1 475 9 is_stmt 0 view .LVU5
  42 0008 134B     		ldr	r3, .L7+4
  43 000a 03EBC003 		add	r3, r3, r0, lsl #3
  44              		.loc 1 476 9 view .LVU6
  45 000e D3ED017A 		vldr.32	s15, [r3, #4]
  46              		.loc 1 475 9 view .LVU7
  47 0012 93ED007A 		vldr.32	s14, [r3]
  48              	.LVL1:
  49              		.loc 1 476 3 is_stmt 1 view .LVU8
  50              		.loc 1 477 3 view .LVU9
  51              		.loc 1 477 29 is_stmt 0 view .LVU10
  52 0016 67EEA77A 		vmul.f32	s15, s15, s15
  53              	.LVL2:
  54              		.loc 1 477 9 view .LVU11
  55 001a E7EE077A 		vfma.f32	s15, s14, s14
  56              	.LVL3:
  57              		.loc 1 479 3 is_stmt 1 view .LVU12
ARM GAS  C:\msys64\tmp\ccb7DTfv.s 			page 2


  58              		.loc 1 479 6 is_stmt 0 view .LVU13
  59 001e F5EEC07A 		vcmpe.f32	s15, #0
  60 0022 F1EE10FA 		vmrs	APSR_nzcv, FPSCR
  61 0026 11D9     		bls	.L5
  62              		.loc 1 482 3 is_stmt 1 view .LVU14
  63              	.LVL4:
  64              	.LBB162:
  65              	.LBI162:
  66              		.file 2 "vna_math.h"
  67              		.loc 2 37 54 view .LVU15
  68              	.LBB163:
  69              		.loc 2 37 73 view .LVU16
  70              		.syntax unified
  71              	@ 37 "vna_math.h" 1
  72 0028 F1EEE77A 		vsqrt.f32 s15, s15
  73              	@ 0 "" 2
  74              	.LVL5:
  75              		.loc 2 37 122 view .LVU17
  76              		.loc 2 37 122 is_stmt 0 view .LVU18
  77              		.thumb
  78              		.syntax unified
  79              	.LBE163:
  80              	.LBE162:
  81              		.loc 1 484 3 is_stmt 1 view .LVU19
  82              		.loc 1 484 6 is_stmt 0 view .LVU20
  83 002c 9FED0B7A 		vldr.32	s14, .L7+8
  84              	.LVL6:
  85              		.loc 1 484 6 view .LVU21
  86 0030 F4EEC77A 		vcmpe.f32	s15, s14
  87 0034 F1EE10FA 		vmrs	APSR_nzcv, FPSCR
  88 0038 08DA     		bge	.L5
  89              		.loc 1 487 3 is_stmt 1 view .LVU22
  90              		.loc 1 487 16 is_stmt 0 view .LVU23
  91 003a B7EE007A 		vmov.f32	s14, #1.0e+0
  92 003e 77EE876A 		vadd.f32	s13, s15, s14
  93              		.loc 1 487 31 view .LVU24
  94 0042 37EE677A 		vsub.f32	s14, s14, s15
  95              		.loc 1 487 23 view .LVU25
  96 0046 86EE870A 		vdiv.f32	s0, s13, s14
  97 004a 7047     		bx	lr
  98              	.LVL7:
  99              	.L5:
 100              		.loc 1 473 12 view .LVU26
 101 004c 9FED040A 		vldr.32	s0, .L7+12
 102              		.loc 1 488 1 view .LVU27
 103 0050 7047     		bx	lr
 104              	.L8:
 105 0052 00BF     		.align	2
 106              	.L7:
 107 0054 00000000 		.word	current_props
 108 0058 00000000 		.word	measured
 109 005c 72F97F3F 		.word	1065351538
 110 0060 003C1C46 		.word	1176255488
 111              		.cfi_endproc
 112              	.LFE243:
 113              		.size	getSWRfromIndex, .-getSWRfromIndex
 114              		.section	.text.shell_write,"ax",%progbits
ARM GAS  C:\msys64\tmp\ccb7DTfv.s 			page 3


 115              		.align	1
 116              		.p2align 4,,15
 117              		.syntax unified
 118              		.thumb
 119              		.thumb_func
 120              		.type	shell_write, %function
 121              	shell_write:
 122              	.LVL8:
 123              	.LFB270:
 124              		.loc 1 2750 57 is_stmt 1 view -0
 125              		.cfi_startproc
 126              		@ args = 0, pretend = 0, frame = 0
 127              		@ frame_needed = 0, uses_anonymous_args = 0
 128              		@ link register save eliminated.
 129              		.loc 1 2750 59 view .LVU29
 130 0000 054B     		ldr	r3, .L11
 131 0002 1B68     		ldr	r3, [r3]
 132              		.loc 1 2750 57 is_stmt 0 view .LVU30
 133 0004 10B4     		push	{r4}
 134              		.cfi_def_cfa_offset 4
 135              		.cfi_offset 4, -4
 136              		.loc 1 2750 59 view .LVU31
 137 0006 1C68     		ldr	r4, [r3]
 138 0008 2468     		ldr	r4, [r4]
 139              		.loc 1 2750 57 view .LVU32
 140 000a 0A46     		mov	r2, r1
 141              		.loc 1 2750 59 view .LVU33
 142 000c 0146     		mov	r1, r0
 143              	.LVL9:
 144              		.loc 1 2750 59 view .LVU34
 145 000e 1846     		mov	r0, r3
 146              	.LVL10:
 147              		.loc 1 2750 59 view .LVU35
 148 0010 2346     		mov	r3, r4
 149              		.loc 1 2750 97 view .LVU36
 150 0012 5DF8044B 		ldr	r4, [sp], #4
 151              		.cfi_restore 4
 152              		.cfi_def_cfa_offset 0
 153              		.loc 1 2750 59 view .LVU37
 154 0016 1847     		bx	r3
 155              	.LVL11:
 156              	.L12:
 157              		.loc 1 2750 59 view .LVU38
 158              		.align	2
 159              	.L11:
 160 0018 00000000 		.word	shell_stream
 161              		.cfi_endproc
 162              	.LFE270:
 163              		.size	shell_write, .-shell_write
 164              		.section	.text.cmd_reson,"ax",%progbits
 165              		.align	1
 166              		.p2align 4,,15
 167              		.syntax unified
 168              		.thumb
 169              		.thumb_func
 170              		.type	cmd_reson, %function
 171              	cmd_reson:
ARM GAS  C:\msys64\tmp\ccb7DTfv.s 			page 4


 172              	.LVL12:
 173              	.LFB272:
 174              		.loc 1 2757 1 is_stmt 1 view -0
 175              		.cfi_startproc
 176              		@ args = 0, pretend = 0, frame = 0
 177              		@ frame_needed = 0, uses_anonymous_args = 0
 178              		@ link register save eliminated.
 179              		.loc 1 2758 3 view .LVU40
 180              		.loc 1 2759 3 view .LVU41
 181              		.loc 1 2761 3 view .LVU42
 182              		.loc 1 2767 3 view .LVU43
 183              		.loc 1 2770 1 is_stmt 0 view .LVU44
 184 0000 7047     		bx	lr
 185              		.cfi_endproc
 186              	.LFE272:
 187              		.size	cmd_reson, .-cmd_reson
 188 0002 00BF     		.section	.text.eterm_calc_er,"ax",%progbits
 189              		.align	1
 190              		.p2align 4,,15
 191              		.syntax unified
 192              		.thumb
 193              		.thumb_func
 194              		.type	eterm_calc_er, %function
 195              	eterm_calc_er:
 196              	.LVL13:
 197              	.LFB322:
 198              		.loc 1 4129 1 is_stmt 1 view -0
 199              		.cfi_startproc
 200              		@ args = 0, pretend = 0, frame = 0
 201              		@ frame_needed = 0, uses_anonymous_args = 0
 202              		@ link register save eliminated.
 203              		.loc 1 4130 3 view .LVU46
 204              		.loc 1 4131 3 view .LVU47
 205              		.loc 1 4131 17 discriminator 1 view .LVU48
 206              		.loc 1 4129 1 is_stmt 0 view .LVU49
 207 0000 10B4     		push	{r4}
 208              		.cfi_def_cfa_offset 4
 209              		.cfi_offset 4, -4
 210              		.loc 1 4131 19 discriminator 1 view .LVU50
 211 0002 274C     		ldr	r4, .L24
 212 0004 638B     		ldrh	r3, [r4, #26]
 213              		.loc 1 4131 17 discriminator 1 view .LVU51
 214 0006 002B     		cmp	r3, #0
 215 0008 41D0     		beq	.L15
 216 000a 04EBC30C 		add	ip, r4, r3, lsl #3
 217 000e 2246     		mov	r2, r4
 218 0010 04F65851 		addw	r1, r4, #3416
 219 0014 B7EE003A 		vmov.f32	s6, #1.0e+0
 220 0018 04F5CF53 		add	r3, r4, #6624
 221              	.LVL14:
 222              	.L18:
 223              	.LBB164:
 224              		.loc 1 4134 5 is_stmt 1 view .LVU52
 225              		.loc 1 4140 7 view .LVU53
 226              		.loc 1 4135 68 is_stmt 0 view .LVU54
 227 001c D2ED354A 		vldr.32	s9, [r2, #212]
 228              		.loc 1 4134 68 view .LVU55
ARM GAS  C:\msys64\tmp\ccb7DTfv.s 			page 5


 229 0020 92ED344A 		vldr.32	s8, [r2, #208]
 230              		.loc 1 4134 41 view .LVU56
 231 0024 D3ED005A 		vldr.32	s11, [r3]
 232              		.loc 1 4135 41 view .LVU57
 233 0028 D3ED017A 		vldr.32	s15, [r3, #4]
 234              		.loc 1 4137 11 view .LVU58
 235 002c 91ED016A 		vldr.32	s12, [r1, #4]
 236              	.LVL15:
 237              		.loc 1 4136 11 view .LVU59
 238 0030 91ED005A 		vldr.32	s10, [r1]
 239              	.LVL16:
 240              		.loc 1 4143 5 is_stmt 1 view .LVU60
 241              		.loc 1 4141 7 view .LVU61
 242              		.loc 1 4143 5 view .LVU62
 243              		.loc 1 4144 35 is_stmt 0 view .LVU63
 244 0034 74EEE76A 		vsub.f32	s13, s9, s15
 245              		.loc 1 4145 35 view .LVU64
 246 0038 34EE657A 		vsub.f32	s14, s8, s11
 247              		.loc 1 4134 11 view .LVU65
 248 003c 75EEC45A 		vsub.f32	s11, s11, s8
 249              		.loc 1 4135 11 view .LVU66
 250 0040 77EEE47A 		vsub.f32	s15, s15, s9
 251              		.loc 1 4144 11 view .LVU67
 252 0044 66EE666A 		vnmul.f32	s13, s12, s13
 253              		.loc 1 4143 9 view .LVU68
 254 0048 75EE033A 		vadd.f32	s7, s10, s6
 255              	.LVL17:
 256              		.loc 1 4144 5 is_stmt 1 view .LVU69
 257              		.loc 1 4145 35 is_stmt 0 view .LVU70
 258 004c 27EE067A 		vmul.f32	s14, s14, s12
 259 0050 33EE455A 		vsub.f32	s10, s6, s10
 260              	.LVL18:
 261              		.loc 1 4144 5 is_stmt 1 view .LVU71
 262              		.loc 1 4135 5 view .LVU72
 263              		.loc 1 4136 5 view .LVU73
 264              		.loc 1 4137 5 view .LVU74
 265              		.loc 1 4138 5 view .LVU75
 266              		.loc 1 4145 35 is_stmt 0 view .LVU76
 267 0054 65EE864A 		vmul.f32	s9, s11, s12
 268              		.loc 1 4138 8 view .LVU77
 269 0058 0128     		cmp	r0, #1
 270              		.loc 1 4145 11 view .LVU78
 271 005a E7EEA34A 		vfma.f32	s9, s15, s7
 272              		.loc 1 4144 11 view .LVU79
 273 005e E5EE856A 		vfma.f32	s13, s11, s10
 274              		.loc 1 4145 11 view .LVU80
 275 0062 A7EE857A 		vfma.f32	s14, s15, s10
 276              		.loc 1 4144 35 view .LVU81
 277 0066 27EE866A 		vmul.f32	s12, s15, s12
 278              	.LVL19:
 279              		.loc 1 4145 5 is_stmt 1 view .LVU82
 280              		.loc 1 4146 5 view .LVU83
 281              		.loc 1 4148 7 view .LVU84
 282              		.loc 1 4145 5 view .LVU85
 283              		.loc 1 4146 5 view .LVU86
 284              		.loc 1 4138 8 is_stmt 0 view .LVU87
 285 006a 05D0     		beq	.L17
ARM GAS  C:\msys64\tmp\ccb7DTfv.s 			page 6


 286              		.loc 1 4148 11 view .LVU88
 287 006c F0EE466A 		vmov.f32	s13, s12
 288              	.LVL20:
 289              		.loc 1 4148 11 view .LVU89
 290 0070 E5EEE36A 		vfms.f32	s13, s11, s7
 291              	.LVL21:
 292              		.loc 1 4149 7 is_stmt 1 view .LVU90
 293              		.loc 1 4149 11 is_stmt 0 view .LVU91
 294 0074 B1EE647A 		vneg.f32	s14, s9
 295              	.LVL22:
 296              	.L17:
 297              		.loc 1 4151 5 is_stmt 1 view .LVU92
 298              	.LBE164:
 299              		.loc 1 4131 17 is_stmt 0 discriminator 1 view .LVU93
 300 0078 0832     		adds	r2, r2, #8
 301 007a 6245     		cmp	r2, ip
 302              	.LBB165:
 303              		.loc 1 4151 30 view .LVU94
 304 007c C3ED006A 		vstr.32	s13, [r3]
 305              	.LVL23:
 306              		.loc 1 4152 5 is_stmt 1 view .LVU95
 307              		.loc 1 4152 30 is_stmt 0 view .LVU96
 308 0080 83ED017A 		vstr.32	s14, [r3, #4]
 309              	.LBE165:
 310              		.loc 1 4131 34 is_stmt 1 discriminator 2 view .LVU97
 311              		.loc 1 4131 17 discriminator 1 view .LVU98
 312 0084 01F10801 		add	r1, r1, #8
 313 0088 03F10803 		add	r3, r3, #8
 314 008c C6D1     		bne	.L18
 315              	.LVL24:
 316              	.L15:
 317              		.loc 1 4154 3 view .LVU99
 318              		.loc 1 4155 3 view .LVU100
 319              		.loc 1 4154 14 is_stmt 0 view .LVU101
 320 008e A38C     		ldrh	r3, [r4, #36]
 321 0090 23F00403 		bic	r3, r3, #4
 322              		.loc 1 4155 14 view .LVU102
 323 0094 43F04003 		orr	r3, r3, #64
 324 0098 A384     		strh	r3, [r4, #36]	@ movhi
 325              		.loc 1 4156 1 view .LVU103
 326 009a 5DF8044B 		ldr	r4, [sp], #4
 327              		.cfi_restore 4
 328              		.cfi_def_cfa_offset 0
 329 009e 7047     		bx	lr
 330              	.L25:
 331              		.align	2
 332              	.L24:
 333 00a0 00000000 		.word	current_props
 334              		.cfi_endproc
 335              	.LFE322:
 336              		.size	eterm_calc_er, .-eterm_calc_er
 337              		.section	.text.cmd_help,"ax",%progbits
 338              		.align	1
 339              		.p2align 4,,15
 340              		.syntax unified
 341              		.thumb
 342              		.thumb_func
ARM GAS  C:\msys64\tmp\ccb7DTfv.s 			page 7


 343              		.type	cmd_help, %function
 344              	cmd_help:
 345              	.LVL25:
 346              	.LFB367:
 347              		.loc 1 5606 1 is_stmt 1 view -0
 348              		.cfi_startproc
 349              		@ args = 0, pretend = 0, frame = 0
 350              		@ frame_needed = 0, uses_anonymous_args = 0
 351              		@ link register save eliminated.
 352              		.loc 1 5607 3 view .LVU105
 353              		.loc 1 5608 3 view .LVU106
 354              		.loc 1 5609 3 view .LVU107
 355              		.loc 1 5610 3 view .LVU108
 356              		.loc 1 5611 3 view .LVU109
 357              		.loc 1 5611 23 view .LVU110
 358              		.loc 1 5609 26 is_stmt 0 view .LVU111
 359 0000 024B     		ldr	r3, .L29
 360              	.LVL26:
 361              	.L27:
 362              		.loc 1 5613 5 is_stmt 1 view .LVU112
 363              		.loc 1 5614 5 view .LVU113
 364              		.loc 1 5611 23 view .LVU114
 365              		.loc 1 5611 13 is_stmt 0 view .LVU115
 366 0002 53F80A2F 		ldr	r2, [r3, #10]!	@ unaligned
 367              	.LVL27:
 368              		.loc 1 5611 23 view .LVU116
 369 0006 002A     		cmp	r2, #0
 370 0008 FBD1     		bne	.L27
 371              		.loc 1 5618 1 view .LVU117
 372 000a 7047     		bx	lr
 373              	.L30:
 374              		.align	2
 375              	.L29:
 376 000c 00000000 		.word	commands
 377              		.cfi_endproc
 378              	.LFE367:
 379              		.size	cmd_help, .-cmd_help
 380              		.section	.text.set_domain_mode,"ax",%progbits
 381              		.align	1
 382              		.p2align 4,,15
 383              		.syntax unified
 384              		.thumb
 385              		.thumb_func
 386              		.type	set_domain_mode, %function
 387              	set_domain_mode:
 388              	.LVL28:
 389              	.LFB349:
 390              		.loc 1 4873 1 is_stmt 1 view -0
 391              		.cfi_startproc
 392              		@ args = 0, pretend = 0, frame = 0
 393              		@ frame_needed = 0, uses_anonymous_args = 0
 394              		.loc 1 4874 3 view .LVU119
 395              		.loc 1 4874 16 is_stmt 0 view .LVU120
 396 0000 094A     		ldr	r2, .L35
 397              		.loc 1 4873 1 view .LVU121
 398 0002 08B5     		push	{r3, lr}
 399              		.cfi_def_cfa_offset 8
ARM GAS  C:\msys64\tmp\ccb7DTfv.s 			page 8


 400              		.cfi_offset 3, -8
 401              		.cfi_offset 14, -4
 402              		.loc 1 4874 16 view .LVU122
 403 0004 138B     		ldrh	r3, [r2, #24]
 404              		.loc 1 4874 27 view .LVU123
 405 0006 03F00101 		and	r1, r3, #1
 406              		.loc 1 4874 6 view .LVU124
 407 000a 8142     		cmp	r1, r0
 408 000c 00D1     		bne	.L34
 409              		.loc 1 4880 1 view .LVU125
 410 000e 08BD     		pop	{r3, pc}
 411              	.L34:
 412              		.loc 1 4876 5 is_stmt 1 view .LVU126
 413              		.loc 1 4876 46 is_stmt 0 view .LVU127
 414 0010 23F00103 		bic	r3, r3, #1
 415 0014 0343     		orrs	r3, r3, r0
 416              		.loc 1 4877 5 view .LVU128
 417 0016 2820     		movs	r0, #40
 418              	.LVL29:
 419              		.loc 1 4876 16 view .LVU129
 420 0018 1383     		strh	r3, [r2, #24]	@ movhi
 421              		.loc 1 4877 5 is_stmt 1 view .LVU130
 422 001a FFF7FEFF 		bl	request_to_redraw
 423              	.LVL30:
 424              		.loc 1 4878 5 view .LVU131
 425              		.loc 1 4878 16 is_stmt 0 view .LVU132
 426 001e 034B     		ldr	r3, .L35+4
 427 0020 0022     		movs	r2, #0
 428 0022 1A77     		strb	r2, [r3, #28]
 429              		.loc 1 4880 1 view .LVU133
 430 0024 08BD     		pop	{r3, pc}
 431              	.L36:
 432 0026 00BF     		.align	2
 433              	.L35:
 434 0028 00000000 		.word	current_props
 435 002c 00000000 		.word	config
 436              		.cfi_endproc
 437              	.LFE349:
 438              		.size	set_domain_mode, .-set_domain_mode
 439              		.section	.text.cal_interpolate,"ax",%progbits
 440              		.align	1
 441              		.p2align 4,,15
 442              		.syntax unified
 443              		.thumb
 444              		.thumb_func
 445              		.type	cal_interpolate, %function
 446              	cal_interpolate:
 447              	.LVL31:
 448              	.LFB328:
 449              		.loc 1 4404 1 is_stmt 1 view -0
 450              		.cfi_startproc
 451              		@ args = 0, pretend = 0, frame = 8
 452              		@ frame_needed = 0, uses_anonymous_args = 0
 453              		.loc 1 4405 3 view .LVU135
 454              		.loc 1 4406 3 view .LVU136
 455              		.loc 1 4407 3 view .LVU137
 456              		.loc 1 4404 1 is_stmt 0 view .LVU138
ARM GAS  C:\msys64\tmp\ccb7DTfv.s 			page 9


 457 0000 2DE9F04F 		push	{r4, r5, r6, r7, r8, r9, r10, fp, lr}
 458              		.cfi_def_cfa_offset 36
 459              		.cfi_offset 4, -36
 460              		.cfi_offset 5, -32
 461              		.cfi_offset 6, -28
 462              		.cfi_offset 7, -24
 463              		.cfi_offset 8, -20
 464              		.cfi_offset 9, -16
 465              		.cfi_offset 10, -12
 466              		.cfi_offset 11, -8
 467              		.cfi_offset 14, -4
 468 0004 2DED028B 		vpush.64	{d8}
 469              		.cfi_def_cfa_offset 44
 470              		.cfi_offset 80, -44
 471              		.cfi_offset 81, -40
 472              		.loc 1 4407 6 view .LVU139
 473 0008 061E     		subs	r6, r0, #0
 474              		.loc 1 4404 1 view .LVU140
 475 000a 83B0     		sub	sp, sp, #12
 476              		.cfi_def_cfa_offset 56
 477              		.loc 1 4404 1 view .LVU141
 478 000c 1546     		mov	r5, r2
 479              		.loc 1 4407 6 view .LVU142
 480 000e 7EDA     		bge	.L56
 481              		.loc 1 4409 12 view .LVU143
 482 0010 594C     		ldr	r4, .L59
 483 0012 D4F80CA0 		ldr	r10, [r4, #12]
 484              		.loc 1 4409 6 view .LVU144
 485 0016 8A45     		cmp	r10, r1
 486 0018 0F46     		mov	r7, r1
 487              		.loc 1 4409 3 is_stmt 1 view .LVU145
 488              		.loc 1 4409 6 is_stmt 0 view .LVU146
 489 001a 80F08E80 		bcs	.L49
 490              		.loc 1 4406 12 view .LVU147
 491 001e B4F82290 		ldrh	r9, [r4, #34]
 492              		.loc 1 4414 12 view .LVU148
 493 0022 2069     		ldr	r0, [r4, #16]
 494              	.LVL32:
 495              		.loc 1 4406 12 view .LVU149
 496 0024 09F1FF39 		add	r9, r9, #-1
 497              		.loc 1 4414 6 view .LVU150
 498 0028 8842     		cmp	r0, r1
 499              		.loc 1 4406 12 view .LVU151
 500 002a 1FFA89F9 		uxth	r9, r9
 501              		.loc 1 4414 3 is_stmt 1 view .LVU152
 502              		.loc 1 4414 6 is_stmt 0 view .LVU153
 503 002e 40F28680 		bls	.L57
 504              		.loc 1 4420 3 is_stmt 1 view .LVU154
 505              	.LVL33:
 506              		.loc 1 4421 3 view .LVU155
 507              		.loc 1 4420 10 is_stmt 0 view .LVU156
 508 0032 A0EB0A08 		sub	r8, r0, r10
 509              	.LVL34:
 510              		.loc 1 4421 22 view .LVU157
 511 0036 A1EB0A00 		sub	r0, r1, r10
 512              		.loc 1 4421 63 view .LVU158
 513 003a 4246     		mov	r2, r8
ARM GAS  C:\msys64\tmp\ccb7DTfv.s 			page 10


 514              	.LVL35:
 515              		.loc 1 4421 63 view .LVU159
 516 003c 0023     		movs	r3, #0
 517 003e A0FB0901 		umull	r0, r1, r0, r9
 518              	.LVL36:
 519              		.loc 1 4421 63 view .LVU160
 520 0042 FFF7FEFF 		bl	__aeabi_uldivmod
 521              	.LVL37:
 522              		.loc 1 4421 63 view .LVU161
 523 0046 0646     		mov	r6, r0
 524              	.LVL38:
 525              		.loc 1 4422 3 is_stmt 1 view .LVU162
 526              		.loc 1 4422 31 is_stmt 0 view .LVU163
 527 0048 A6FB08CB 		umull	ip, fp, r6, r8
 528 004c C017     		asrs	r0, r0, #31
 529              	.LVL39:
 530              		.loc 1 4422 50 view .LVU164
 531 004e 4FEA5901 		lsr	r1, r9, #1
 532              		.loc 1 4422 12 view .LVU165
 533 0052 1CEB0101 		adds	r1, ip, r1
 534              		.loc 1 4422 31 view .LVU166
 535 0056 08FB00BB 		mla	fp, r8, r0, fp
 536              		.loc 1 4422 12 view .LVU167
 537 005a 4BF1000B 		adc	fp, fp, #0
 538              	.LVL40:
 539              		.loc 1 4423 3 is_stmt 1 view .LVU168
 540              		.loc 1 4423 40 is_stmt 0 view .LVU169
 541 005e 4A46     		mov	r2, r9
 542 0060 0023     		movs	r3, #0
 543 0062 0191     		str	r1, [sp, #4]
 544 0064 0846     		mov	r0, r1
 545 0066 5946     		mov	r1, fp
 546              	.LVL41:
 547              		.loc 1 4423 40 view .LVU170
 548 0068 FFF7FEFF 		bl	__aeabi_uldivmod
 549              	.LVL42:
 550              		.loc 1 4424 39 view .LVU171
 551 006c 0199     		ldr	r1, [sp, #4]
 552              		.loc 1 4423 40 view .LVU172
 553 006e 0346     		mov	r3, r0
 554              		.loc 1 4424 39 view .LVU173
 555 0070 18EB0100 		adds	r0, r8, r1
 556              		.loc 1 4424 47 view .LVU174
 557 0074 4BF10001 		adc	r1, fp, #0
 558              		.loc 1 4423 40 view .LVU175
 559 0078 9846     		mov	r8, r3
 560              	.LVL43:
 561              		.loc 1 4424 47 view .LVU176
 562 007a 4A46     		mov	r2, r9
 563 007c 0023     		movs	r3, #0
 564 007e FFF7FEFF 		bl	__aeabi_uldivmod
 565              	.LVL44:
 566              		.loc 1 4423 10 view .LVU177
 567 0082 0AEB080B 		add	fp, r10, r8
 568              	.LVL45:
 569              		.loc 1 4424 3 is_stmt 1 view .LVU178
 570              		.loc 1 4428 6 is_stmt 0 view .LVU179
ARM GAS  C:\msys64\tmp\ccb7DTfv.s 			page 11


 571 0086 5F45     		cmp	r7, fp
 572              		.loc 1 4424 10 view .LVU180
 573 0088 8244     		add	r10, r10, r0
 574              	.LVL46:
 575              		.loc 1 4426 3 is_stmt 1 view .LVU181
 576              		.loc 1 4426 10 is_stmt 0 view .LVU182
 577 008a A0EB0800 		sub	r0, r0, r8
 578              	.LVL47:
 579              		.loc 1 4428 3 is_stmt 1 view .LVU183
 580              		.loc 1 4428 6 is_stmt 0 view .LVU184
 581 008e 3FD0     		beq	.L38
 582              		.loc 1 4431 3 is_stmt 1 view .LVU185
 583              		.loc 1 4431 33 is_stmt 0 view .LVU186
 584 0090 0028     		cmp	r0, #0
 585 0092 56D0     		beq	.L50
 586              		.loc 1 4431 45 discriminator 1 view .LVU187
 587 0094 A7EB0B03 		sub	r3, r7, fp
 588              		.loc 1 4431 55 discriminator 1 view .LVU188
 589 0098 07EE900A 		vmov	s15, r0	@ int
 590              		.loc 1 4431 45 discriminator 1 view .LVU189
 591 009c 07EE103A 		vmov	s14, r3	@ int
 592              		.loc 1 4431 55 discriminator 1 view .LVU190
 593 00a0 F8EE677A 		vcvt.f32.u32	s15, s15
 594              		.loc 1 4431 35 discriminator 1 view .LVU191
 595 00a4 B8EE477A 		vcvt.f32.u32	s14, s14
 596              		.loc 1 4431 33 discriminator 1 view .LVU192
 597 00a8 87EE278A 		vdiv.f32	s16, s14, s15
 598              	.L41:
 599              	.LVL48:
 600              		.loc 1 4433 3 is_stmt 1 view .LVU193
 601              		.loc 1 4433 18 is_stmt 0 view .LVU194
 602 00ac 5846     		mov	r0, fp
 603              	.LVL49:
 604              		.loc 1 4433 18 view .LVU195
 605 00ae FFF7FEFF 		bl	si5351_get_harmonic_lvl
 606              	.LVL50:
 607 00b2 8046     		mov	r8, r0
 608              	.LVL51:
 609              		.loc 1 4434 3 is_stmt 1 view .LVU196
 610              		.loc 1 4434 14 is_stmt 0 view .LVU197
 611 00b4 5046     		mov	r0, r10
 612              	.LVL52:
 613              		.loc 1 4434 14 view .LVU198
 614 00b6 FFF7FEFF 		bl	si5351_get_harmonic_lvl
 615              	.LVL53:
 616              		.loc 1 4434 6 discriminator 1 view .LVU199
 617 00ba 4045     		cmp	r0, r8
 618 00bc 44D1     		bne	.L42
 619              		.loc 1 4449 10 view .LVU200
 620 00be 731C     		adds	r3, r6, #1
 621              	.L43:
 622              		.loc 1 4454 3 is_stmt 1 view .LVU201
 623              	.LVL54:
 624              		.loc 1 4454 25 discriminator 1 view .LVU202
 625 00c0 2A1D     		adds	r2, r5, #4
 626 00c2 04EBC606 		add	r6, r4, r6, lsl #3
 627              	.LVL55:
ARM GAS  C:\msys64\tmp\ccb7DTfv.s 			page 12


 628              		.loc 1 4454 25 is_stmt 0 discriminator 1 view .LVU203
 629 00c6 04EBC303 		add	r3, r4, r3, lsl #3
 630 00ca 2C35     		adds	r5, r5, #44
 631              	.LVL56:
 632              	.L46:
 633              		.loc 1 4456 5 is_stmt 1 view .LVU204
 634              		.loc 1 4456 42 is_stmt 0 view .LVU205
 635 00cc D6ED347A 		vldr.32	s15, [r6, #208]
 636              		.loc 1 4456 81 view .LVU206
 637 00d0 93ED347A 		vldr.32	s14, [r3, #208]
 638 00d4 37EE677A 		vsub.f32	s14, s14, s15
 639              		.loc 1 4457 20 view .LVU207
 640 00d8 1146     		mov	r1, r2
 641              		.loc 1 4456 46 view .LVU208
 642 00da E7EE087A 		vfma.f32	s15, s14, s16
 643              		.loc 1 4457 20 view .LVU209
 644 00de 0832     		adds	r2, r2, #8
 645              		.loc 1 4456 20 view .LVU210
 646 00e0 42ED037A 		vstr.32	s15, [r2, #-12]
 647              		.loc 1 4457 5 is_stmt 1 view .LVU211
 648              		.loc 1 4457 42 is_stmt 0 view .LVU212
 649 00e4 D6ED357A 		vldr.32	s15, [r6, #212]
 650              		.loc 1 4457 81 view .LVU213
 651 00e8 93ED357A 		vldr.32	s14, [r3, #212]
 652 00ec 37EE677A 		vsub.f32	s14, s14, s15
 653              		.loc 1 4454 25 discriminator 1 view .LVU214
 654 00f0 9542     		cmp	r5, r2
 655              		.loc 1 4457 46 view .LVU215
 656 00f2 E7EE087A 		vfma.f32	s15, s14, s16
 657              		.loc 1 4454 25 discriminator 1 view .LVU216
 658 00f6 06F68846 		addw	r6, r6, #3208
 659 00fa 03F68843 		addw	r3, r3, #3208
 660              		.loc 1 4457 20 view .LVU217
 661 00fe C1ED007A 		vstr.32	s15, [r1]
 662              		.loc 1 4454 48 is_stmt 1 discriminator 3 view .LVU218
 663              		.loc 1 4454 25 discriminator 1 view .LVU219
 664 0102 E3D1     		bne	.L46
 665              		.loc 1 4468 1 is_stmt 0 view .LVU220
 666 0104 03B0     		add	sp, sp, #12
 667              		.cfi_remember_state
 668              		.cfi_def_cfa_offset 44
 669              		@ sp needed
 670 0106 BDEC028B 		vldm	sp!, {d8}
 671              		.cfi_restore 80
 672              		.cfi_restore 81
 673              		.cfi_def_cfa_offset 36
 674              	.LVL57:
 675              		.loc 1 4468 1 view .LVU221
 676 010a BDE8F08F 		pop	{r4, r5, r6, r7, r8, r9, r10, fp, pc}
 677              	.LVL58:
 678              	.L56:
 679              		.cfi_restore_state
 680              		.loc 1 4468 1 view .LVU222
 681 010e 1A4C     		ldr	r4, .L59
 682              	.LVL59:
 683              	.L38:
 684              		.loc 1 4462 3 is_stmt 1 view .LVU223
ARM GAS  C:\msys64\tmp\ccb7DTfv.s 			page 13


 685              		.loc 1 4462 25 discriminator 1 view .LVU224
 686 0110 2B1D     		adds	r3, r5, #4
 687 0112 04EBC604 		add	r4, r4, r6, lsl #3
 688 0116 2C35     		adds	r5, r5, #44
 689              	.LVL60:
 690              	.L47:
 691              		.loc 1 4464 5 view .LVU225
 692              		.loc 1 4464 42 is_stmt 0 view .LVU226
 693 0118 D4F8D020 		ldr	r2, [r4, #208]	@ float
 694              		.loc 1 4464 20 view .LVU227
 695 011c 43F8042C 		str	r2, [r3, #-4]	@ float
 696              		.loc 1 4465 5 is_stmt 1 view .LVU228
 697              		.loc 1 4465 42 is_stmt 0 view .LVU229
 698 0120 D4F8D420 		ldr	r2, [r4, #212]	@ float
 699              		.loc 1 4465 20 view .LVU230
 700 0124 43F8082B 		str	r2, [r3], #8	@ float
 701              		.loc 1 4462 48 is_stmt 1 discriminator 3 view .LVU231
 702              		.loc 1 4462 25 discriminator 1 view .LVU232
 703 0128 9D42     		cmp	r5, r3
 704 012a 04F68844 		addw	r4, r4, #3208
 705 012e F3D1     		bne	.L47
 706              		.loc 1 4468 1 is_stmt 0 view .LVU233
 707 0130 03B0     		add	sp, sp, #12
 708              		.cfi_remember_state
 709              		.cfi_def_cfa_offset 44
 710              		@ sp needed
 711 0132 BDEC028B 		vldm	sp!, {d8}
 712              		.cfi_restore 80
 713              		.cfi_restore 81
 714              		.cfi_def_cfa_offset 36
 715 0136 BDE8F08F 		pop	{r4, r5, r6, r7, r8, r9, r10, fp, pc}
 716              	.LVL61:
 717              	.L49:
 718              		.cfi_restore_state
 719              		.loc 1 4411 9 view .LVU234
 720 013a 0026     		movs	r6, #0
 721 013c E8E7     		b	.L38
 722              	.LVL62:
 723              	.L57:
 724              		.loc 1 4416 5 is_stmt 1 view .LVU235
 725              		.loc 1 4416 9 is_stmt 0 view .LVU236
 726 013e 4E46     		mov	r6, r9
 727              	.LVL63:
 728              		.loc 1 4417 5 is_stmt 1 view .LVU237
 729 0140 E6E7     		b	.L38
 730              	.LVL64:
 731              	.L50:
 732              		.loc 1 4431 33 is_stmt 0 discriminator 2 view .LVU238
 733 0142 9FED0E8A 		vldr.32	s16, .L59+4
 734 0146 B1E7     		b	.L41
 735              	.LVL65:
 736              	.L42:
 737              		.loc 1 4437 5 is_stmt 1 view .LVU239
 738              		.loc 1 4437 16 is_stmt 0 view .LVU240
 739 0148 3846     		mov	r0, r7
 740 014a FFF7FEFF 		bl	si5351_get_harmonic_lvl
 741              	.LVL66:
ARM GAS  C:\msys64\tmp\ccb7DTfv.s 			page 14


 742              		.loc 1 4437 8 discriminator 1 view .LVU241
 743 014e 4045     		cmp	r0, r8
 744 0150 08D0     		beq	.L58
 745              		.loc 1 4447 7 is_stmt 1 view .LVU242
 746              		.loc 1 4447 10 is_stmt 0 view .LVU243
 747 0152 B145     		cmp	r9, r6
 748 0154 DCDD     		ble	.L38
 749              		.loc 1 4449 7 is_stmt 1 view .LVU244
 750              	.LVL67:
 751              		.loc 1 4450 7 view .LVU245
 752              		.loc 1 4450 9 is_stmt 0 view .LVU246
 753 0156 F7EE007A 		vmov.f32	s15, #1.0e+0
 754              		.loc 1 4456 73 view .LVU247
 755 015a B31C     		adds	r3, r6, #2
 756              		.loc 1 4450 9 view .LVU248
 757 015c 38EE678A 		vsub.f32	s16, s16, s15
 758              	.LVL68:
 759              		.loc 1 4449 10 view .LVU249
 760 0160 0136     		adds	r6, r6, #1
 761              	.LVL69:
 762              		.loc 1 4449 10 view .LVU250
 763 0162 ADE7     		b	.L43
 764              	.L58:
 765              		.loc 1 4439 7 is_stmt 1 view .LVU251
 766              		.loc 1 4439 10 is_stmt 0 view .LVU252
 767 0164 002E     		cmp	r6, #0
 768 0166 D3DD     		ble	.L38
 769              		.loc 1 4441 7 is_stmt 1 view .LVU253
 770              	.LVL70:
 771              		.loc 1 4442 7 view .LVU254
 772              		.loc 1 4442 9 is_stmt 0 view .LVU255
 773 0168 F7EE007A 		vmov.f32	s15, #1.0e+0
 774 016c 3346     		mov	r3, r6
 775 016e 38EE278A 		vadd.f32	s16, s16, s15
 776              	.LVL71:
 777              		.loc 1 4441 10 view .LVU256
 778 0172 013E     		subs	r6, r6, #1
 779              	.LVL72:
 780              		.loc 1 4441 10 view .LVU257
 781 0174 A4E7     		b	.L43
 782              	.L60:
 783 0176 00BF     		.align	2
 784              	.L59:
 785 0178 00000000 		.word	current_props
 786 017c 00000000 		.word	0
 787              		.cfi_endproc
 788              	.LFE328:
 789              		.size	cal_interpolate, .-cal_interpolate
 790              		.section	.text.cmd_refresh,"ax",%progbits
 791              		.align	1
 792              		.p2align 4,,15
 793              		.syntax unified
 794              		.thumb
 795              		.thumb_func
 796              		.type	cmd_refresh, %function
 797              	cmd_refresh:
 798              	.LVL73:
ARM GAS  C:\msys64\tmp\ccb7DTfv.s 			page 15


 799              	.LFB359:
 800              		.loc 1 5324 1 is_stmt 1 view -0
 801              		.cfi_startproc
 802              		@ args = 0, pretend = 0, frame = 0
 803              		@ frame_needed = 0, uses_anonymous_args = 0
 804              		.loc 1 5325 3 view .LVU259
 805              		.loc 1 5326 3 view .LVU260
 806              		.loc 1 5326 6 is_stmt 0 view .LVU261
 807 0000 0128     		cmp	r0, #1
 808 0002 00D0     		beq	.L68
 809 0004 7047     		bx	lr
 810              	.L68:
 811              		.loc 1 5328 3 is_stmt 1 view .LVU262
 812              		.loc 1 5324 1 is_stmt 0 view .LVU263
 813 0006 08B5     		push	{r3, lr}
 814              		.cfi_def_cfa_offset 8
 815              		.cfi_offset 3, -8
 816              		.cfi_offset 14, -4
 817 0008 0B46     		mov	r3, r1
 818              		.loc 1 5328 16 view .LVU264
 819 000a 0E49     		ldr	r1, .L70
 820              	.LVL74:
 821              		.loc 1 5328 16 view .LVU265
 822 000c 1868     		ldr	r0, [r3]
 823              	.LVL75:
 824              		.loc 1 5328 16 view .LVU266
 825 000e FFF7FEFF 		bl	get_str_index
 826              	.LVL76:
 827              		.loc 1 5329 3 is_stmt 1 view .LVU267
 828              		.loc 1 5329 6 is_stmt 0 view .LVU268
 829 0012 60B1     		cbz	r0, .L69
 830              		.loc 1 5331 8 is_stmt 1 view .LVU269
 831              		.loc 1 5331 11 is_stmt 0 view .LVU270
 832 0014 0128     		cmp	r0, #1
 833 0016 04D1     		bne	.L64
 834              		.loc 1 5332 5 is_stmt 1 view .LVU271
 835              		.loc 1 5332 16 is_stmt 0 view .LVU272
 836 0018 0B4A     		ldr	r2, .L70+4
 837 001a 1378     		ldrb	r3, [r2]	@ zero_extendqisi2
 838 001c 23F04003 		bic	r3, r3, #64
 839 0020 1370     		strb	r3, [r2]
 840              	.L64:
 841              		.loc 1 5334 3 is_stmt 1 view .LVU273
 842              		.loc 1 5335 1 is_stmt 0 view .LVU274
 843 0022 BDE80840 		pop	{r3, lr}
 844              		.cfi_remember_state
 845              		.cfi_restore 14
 846              		.cfi_restore 3
 847              		.cfi_def_cfa_offset 0
 848              		.loc 1 5334 3 view .LVU275
 849 0026 4FF48D70 		mov	r0, #282
 850              	.LVL77:
 851              		.loc 1 5334 3 view .LVU276
 852 002a FFF7FEBF 		b	request_to_redraw
 853              	.LVL78:
 854              	.L69:
 855              		.cfi_restore_state
ARM GAS  C:\msys64\tmp\ccb7DTfv.s 			page 16


 856              		.loc 1 5330 5 is_stmt 1 view .LVU277
 857              		.loc 1 5330 16 is_stmt 0 view .LVU278
 858 002e 064A     		ldr	r2, .L70+4
 859 0030 1378     		ldrb	r3, [r2]	@ zero_extendqisi2
 860 0032 43F04003 		orr	r3, r3, #64
 861 0036 1370     		strb	r3, [r2]
 862              		.loc 1 5334 3 is_stmt 1 view .LVU279
 863              		.loc 1 5335 1 is_stmt 0 view .LVU280
 864 0038 BDE80840 		pop	{r3, lr}
 865              		.cfi_restore 14
 866              		.cfi_restore 3
 867              		.cfi_def_cfa_offset 0
 868              		.loc 1 5334 3 view .LVU281
 869 003c 4FF48D70 		mov	r0, #282
 870              	.LVL79:
 871              		.loc 1 5334 3 view .LVU282
 872 0040 FFF7FEBF 		b	request_to_redraw
 873              	.LVL80:
 874              	.L71:
 875              		.align	2
 876              	.L70:
 877 0044 00000000 		.word	cmd_enable_list.12
 878 0048 00000000 		.word	sweep_mode
 879              		.cfi_endproc
 880              	.LFE359:
 881              		.size	cmd_refresh, .-cmd_refresh
 882              		.section	.rodata.VNAShell_parceLine.str1.4,"aMS",%progbits,1
 883              		.align	2
 884              	.LC0:
 885 0000 7363616E 		.ascii	"scan\000"
 885      00
 886              		.section	.text.VNAShell_parceLine,"ax",%progbits
 887              		.align	1
 888              		.p2align 4,,15
 889              		.syntax unified
 890              		.thumb
 891              		.thumb_func
 892              		.type	VNAShell_parceLine, %function
 893              	VNAShell_parceLine:
 894              	.LVL81:
 895              	.LFB370:
 896              		.loc 1 5750 1 is_stmt 1 view -0
 897              		.cfi_startproc
 898              		@ args = 0, pretend = 0, frame = 0
 899              		@ frame_needed = 0, uses_anonymous_args = 0
 900              		.loc 1 5752 3 view .LVU284
 901              		.loc 1 5750 1 is_stmt 0 view .LVU285
 902 0000 38B5     		push	{r3, r4, r5, lr}
 903              		.cfi_def_cfa_offset 16
 904              		.cfi_offset 3, -16
 905              		.cfi_offset 4, -12
 906              		.cfi_offset 5, -8
 907              		.cfi_offset 14, -4
 908              		.loc 1 5752 17 view .LVU286
 909 0002 0522     		movs	r2, #5
 910 0004 0C49     		ldr	r1, .L82
 911 0006 FFF7FEFF 		bl	parse_line
ARM GAS  C:\msys64\tmp\ccb7DTfv.s 			page 17


 912              	.LVL82:
 913              		.loc 1 5752 15 discriminator 1 view .LVU287
 914 000a 80B2     		uxth	r0, r0
 915 000c 0B4A     		ldr	r2, .L82+4
 916              		.loc 1 5753 6 view .LVU288
 917 000e 431E     		subs	r3, r0, #1
 918 0010 042B     		cmp	r3, #4
 919              		.loc 1 5752 15 discriminator 1 view .LVU289
 920 0012 1080     		strh	r0, [r2]	@ movhi
 921              		.loc 1 5753 3 is_stmt 1 view .LVU290
 922              		.loc 1 5753 6 is_stmt 0 view .LVU291
 923 0014 0DD8     		bhi	.L73
 924              	.LBB166:
 925              		.loc 1 5761 14 view .LVU292
 926 0016 0A4C     		ldr	r4, .L82+8
 927              		.loc 1 5761 29 discriminator 1 view .LVU293
 928 0018 0A48     		ldr	r0, .L82+12
 929 001a 074D     		ldr	r5, .L82
 930 001c 02E0     		b	.L75
 931              	.LVL83:
 932              	.L81:
 933              		.loc 1 5761 29 discriminator 1 view .LVU294
 934 001e 54F80A0F 		ldr	r0, [r4, #10]!	@ unaligned
 935              	.LVL84:
 936              		.loc 1 5761 39 discriminator 1 view .LVU295
 937 0022 30B1     		cbz	r0, .L73
 938              	.LVL85:
 939              	.L75:
 940              		.loc 1 5762 7 is_stmt 1 view .LVU296
 941              		.loc 1 5762 11 is_stmt 0 view .LVU297
 942 0024 2968     		ldr	r1, [r5]
 943 0026 FFF7FEFF 		bl	get_str_index
 944              	.LVL86:
 945              		.loc 1 5761 51 is_stmt 1 discriminator 2 view .LVU298
 946              		.loc 1 5761 39 discriminator 1 view .LVU299
 947              		.loc 1 5762 10 is_stmt 0 discriminator 1 view .LVU300
 948 002a 0028     		cmp	r0, #0
 949 002c F7D1     		bne	.L81
 950              	.LBE166:
 951              		.loc 1 5766 1 view .LVU301
 952 002e 2046     		mov	r0, r4
 953 0030 38BD     		pop	{r3, r4, r5, pc}
 954              	.LVL87:
 955              	.L73:
 956              		.loc 1 5756 12 view .LVU302
 957 0032 0024     		movs	r4, #0
 958              		.loc 1 5766 1 view .LVU303
 959 0034 2046     		mov	r0, r4
 960 0036 38BD     		pop	{r3, r4, r5, pc}
 961              	.L83:
 962              		.align	2
 963              	.L82:
 964 0038 00000000 		.word	shell_args
 965 003c 00000000 		.word	shell_nargs
 966 0040 00000000 		.word	commands
 967 0044 00000000 		.word	.LC0
 968              		.cfi_endproc
ARM GAS  C:\msys64\tmp\ccb7DTfv.s 			page 18


 969              	.LFE370:
 970              		.size	VNAShell_parceLine, .-VNAShell_parceLine
 971              		.section	.text.cmd_transform,"ax",%progbits
 972              		.align	1
 973              		.p2align 4,,15
 974              		.syntax unified
 975              		.thumb
 976              		.thumb_func
 977              		.type	cmd_transform, %function
 978              	cmd_transform:
 979              	.LVL88:
 980              	.LFB352:
 981              		.loc 1 4895 1 is_stmt 1 view -0
 982              		.cfi_startproc
 983              		@ args = 0, pretend = 0, frame = 0
 984              		@ frame_needed = 0, uses_anonymous_args = 0
 985              		.loc 1 4896 3 view .LVU305
 986              		.loc 1 4897 3 view .LVU306
 987              		.loc 1 4895 1 is_stmt 0 view .LVU307
 988 0000 70B5     		push	{r4, r5, r6, lr}
 989              		.cfi_def_cfa_offset 16
 990              		.cfi_offset 4, -16
 991              		.cfi_offset 5, -12
 992              		.cfi_offset 6, -8
 993              		.cfi_offset 14, -4
 994              		.loc 1 4897 6 view .LVU308
 995 0002 061E     		subs	r6, r0, #0
 996 0004 18DD     		ble	.L84
 997 0006 0C1F     		subs	r4, r1, #4
 998              		.loc 1 4903 10 view .LVU309
 999 0008 0025     		movs	r5, #0
 1000              	.LVL89:
 1001              	.L97:
 1002              		.loc 1 4905 5 is_stmt 1 view .LVU310
 1003              		.loc 1 4905 13 is_stmt 0 view .LVU311
 1004 000a 54F8040F 		ldr	r0, [r4, #4]!
 1005 000e 2149     		ldr	r1, .L101
 1006 0010 FFF7FEFF 		bl	get_str_index
 1007              	.LVL90:
 1008              		.loc 1 4905 5 discriminator 1 view .LVU312
 1009 0014 0728     		cmp	r0, #7
 1010 0016 0FD8     		bhi	.L84
 1011 0018 DFE800F0 		tbb	[pc, r0]
 1012              	.L88:
 1013 001c 37       		.byte	(.L95-.L88)/2
 1014 001d 33       		.byte	(.L94-.L88)/2
 1015 001e 2B       		.byte	(.L93-.L88)/2
 1016 001f 23       		.byte	(.L92-.L88)/2
 1017 0020 1D       		.byte	(.L91-.L88)/2
 1018 0021 15       		.byte	(.L90-.L88)/2
 1019 0022 0F       		.byte	(.L89-.L88)/2
 1020 0023 04       		.byte	(.L87-.L88)/2
 1021              		.p2align 1
 1022              	.L87:
 1023              		.loc 1 4929 7 is_stmt 1 view .LVU313
 1024              	.LVL91:
 1025              	.LBB167:
ARM GAS  C:\msys64\tmp\ccb7DTfv.s 			page 19


 1026              	.LBI167:
 1027              		.loc 1 4889 1 view .LVU314
 1028              	.LBB168:
 1029              		.loc 1 4891 3 view .LVU315
 1030              		.loc 1 4891 14 is_stmt 0 view .LVU316
 1031 0024 1C4A     		ldr	r2, .L101+4
 1032              		.loc 1 4891 28 view .LVU317
 1033 0026 138B     		ldrh	r3, [r2, #24]
 1034 0028 23F01803 		bic	r3, r3, #24
 1035              		.loc 1 4891 42 view .LVU318
 1036 002c 43F01003 		orr	r3, r3, #16
 1037              		.loc 1 4891 14 view .LVU319
 1038 0030 1383     		strh	r3, [r2, #24]	@ movhi
 1039              	.LVL92:
 1040              		.loc 1 4891 14 view .LVU320
 1041              	.LBE168:
 1042              	.LBE167:
 1043              		.loc 1 4930 7 is_stmt 1 view .LVU321
 1044              	.L96:
 1045              		.loc 1 4903 26 discriminator 2 view .LVU322
 1046 0032 0135     		adds	r5, r5, #1
 1047              	.LVL93:
 1048              		.loc 1 4903 17 discriminator 1 view .LVU323
 1049 0034 AE42     		cmp	r6, r5
 1050 0036 E8D1     		bne	.L97
 1051              	.LVL94:
 1052              	.L84:
 1053              		.loc 1 4938 1 is_stmt 0 view .LVU324
 1054 0038 70BD     		pop	{r4, r5, r6, pc}
 1055              	.LVL95:
 1056              	.L89:
 1057              		.loc 1 4926 7 is_stmt 1 view .LVU325
 1058              	.LBB169:
 1059              	.LBI169:
 1060              		.loc 1 4889 1 view .LVU326
 1061              	.LBB170:
 1062              		.loc 1 4891 3 view .LVU327
 1063              		.loc 1 4891 14 is_stmt 0 view .LVU328
 1064 003a 174A     		ldr	r2, .L101+4
 1065              		.loc 1 4891 28 view .LVU329
 1066 003c 138B     		ldrh	r3, [r2, #24]
 1067 003e 23F01803 		bic	r3, r3, #24
 1068              		.loc 1 4891 14 view .LVU330
 1069 0042 1383     		strh	r3, [r2, #24]	@ movhi
 1070              	.LVL96:
 1071              		.loc 1 4891 14 view .LVU331
 1072              	.LBE170:
 1073              	.LBE169:
 1074              		.loc 1 4927 7 is_stmt 1 view .LVU332
 1075              	.LBB172:
 1076              	.LBB171:
 1077              		.loc 1 4892 1 is_stmt 0 view .LVU333
 1078 0044 F5E7     		b	.L96
 1079              	.L90:
 1080              	.LBE171:
 1081              	.LBE172:
 1082              		.loc 1 4923 7 is_stmt 1 view .LVU334
ARM GAS  C:\msys64\tmp\ccb7DTfv.s 			page 20


 1083              	.LVL97:
 1084              	.LBB173:
 1085              	.LBI173:
 1086              		.loc 1 4889 1 view .LVU335
 1087              	.LBB174:
 1088              		.loc 1 4891 3 view .LVU336
 1089              		.loc 1 4891 14 is_stmt 0 view .LVU337
 1090 0046 144A     		ldr	r2, .L101+4
 1091              		.loc 1 4891 28 view .LVU338
 1092 0048 138B     		ldrh	r3, [r2, #24]
 1093 004a 23F01803 		bic	r3, r3, #24
 1094              		.loc 1 4891 42 view .LVU339
 1095 004e 43F00803 		orr	r3, r3, #8
 1096              		.loc 1 4891 14 view .LVU340
 1097 0052 1383     		strh	r3, [r2, #24]	@ movhi
 1098              	.LVL98:
 1099              		.loc 1 4891 14 view .LVU341
 1100              	.LBE174:
 1101              	.LBE173:
 1102              		.loc 1 4924 7 is_stmt 1 view .LVU342
 1103              	.LBB176:
 1104              	.LBB175:
 1105              		.loc 1 4892 1 is_stmt 0 view .LVU343
 1106 0054 EDE7     		b	.L96
 1107              	.L91:
 1108              	.LBE175:
 1109              	.LBE176:
 1110              		.loc 1 4920 7 is_stmt 1 view .LVU344
 1111              	.LVL99:
 1112              	.LBB177:
 1113              	.LBI177:
 1114              		.loc 1 4883 1 view .LVU345
 1115              	.LBB178:
 1116              		.loc 1 4885 3 view .LVU346
 1117              		.loc 1 4885 14 is_stmt 0 view .LVU347
 1118 0056 104A     		ldr	r2, .L101+4
 1119              		.loc 1 4885 28 view .LVU348
 1120 0058 138B     		ldrh	r3, [r2, #24]
 1121 005a 23F00603 		bic	r3, r3, #6
 1122              		.loc 1 4885 14 view .LVU349
 1123 005e 1383     		strh	r3, [r2, #24]	@ movhi
 1124              	.LVL100:
 1125              		.loc 1 4885 14 view .LVU350
 1126              	.LBE178:
 1127              	.LBE177:
 1128              		.loc 1 4921 7 is_stmt 1 view .LVU351
 1129              	.LBB180:
 1130              	.LBB179:
 1131              		.loc 1 4886 1 is_stmt 0 view .LVU352
 1132 0060 E7E7     		b	.L96
 1133              	.L92:
 1134              	.LBE179:
 1135              	.LBE180:
 1136              		.loc 1 4917 7 is_stmt 1 view .LVU353
 1137              	.LVL101:
 1138              	.LBB181:
 1139              	.LBI181:
ARM GAS  C:\msys64\tmp\ccb7DTfv.s 			page 21


 1140              		.loc 1 4883 1 view .LVU354
 1141              	.LBB182:
 1142              		.loc 1 4885 3 view .LVU355
 1143              		.loc 1 4885 14 is_stmt 0 view .LVU356
 1144 0062 0D4A     		ldr	r2, .L101+4
 1145              		.loc 1 4885 28 view .LVU357
 1146 0064 138B     		ldrh	r3, [r2, #24]
 1147 0066 23F00603 		bic	r3, r3, #6
 1148              		.loc 1 4885 40 view .LVU358
 1149 006a 43F00403 		orr	r3, r3, #4
 1150              		.loc 1 4885 14 view .LVU359
 1151 006e 1383     		strh	r3, [r2, #24]	@ movhi
 1152              	.LVL102:
 1153              		.loc 1 4885 14 view .LVU360
 1154              	.LBE182:
 1155              	.LBE181:
 1156              		.loc 1 4918 7 is_stmt 1 view .LVU361
 1157              	.LBB184:
 1158              	.LBB183:
 1159              		.loc 1 4886 1 is_stmt 0 view .LVU362
 1160 0070 DFE7     		b	.L96
 1161              	.L93:
 1162              	.LBE183:
 1163              	.LBE184:
 1164              		.loc 1 4914 7 is_stmt 1 view .LVU363
 1165              	.LVL103:
 1166              	.LBB185:
 1167              	.LBI185:
 1168              		.loc 1 4883 1 view .LVU364
 1169              	.LBB186:
 1170              		.loc 1 4885 3 view .LVU365
 1171              		.loc 1 4885 14 is_stmt 0 view .LVU366
 1172 0072 094A     		ldr	r2, .L101+4
 1173              		.loc 1 4885 28 view .LVU367
 1174 0074 138B     		ldrh	r3, [r2, #24]
 1175 0076 23F00603 		bic	r3, r3, #6
 1176              		.loc 1 4885 40 view .LVU368
 1177 007a 43F00203 		orr	r3, r3, #2
 1178              		.loc 1 4885 14 view .LVU369
 1179 007e 1383     		strh	r3, [r2, #24]	@ movhi
 1180              	.LVL104:
 1181              		.loc 1 4885 14 view .LVU370
 1182              	.LBE186:
 1183              	.LBE185:
 1184              		.loc 1 4915 7 is_stmt 1 view .LVU371
 1185              	.LBB188:
 1186              	.LBB187:
 1187              		.loc 1 4886 1 is_stmt 0 view .LVU372
 1188 0080 D7E7     		b	.L96
 1189              	.L94:
 1190              	.LBE187:
 1191              	.LBE188:
 1192              		.loc 1 4911 7 is_stmt 1 view .LVU373
 1193 0082 0020     		movs	r0, #0
 1194 0084 FFF7FEFF 		bl	set_domain_mode
 1195              	.LVL105:
 1196              		.loc 1 4912 7 view .LVU374
ARM GAS  C:\msys64\tmp\ccb7DTfv.s 			page 22


 1197 0088 D3E7     		b	.L96
 1198              	.L95:
 1199              		.loc 1 4908 7 view .LVU375
 1200 008a 0120     		movs	r0, #1
 1201 008c FFF7FEFF 		bl	set_domain_mode
 1202              	.LVL106:
 1203              		.loc 1 4909 7 view .LVU376
 1204 0090 CFE7     		b	.L96
 1205              	.L102:
 1206 0092 00BF     		.align	2
 1207              	.L101:
 1208 0094 00000000 		.word	cmd_transform_list.14
 1209 0098 00000000 		.word	current_props
 1210              		.cfi_endproc
 1211              	.LFE352:
 1212              		.size	cmd_transform, .-cmd_transform
 1213              		.section	.text.cmd_measure,"ax",%progbits
 1214              		.align	1
 1215              		.p2align 4,,15
 1216              		.syntax unified
 1217              		.thumb
 1218              		.thumb_func
 1219              		.type	cmd_measure, %function
 1220              	cmd_measure:
 1221              	.LVL107:
 1222              	.LFB278:
 1223              		.loc 1 2861 1 view -0
 1224              		.cfi_startproc
 1225              		@ args = 0, pretend = 0, frame = 0
 1226              		@ frame_needed = 0, uses_anonymous_args = 0
 1227              		.loc 1 2862 3 view .LVU378
 1228              		.loc 1 2880 3 view .LVU379
 1229              		.loc 1 2881 3 view .LVU380
 1230              		.loc 1 2881 6 is_stmt 0 view .LVU381
 1231 0000 0128     		cmp	r0, #1
 1232 0002 00D0     		beq	.L111
 1233 0004 7047     		bx	lr
 1234              	.L111:
 1235              		.loc 1 2861 1 view .LVU382
 1236 0006 08B5     		push	{r3, lr}
 1237              		.cfi_def_cfa_offset 8
 1238              		.cfi_offset 3, -8
 1239              		.cfi_offset 14, -4
 1240 0008 0B46     		mov	r3, r1
 1241              		.loc 1 2881 27 discriminator 1 view .LVU383
 1242 000a 0649     		ldr	r1, .L113
 1243              	.LVL108:
 1244              		.loc 1 2881 27 discriminator 1 view .LVU384
 1245 000c 1868     		ldr	r0, [r3]
 1246              	.LVL109:
 1247              		.loc 1 2881 27 discriminator 1 view .LVU385
 1248 000e FFF7FEFF 		bl	get_str_index
 1249              	.LVL110:
 1250              		.loc 1 2881 17 discriminator 1 view .LVU386
 1251 0012 0028     		cmp	r0, #0
 1252              		.loc 1 2881 17 discriminator 1 view .LVU387
 1253 0014 00DA     		bge	.L112
ARM GAS  C:\msys64\tmp\ccb7DTfv.s 			page 23


 1254              		.loc 1 2885 1 view .LVU388
 1255 0016 08BD     		pop	{r3, pc}
 1256              	.L112:
 1257              		.loc 1 2882 5 is_stmt 1 view .LVU389
 1258              		.loc 1 2885 1 is_stmt 0 view .LVU390
 1259 0018 BDE80840 		pop	{r3, lr}
 1260              		.cfi_restore 14
 1261              		.cfi_restore 3
 1262              		.cfi_def_cfa_offset 0
 1263              		.loc 1 2882 5 view .LVU391
 1264 001c C0B2     		uxtb	r0, r0
 1265              	.LVL111:
 1266              		.loc 1 2882 5 view .LVU392
 1267 001e FFF7FEBF 		b	plot_set_measure_mode
 1268              	.LVL112:
 1269              	.L114:
 1270 0022 00BF     		.align	2
 1271              	.L113:
 1272 0024 00000000 		.word	cmd_measure_list.11
 1273              		.cfi_endproc
 1274              	.LFE278:
 1275              		.size	cmd_measure, .-cmd_measure
 1276              		.section	.text.cmd_color,"ax",%progbits
 1277              		.align	1
 1278              		.p2align 4,,15
 1279              		.syntax unified
 1280              		.thumb
 1281              		.thumb_func
 1282              		.type	cmd_color, %function
 1283              	cmd_color:
 1284              	.LVL113:
 1285              	.LFB357:
 1286              		.loc 1 5175 1 is_stmt 1 view -0
 1287              		.cfi_startproc
 1288              		@ args = 0, pretend = 0, frame = 0
 1289              		@ frame_needed = 0, uses_anonymous_args = 0
 1290              		.loc 1 5176 3 view .LVU394
 1291              		.loc 1 5177 3 view .LVU395
 1292              		.loc 1 5178 3 view .LVU396
 1293              		.loc 1 5178 6 is_stmt 0 view .LVU397
 1294 0000 0228     		cmp	r0, #2
 1295 0002 00D0     		beq	.L123
 1296 0004 7047     		bx	lr
 1297              	.L123:
 1298              		.loc 1 5189 3 is_stmt 1 view .LVU398
 1299              		.loc 1 5175 1 is_stmt 0 view .LVU399
 1300 0006 70B5     		push	{r4, r5, r6, lr}
 1301              		.cfi_def_cfa_offset 16
 1302              		.cfi_offset 4, -16
 1303              		.cfi_offset 5, -12
 1304              		.cfi_offset 6, -8
 1305              		.cfi_offset 14, -4
 1306              		.loc 1 5189 7 view .LVU400
 1307 0008 0868     		ldr	r0, [r1]
 1308              	.LVL114:
 1309              		.loc 1 5189 7 view .LVU401
 1310 000a 0C46     		mov	r4, r1
ARM GAS  C:\msys64\tmp\ccb7DTfv.s 			page 24


 1311 000c FFF7FEFF 		bl	my_atoui
 1312              	.LVL115:
 1313              		.loc 1 5190 6 view .LVU402
 1314 0010 83B2     		uxth	r3, r0
 1315 0012 1F2B     		cmp	r3, #31
 1316              		.loc 1 5189 7 view .LVU403
 1317 0014 0546     		mov	r5, r0
 1318              	.LVL116:
 1319              		.loc 1 5190 3 is_stmt 1 view .LVU404
 1320              		.loc 1 5190 6 is_stmt 0 view .LVU405
 1321 0016 00D9     		bls	.L124
 1322              		.loc 1 5196 1 view .LVU406
 1323 0018 70BD     		pop	{r4, r5, r6, pc}
 1324              	.LVL117:
 1325              	.L124:
 1326              		.loc 1 5192 3 is_stmt 1 view .LVU407
 1327              		.loc 1 5192 11 is_stmt 0 view .LVU408
 1328 001a 6068     		ldr	r0, [r4, #4]
 1329              	.LVL118:
 1330              		.loc 1 5192 11 view .LVU409
 1331 001c FFF7FEFF 		bl	my_atoui
 1332              	.LVL119:
 1333 0020 0646     		mov	r6, r0
 1334              		.loc 1 5192 11 discriminator 1 view .LVU410
 1335 0022 6068     		ldr	r0, [r4, #4]
 1336 0024 FFF7FEFF 		bl	my_atoui
 1337              	.LVL120:
 1338 0028 F600     		lsls	r6, r6, #3
 1339              		.loc 1 5192 11 discriminator 2 view .LVU411
 1340 002a 4301     		lsls	r3, r0, #5
 1341 002c 03F4F853 		and	r3, r3, #7936
 1342 0030 6068     		ldr	r0, [r4, #4]
 1343              		.loc 1 5192 11 discriminator 1 view .LVU412
 1344 0032 06F46046 		and	r6, r6, #57344
 1345              		.loc 1 5192 11 discriminator 2 view .LVU413
 1346 0036 1E43     		orrs	r6, r6, r3
 1347 0038 FFF7FEFF 		bl	my_atoui
 1348              	.LVL121:
 1349              		.loc 1 5192 11 discriminator 3 view .LVU414
 1350 003c 030C     		lsrs	r3, r0, #16
 1351 003e 03F0F803 		and	r3, r3, #248
 1352 0042 6068     		ldr	r0, [r4, #4]
 1353 0044 1E43     		orrs	r6, r6, r3
 1354 0046 FFF7FEFF 		bl	my_atoui
 1355              	.LVL122:
 1356              		.loc 1 5193 3 is_stmt 1 view .LVU415
 1357              		.loc 1 5193 26 is_stmt 0 view .LVU416
 1358 004a 074A     		ldr	r2, .L125
 1359              		.loc 1 5193 22 view .LVU417
 1360 004c ADB2     		uxth	r5, r5
 1361              	.LVL123:
 1362              		.loc 1 5193 26 view .LVU418
 1363 004e 02EB4502 		add	r2, r2, r5, lsl #1
 1364              		.loc 1 5192 11 discriminator 4 view .LVU419
 1365 0052 C0F34233 		ubfx	r3, r0, #13, #3
 1366              		.loc 1 5192 9 discriminator 4 view .LVU420
 1367 0056 3343     		orrs	r3, r3, r6
ARM GAS  C:\msys64\tmp\ccb7DTfv.s 			page 25


 1368              		.loc 1 5195 3 view .LVU421
 1369 0058 40F21A30 		movw	r0, #794
 1370              	.LVL124:
 1371              		.loc 1 5196 1 view .LVU422
 1372 005c BDE87040 		pop	{r4, r5, r6, lr}
 1373              		.cfi_restore 14
 1374              		.cfi_restore 6
 1375              		.cfi_restore 5
 1376              		.cfi_restore 4
 1377              		.cfi_def_cfa_offset 0
 1378              	.LVL125:
 1379              		.loc 1 5193 26 view .LVU423
 1380 0060 D383     		strh	r3, [r2, #30]	@ movhi
 1381              		.loc 1 5195 3 is_stmt 1 view .LVU424
 1382 0062 FFF7FEBF 		b	request_to_redraw
 1383              	.LVL126:
 1384              	.L126:
 1385 0066 00BF     		.align	2
 1386              	.L125:
 1387 0068 00000000 		.word	config
 1388              		.cfi_endproc
 1389              	.LFE357:
 1390              		.size	cmd_color, .-cmd_color
 1391              		.section	.text.cmd_threshold,"ax",%progbits
 1392              		.align	1
 1393              		.p2align 4,,15
 1394              		.syntax unified
 1395              		.thumb
 1396              		.thumb_func
 1397              		.type	cmd_threshold, %function
 1398              	cmd_threshold:
 1399              	.LVL127:
 1400              	.LFB284:
 1401              		.loc 1 2995 1 view -0
 1402              		.cfi_startproc
 1403              		@ args = 0, pretend = 0, frame = 0
 1404              		@ frame_needed = 0, uses_anonymous_args = 0
 1405              		.loc 1 2996 3 view .LVU426
 1406              		.loc 1 2997 3 view .LVU427
 1407              		.loc 1 2997 6 is_stmt 0 view .LVU428
 1408 0000 0128     		cmp	r0, #1
 1409 0002 00D0     		beq	.L133
 1410 0004 7047     		bx	lr
 1411              	.L133:
 1412              		.loc 1 3004 3 is_stmt 1 view .LVU429
 1413              		.loc 1 2995 1 is_stmt 0 view .LVU430
 1414 0006 08B5     		push	{r3, lr}
 1415              		.cfi_def_cfa_offset 8
 1416              		.cfi_offset 3, -8
 1417              		.cfi_offset 14, -4
 1418              		.loc 1 3004 11 view .LVU431
 1419 0008 0868     		ldr	r0, [r1]
 1420              	.LVL128:
 1421              		.loc 1 3004 11 view .LVU432
 1422 000a FFF7FEFF 		bl	my_atoui
 1423              	.LVL129:
 1424              		.loc 1 3005 3 is_stmt 1 view .LVU433
ARM GAS  C:\msys64\tmp\ccb7DTfv.s 			page 26


 1425              		.loc 1 3005 35 is_stmt 0 view .LVU434
 1426 000e 014B     		ldr	r3, .L134
 1427 0010 5860     		str	r0, [r3, #4]
 1428              		.loc 1 3006 1 view .LVU435
 1429 0012 08BD     		pop	{r3, pc}
 1430              	.L135:
 1431              		.align	2
 1432              	.L134:
 1433 0014 00000000 		.word	config
 1434              		.cfi_endproc
 1435              	.LFE284:
 1436              		.size	cmd_threshold, .-cmd_threshold
 1437              		.section	.text.cmd_vbat_offset,"ax",%progbits
 1438              		.align	1
 1439              		.p2align 4,,15
 1440              		.syntax unified
 1441              		.thumb
 1442              		.thumb_func
 1443              		.type	cmd_vbat_offset, %function
 1444              	cmd_vbat_offset:
 1445              	.LVL130:
 1446              	.LFB355:
 1447              		.loc 1 5108 1 is_stmt 1 view -0
 1448              		.cfi_startproc
 1449              		@ args = 0, pretend = 0, frame = 0
 1450              		@ frame_needed = 0, uses_anonymous_args = 0
 1451              		.loc 1 5109 3 view .LVU437
 1452              		.loc 1 5109 6 is_stmt 0 view .LVU438
 1453 0000 0128     		cmp	r0, #1
 1454 0002 00D0     		beq	.L142
 1455 0004 7047     		bx	lr
 1456              	.L142:
 1457              		.loc 1 5114 3 is_stmt 1 view .LVU439
 1458              		.loc 1 5108 1 is_stmt 0 view .LVU440
 1459 0006 08B5     		push	{r3, lr}
 1460              		.cfi_def_cfa_offset 8
 1461              		.cfi_offset 3, -8
 1462              		.cfi_offset 14, -4
 1463              		.loc 1 5114 34 view .LVU441
 1464 0008 0868     		ldr	r0, [r1]
 1465              	.LVL131:
 1466              		.loc 1 5114 34 view .LVU442
 1467 000a FFF7FEFF 		bl	my_atoi
 1468              	.LVL132:
 1469              		.loc 1 5114 23 discriminator 1 view .LVU443
 1470 000e 014B     		ldr	r3, .L143
 1471              		.loc 1 5114 25 discriminator 1 view .LVU444
 1472 0010 1883     		strh	r0, [r3, #24]	@ movhi
 1473              		.loc 1 5115 1 view .LVU445
 1474 0012 08BD     		pop	{r3, pc}
 1475              	.L144:
 1476              		.align	2
 1477              	.L143:
 1478 0014 00000000 		.word	config
 1479              		.cfi_endproc
 1480              	.LFE355:
 1481              		.size	cmd_vbat_offset, .-cmd_vbat_offset
ARM GAS  C:\msys64\tmp\ccb7DTfv.s 			page 27


 1482              		.section	.text.cmd_dump,"ax",%progbits
 1483              		.align	1
 1484              		.p2align 4,,15
 1485              		.syntax unified
 1486              		.thumb
 1487              		.thumb_func
 1488              		.type	cmd_dump, %function
 1489              	cmd_dump:
 1490              	.LVL133:
 1491              	.LFB299:
 1492              		.loc 1 3589 1 is_stmt 1 view -0
 1493              		.cfi_startproc
 1494              		@ args = 0, pretend = 0, frame = 384
 1495              		@ frame_needed = 0, uses_anonymous_args = 0
 1496              		.loc 1 3590 3 view .LVU447
 1497              		.loc 1 3591 3 view .LVU448
 1498              		.loc 1 3592 3 view .LVU449
 1499              		.loc 1 3589 1 is_stmt 0 view .LVU450
 1500 0000 10B5     		push	{r4, lr}
 1501              		.cfi_def_cfa_offset 8
 1502              		.cfi_offset 4, -8
 1503              		.cfi_offset 14, -4
 1504              		.loc 1 3592 15 view .LVU451
 1505 0002 164B     		ldr	r3, .L152
 1506              		.loc 1 3593 12 view .LVU452
 1507 0004 164C     		ldr	r4, .L152+4
 1508              		.loc 1 3589 1 view .LVU453
 1509 0006 E0B0     		sub	sp, sp, #384
 1510              		.cfi_def_cfa_offset 392
 1511              		.loc 1 3592 15 view .LVU454
 1512 0008 C3F800D0 		str	sp, [r3]
 1513              		.loc 1 3593 3 is_stmt 1 view .LVU455
 1514              		.loc 1 3593 12 is_stmt 0 view .LVU456
 1515 000c C023     		movs	r3, #192
 1516 000e 2380     		strh	r3, [r4]	@ movhi
 1517              		.loc 1 3594 3 is_stmt 1 view .LVU457
 1518              		.loc 1 3595 6 is_stmt 0 view .LVU458
 1519 0010 0128     		cmp	r0, #1
 1520              		.loc 1 3594 7 view .LVU459
 1521 0012 2388     		ldrh	r3, [r4]
 1522              	.LVL134:
 1523              		.loc 1 3595 3 is_stmt 1 view .LVU460
 1524              		.loc 1 3595 6 is_stmt 0 view .LVU461
 1525 0014 19D0     		beq	.L151
 1526              	.LVL135:
 1527              	.L146:
 1528              		.loc 1 3598 3 is_stmt 1 view .LVU462
 1529 0016 0020     		movs	r0, #0
 1530 0018 FFF7FEFF 		bl	tlv320aic3204_select
 1531              	.LVL136:
 1532              		.loc 1 3599 3 view .LVU463
 1533              	.LBB189:
 1534              	.LBI189:
 1535              		.file 3 "ChibiOS/os/rt/include/chvt.h"
 1536              		.loc 3 228 25 view .LVU464
 1537              		.loc 3 233 3 view .LVU465
 1538              	.LBB190:
ARM GAS  C:\msys64\tmp\ccb7DTfv.s 			page 28


 1539              	.LBI190:
 1540              		.file 4 "ChibiOS/os/common/ports/ARMCMx/chcore_timer.h"
 1541              		.loc 4 105 25 view .LVU466
 1542              		.loc 4 107 3 view .LVU467
 1543              	.LBB191:
 1544              	.LBI191:
 1545              		.file 5 "ChibiOS/os/hal/ports/STM32/LLD/TIMv1/hal_st_lld.h"
 1546              		.loc 5 139 25 view .LVU468
 1547              	.LBB192:
 1548              		.loc 5 141 3 view .LVU469
 1549              	.LBE192:
 1550              	.LBE191:
 1551              	.LBE190:
 1552              	.LBE189:
 1553              		.loc 1 3599 3 is_stmt 0 discriminator 1 view .LVU470
 1554 001c 114B     		ldr	r3, .L152+8
 1555 001e 1249     		ldr	r1, .L152+12
 1556 0020 5B8B     		ldrh	r3, [r3, #26]
 1557              	.LBB199:
 1558              	.LBB197:
 1559              	.LBB195:
 1560              	.LBB193:
 1561              		.loc 5 141 10 view .LVU471
 1562 0022 4FF08042 		mov	r2, #1073741824
 1563              	.LBE193:
 1564              	.LBE195:
 1565              	.LBE197:
 1566              	.LBE199:
 1567              		.loc 1 3599 3 discriminator 1 view .LVU472
 1568 0026 0233     		adds	r3, r3, #2
 1569 0028 9BB2     		uxth	r3, r3
 1570              	.LBB200:
 1571              	.LBB198:
 1572              	.LBB196:
 1573              	.LBB194:
 1574              		.loc 5 141 10 view .LVU473
 1575 002a 526A     		ldr	r2, [r2, #36]
 1576              	.LBE194:
 1577              	.LBE196:
 1578              	.LBE198:
 1579              	.LBE200:
 1580              		.loc 1 3599 3 discriminator 1 view .LVU474
 1581 002c 0B80     		strh	r3, [r1]	@ movhi
 1582              		.loc 1 3600 19 view .LVU475
 1583 002e 2388     		ldrh	r3, [r4]
 1584              		.loc 1 3599 3 discriminator 1 view .LVU476
 1585 0030 0E49     		ldr	r1, .L152+16
 1586              		.loc 1 3600 19 view .LVU477
 1587 0032 1BB2     		sxth	r3, r3
 1588              		.loc 1 3599 3 discriminator 1 view .LVU478
 1589 0034 C832     		adds	r2, r2, #200
 1590              		.loc 1 3600 19 view .LVU479
 1591 0036 002B     		cmp	r3, #0
 1592              		.loc 1 3599 3 discriminator 1 view .LVU480
 1593 0038 0A60     		str	r2, [r1]
 1594              		.loc 1 3599 3 is_stmt 1 discriminator 1 view .LVU481
 1595              		.loc 1 3599 31 discriminator 1 view .LVU482
ARM GAS  C:\msys64\tmp\ccb7DTfv.s 			page 29


 1596              		.loc 1 3600 3 view .LVU483
 1597              		.loc 1 3600 19 view .LVU484
 1598 003a 04DD     		ble	.L145
 1599              	.L148:
 1600              		.loc 1 3602 5 view .LVU485
 1601              	.LBB201:
 1602              	.LBI201:
 1603              		.file 6 "ChibiOS/os/common/ext/CMSIS/include/core_cmInstr.h"
 1604              		.loc 6 432 53 view .LVU486
 1605              	.LBB202:
 1606              		.loc 6 434 3 view .LVU487
 1607              		.syntax unified
 1608              	@ 434 "ChibiOS/os/common/ext/CMSIS/include/core_cmInstr.h" 1
 1609 003c 30BF     		wfi
 1610              	@ 0 "" 2
 1611              		.thumb
 1612              		.syntax unified
 1613              	.LBE202:
 1614              	.LBE201:
 1615              		.loc 1 3600 19 view .LVU488
 1616 003e 2388     		ldrh	r3, [r4]
 1617 0040 1BB2     		sxth	r3, r3
 1618 0042 002B     		cmp	r3, #0
 1619 0044 FADC     		bgt	.L148
 1620              	.L145:
 1621              		.loc 1 3613 1 is_stmt 0 view .LVU489
 1622 0046 60B0     		add	sp, sp, #384
 1623              		.cfi_remember_state
 1624              		.cfi_def_cfa_offset 8
 1625              		@ sp needed
 1626 0048 10BD     		pop	{r4, pc}
 1627              	.LVL137:
 1628              	.L151:
 1629              		.cfi_restore_state
 1630              		.loc 1 3596 5 is_stmt 1 view .LVU490
 1631              		.loc 1 3596 22 is_stmt 0 view .LVU491
 1632 004a 0868     		ldr	r0, [r1]
 1633              	.LVL138:
 1634              		.loc 1 3596 22 view .LVU492
 1635 004c FFF7FEFF 		bl	my_atoi
 1636              	.LVL139:
 1637              		.loc 1 3596 20 discriminator 1 view .LVU493
 1638 0050 074B     		ldr	r3, .L152+20
 1639              		.loc 1 3596 48 discriminator 1 view .LVU494
 1640 0052 0138     		subs	r0, r0, #1
 1641 0054 18BF     		it	ne
 1642 0056 0120     		movne	r0, #1
 1643              		.loc 1 3596 20 discriminator 1 view .LVU495
 1644 0058 1880     		strh	r0, [r3]	@ movhi
 1645 005a DCE7     		b	.L146
 1646              	.L153:
 1647              		.align	2
 1648              	.L152:
 1649 005c 00000000 		.word	dump_buffer
 1650 0060 00000000 		.word	dump_len
 1651 0064 00000000 		.word	config
 1652 0068 00000000 		.word	wait_count
ARM GAS  C:\msys64\tmp\ccb7DTfv.s 			page 30


 1653 006c 00000000 		.word	ready_time
 1654 0070 00000000 		.word	dump_selection
 1655              		.cfi_endproc
 1656              	.LFE299:
 1657              		.size	cmd_dump, .-cmd_dump
 1658              		.section	.text.cmd_data,"ax",%progbits
 1659              		.align	1
 1660              		.p2align 4,,15
 1661              		.syntax unified
 1662              		.thumb
 1663              		.thumb_func
 1664              		.type	cmd_data, %function
 1665              	cmd_data:
 1666              	.LVL140:
 1667              	.LFB287:
 1668              		.loc 1 3036 1 is_stmt 1 view -0
 1669              		.cfi_startproc
 1670              		@ args = 0, pretend = 0, frame = 0
 1671              		@ frame_needed = 0, uses_anonymous_args = 0
 1672              		@ link register save eliminated.
 1673              		.loc 1 3037 3 view .LVU497
 1674              		.loc 1 3038 3 view .LVU498
 1675              		.loc 1 3039 3 view .LVU499
 1676              		.loc 1 3040 3 view .LVU500
 1677              		.loc 1 3040 6 is_stmt 0 view .LVU501
 1678 0000 0128     		cmp	r0, #1
 1679 0002 00D0     		beq	.L156
 1680              		.loc 1 3052 1 view .LVU502
 1681 0004 7047     		bx	lr
 1682              	.L156:
 1683              		.loc 1 3041 5 is_stmt 1 view .LVU503
 1684              		.loc 1 3041 11 is_stmt 0 view .LVU504
 1685 0006 0868     		ldr	r0, [r1]
 1686              	.LVL141:
 1687              		.loc 1 3041 11 view .LVU505
 1688 0008 FFF7FEBF 		b	my_atoi
 1689              	.LVL142:
 1690              		.loc 1 3041 11 view .LVU506
 1691              		.cfi_endproc
 1692              	.LFE287:
 1693              		.size	cmd_data, .-cmd_data
 1694              		.section	.text.cmd_config,"ax",%progbits
 1695              		.align	1
 1696              		.p2align 4,,15
 1697              		.syntax unified
 1698              		.thumb
 1699              		.thumb_func
 1700              		.type	cmd_config, %function
 1701              	cmd_config:
 1702              	.LVL143:
 1703              	.LFB277:
 1704              		.loc 1 2824 1 is_stmt 1 view -0
 1705              		.cfi_startproc
 1706              		@ args = 0, pretend = 0, frame = 0
 1707              		@ frame_needed = 0, uses_anonymous_args = 0
 1708              		.loc 1 2825 3 view .LVU508
 1709              		.loc 1 2849 3 view .LVU509
ARM GAS  C:\msys64\tmp\ccb7DTfv.s 			page 31


 1710              		.loc 1 2850 3 view .LVU510
 1711              		.loc 1 2850 6 is_stmt 0 view .LVU511
 1712 0000 0228     		cmp	r0, #2
 1713 0002 00D0     		beq	.L165
 1714 0004 7047     		bx	lr
 1715              	.L165:
 1716              		.loc 1 2824 1 view .LVU512
 1717 0006 38B5     		push	{r3, r4, r5, lr}
 1718              		.cfi_def_cfa_offset 16
 1719              		.cfi_offset 3, -16
 1720              		.cfi_offset 4, -12
 1721              		.cfi_offset 5, -8
 1722              		.cfi_offset 14, -4
 1723 0008 0C46     		mov	r4, r1
 1724              		.loc 1 2850 27 discriminator 1 view .LVU513
 1725 000a 0849     		ldr	r1, .L167
 1726              	.LVL144:
 1727              		.loc 1 2850 27 discriminator 1 view .LVU514
 1728 000c 2068     		ldr	r0, [r4]
 1729              	.LVL145:
 1730              		.loc 1 2850 27 discriminator 1 view .LVU515
 1731 000e FFF7FEFF 		bl	get_str_index
 1732              	.LVL146:
 1733              		.loc 1 2850 17 discriminator 1 view .LVU516
 1734 0012 051E     		subs	r5, r0, #0
 1735 0014 00DA     		bge	.L166
 1736              		.loc 1 2856 1 view .LVU517
 1737 0016 38BD     		pop	{r3, r4, r5, pc}
 1738              	.LVL147:
 1739              	.L166:
 1740              		.loc 1 2852 5 is_stmt 1 view .LVU518
 1741              		.loc 1 2852 25 is_stmt 0 view .LVU519
 1742 0018 6068     		ldr	r0, [r4, #4]
 1743              	.LVL148:
 1744              		.loc 1 2852 25 view .LVU520
 1745 001a FFF7FEFF 		bl	my_atoui
 1746              	.LVL149:
 1747              		.loc 1 2852 5 discriminator 1 view .LVU521
 1748 001e C1B2     		uxtb	r1, r0
 1749 0020 A8B2     		uxth	r0, r5
 1750              		.loc 1 2856 1 view .LVU522
 1751 0022 BDE83840 		pop	{r3, r4, r5, lr}
 1752              		.cfi_restore 14
 1753              		.cfi_restore 5
 1754              		.cfi_restore 4
 1755              		.cfi_restore 3
 1756              		.cfi_def_cfa_offset 0
 1757              	.LVL150:
 1758              		.loc 1 2852 5 discriminator 1 view .LVU523
 1759 0026 FFF7FEBF 		b	apply_VNA_mode
 1760              	.LVL151:
 1761              	.L168:
 1762 002a 00BF     		.align	2
 1763              	.L167:
 1764 002c 00000000 		.word	cmd_mode_list.13
 1765              		.cfi_endproc
 1766              	.LFE277:
ARM GAS  C:\msys64\tmp\ccb7DTfv.s 			page 32


 1767              		.size	cmd_config, .-cmd_config
 1768              		.section	.rodata.cmd_reset.str1.4,"aMS",%progbits,1
 1769              		.align	2
 1770              	.LC1:
 1771 0000 64667500 		.ascii	"dfu\000"
 1772              		.section	.text.cmd_reset,"ax",%progbits
 1773              		.align	1
 1774              		.p2align 4,,15
 1775              		.syntax unified
 1776              		.thumb
 1777              		.thumb_func
 1778              		.type	cmd_reset, %function
 1779              	cmd_reset:
 1780              	.LVL152:
 1781              	.LFB275:
 1782              		.loc 1 2790 1 is_stmt 1 view -0
 1783              		.cfi_startproc
 1784              		@ args = 0, pretend = 0, frame = 0
 1785              		@ frame_needed = 0, uses_anonymous_args = 0
 1786              		.loc 1 2791 3 view .LVU525
 1787              		.loc 1 2792 3 view .LVU526
 1788              		.loc 1 2794 3 view .LVU527
 1789              		.loc 1 2794 6 is_stmt 0 view .LVU528
 1790 0000 0128     		cmp	r0, #1
 1791              		.loc 1 2790 1 view .LVU529
 1792 0002 08B5     		push	{r3, lr}
 1793              		.cfi_def_cfa_offset 8
 1794              		.cfi_offset 3, -8
 1795              		.cfi_offset 14, -4
 1796              		.loc 1 2794 6 view .LVU530
 1797 0004 09D1     		bne	.L170
 1798              		.loc 1 2796 5 is_stmt 1 view .LVU531
 1799 0006 0B46     		mov	r3, r1
 1800              		.loc 1 2796 9 is_stmt 0 view .LVU532
 1801 0008 0A49     		ldr	r1, .L173
 1802              	.LVL153:
 1803              		.loc 1 2796 9 view .LVU533
 1804 000a 1868     		ldr	r0, [r3]
 1805              	.LVL154:
 1806              		.loc 1 2796 9 view .LVU534
 1807 000c FFF7FEFF 		bl	get_str_index
 1808              	.LVL155:
 1809              		.loc 1 2796 8 discriminator 1 view .LVU535
 1810 0010 18B9     		cbnz	r0, .L170
 1811              		.loc 1 2798 7 is_stmt 1 view .LVU536
 1812              		.loc 1 2799 7 view .LVU537
 1813              		.loc 1 2806 1 is_stmt 0 view .LVU538
 1814 0012 BDE80840 		pop	{r3, lr}
 1815              		.cfi_remember_state
 1816              		.cfi_restore 14
 1817              		.cfi_restore 3
 1818              		.cfi_def_cfa_offset 0
 1819              		.loc 1 2799 7 view .LVU539
 1820 0016 FFF7FEBF 		b	ui_enter_dfu
 1821              	.LVL156:
 1822              	.L170:
 1823              		.cfi_restore_state
ARM GAS  C:\msys64\tmp\ccb7DTfv.s 			page 33


 1824              		.loc 1 2804 3 is_stmt 1 view .LVU540
 1825              		.loc 1 2805 3 view .LVU541
 1826              	.LBB211:
 1827              	.LBI211:
 1828              		.file 7 "ChibiOS/os/common/ext/CMSIS/include/core_cm4.h"
 1829              		.loc 7 1721 22 view .LVU542
 1830              	.LBB212:
 1831              		.loc 7 1723 3 view .LVU543
 1832              	.LBB213:
 1833              	.LBI213:
 1834              		.loc 6 476 53 view .LVU544
 1835              	.LBB214:
 1836              		.loc 6 478 3 view .LVU545
 1837              		.syntax unified
 1838              	@ 478 "ChibiOS/os/common/ext/CMSIS/include/core_cmInstr.h" 1
 1839 001a BFF34F8F 		dsb 0xF
 1840              	@ 0 "" 2
 1841              		.thumb
 1842              		.syntax unified
 1843              	.LBE214:
 1844              	.LBE213:
 1845              		.loc 7 1725 3 view .LVU546
 1846              		.loc 7 1726 32 is_stmt 0 view .LVU547
 1847 001e 0649     		ldr	r1, .L173+4
 1848              		.loc 7 1725 17 view .LVU548
 1849 0020 064B     		ldr	r3, .L173+8
 1850              		.loc 7 1726 32 view .LVU549
 1851 0022 CA68     		ldr	r2, [r1, #12]
 1852              		.loc 7 1726 40 view .LVU550
 1853 0024 02F4E062 		and	r2, r2, #1792
 1854              		.loc 7 1725 17 view .LVU551
 1855 0028 1343     		orrs	r3, r3, r2
 1856              		.loc 7 1725 15 view .LVU552
 1857 002a CB60     		str	r3, [r1, #12]
 1858              		.loc 7 1728 3 is_stmt 1 view .LVU553
 1859              	.LBB215:
 1860              	.LBI215:
 1861              		.loc 6 476 53 view .LVU554
 1862              	.LBB216:
 1863              		.loc 6 478 3 view .LVU555
 1864              		.syntax unified
 1865              	@ 478 "ChibiOS/os/common/ext/CMSIS/include/core_cmInstr.h" 1
 1866 002c BFF34F8F 		dsb 0xF
 1867              	@ 0 "" 2
 1868              		.thumb
 1869              		.syntax unified
 1870              	.L171:
 1871              	.LBE216:
 1872              	.LBE215:
 1873              		.loc 7 1729 3 discriminator 1 view .LVU556
 1874              		.loc 7 1729 14 discriminator 1 view .LVU557
 1875              	.LBB217:
 1876              	.LBI217:
 1877              		.loc 6 421 53 view .LVU558
 1878              	.LBB218:
 1879              		.loc 6 423 3 view .LVU559
 1880              		.syntax unified
ARM GAS  C:\msys64\tmp\ccb7DTfv.s 			page 34


 1881              	@ 423 "ChibiOS/os/common/ext/CMSIS/include/core_cmInstr.h" 1
 1882 0030 00BF     		nop
 1883              	@ 0 "" 2
 1884              		.thumb
 1885              		.syntax unified
 1886              	.LBE218:
 1887              	.LBE217:
 1888              		.loc 7 1729 8 discriminator 1 view .LVU560
 1889 0032 FDE7     		b	.L171
 1890              	.L174:
 1891              		.align	2
 1892              	.L173:
 1893 0034 00000000 		.word	.LC1
 1894 0038 00ED00E0 		.word	-536810240
 1895 003c 0400FA05 		.word	100270084
 1896              	.LBE212:
 1897              	.LBE211:
 1898              		.cfi_endproc
 1899              	.LFE275:
 1900              		.size	cmd_reset, .-cmd_reset
 1901              		.section	.text.cmd_tcxo,"ax",%progbits
 1902              		.align	1
 1903              		.p2align 4,,15
 1904              		.syntax unified
 1905              		.thumb
 1906              		.thumb_func
 1907              		.type	cmd_tcxo, %function
 1908              	cmd_tcxo:
 1909              	.LVL157:
 1910              	.LFB311:
 1911              		.loc 1 3865 1 view -0
 1912              		.cfi_startproc
 1913              		@ args = 0, pretend = 0, frame = 0
 1914              		@ frame_needed = 0, uses_anonymous_args = 0
 1915              		.loc 1 3866 3 view .LVU562
 1916              		.loc 1 3866 6 is_stmt 0 view .LVU563
 1917 0000 0128     		cmp	r0, #1
 1918 0002 00D0     		beq	.L180
 1919 0004 7047     		bx	lr
 1920              	.L180:
 1921              		.loc 1 3873 3 is_stmt 1 view .LVU564
 1922              		.loc 1 3865 1 is_stmt 0 view .LVU565
 1923 0006 08B5     		push	{r3, lr}
 1924              		.cfi_def_cfa_offset 8
 1925              		.cfi_offset 3, -8
 1926              		.cfi_offset 14, -4
 1927              		.loc 1 3873 3 view .LVU566
 1928 0008 0868     		ldr	r0, [r1]
 1929              	.LVL158:
 1930              		.loc 1 3873 3 view .LVU567
 1931 000a FFF7FEFF 		bl	my_atoui
 1932              	.LVL159:
 1933              		.loc 1 3874 1 view .LVU568
 1934 000e BDE80840 		pop	{r3, lr}
 1935              		.cfi_restore 14
 1936              		.cfi_restore 3
 1937              		.cfi_def_cfa_offset 0
ARM GAS  C:\msys64\tmp\ccb7DTfv.s 			page 35


 1938              		.loc 1 3873 3 discriminator 1 view .LVU569
 1939 0012 FFF7FEBF 		b	si5351_set_tcxo
 1940              	.LVL160:
 1941              		.cfi_endproc
 1942              	.LFE311:
 1943              		.size	cmd_tcxo, .-cmd_tcxo
 1944 0016 00BF     		.section	.text.cmd_vbat,"ax",%progbits
 1945              		.align	1
 1946              		.p2align 4,,15
 1947              		.syntax unified
 1948              		.thumb
 1949              		.thumb_func
 1950              		.type	cmd_vbat, %function
 1951              	cmd_vbat:
 1952              	.LVL161:
 1953              	.LFB354:
 1954              		.loc 1 5100 1 is_stmt 1 view -0
 1955              		.cfi_startproc
 1956              		@ args = 0, pretend = 0, frame = 0
 1957              		@ frame_needed = 0, uses_anonymous_args = 0
 1958              		@ link register save eliminated.
 1959              		.loc 1 5101 3 view .LVU571
 1960              		.loc 1 5102 3 view .LVU572
 1961              		.loc 1 5103 3 view .LVU573
 1962              		.loc 1 5103 53 is_stmt 0 view .LVU574
 1963 0000 FFF7FEBF 		b	adc_vbat_read
 1964              	.LVL162:
 1965              		.loc 1 5103 53 view .LVU575
 1966              		.cfi_endproc
 1967              	.LFE354:
 1968              		.size	cmd_vbat, .-cmd_vbat
 1969              		.section	.text.cmd_release,"ax",%progbits
 1970              		.align	1
 1971              		.p2align 4,,15
 1972              		.syntax unified
 1973              		.thumb
 1974              		.thumb_func
 1975              		.type	cmd_release, %function
 1976              	cmd_release:
 1977              	.LVL163:
 1978              	.LFB361:
 1979              		.loc 1 5345 1 is_stmt 1 view -0
 1980              		.cfi_startproc
 1981              		@ args = 0, pretend = 0, frame = 0
 1982              		@ frame_needed = 0, uses_anonymous_args = 0
 1983              		.loc 1 5346 3 view .LVU577
 1984              		.loc 1 5347 3 view .LVU578
 1985              		.loc 1 5347 6 is_stmt 0 view .LVU579
 1986 0000 0228     		cmp	r0, #2
 1987              		.loc 1 5345 1 view .LVU580
 1988 0002 38B5     		push	{r3, r4, r5, lr}
 1989              		.cfi_def_cfa_offset 16
 1990              		.cfi_offset 3, -16
 1991              		.cfi_offset 4, -12
 1992              		.cfi_offset 5, -8
 1993              		.cfi_offset 14, -4
 1994              		.loc 1 5347 6 view .LVU581
ARM GAS  C:\msys64\tmp\ccb7DTfv.s 			page 36


 1995 0004 08D0     		beq	.L186
 1996              		.loc 1 5346 19 view .LVU582
 1997 0006 4FF0FF32 		mov	r2, #-1
 1998              		.loc 1 5346 11 view .LVU583
 1999 000a 1546     		mov	r5, r2
 2000              	.LVL164:
 2001              		.loc 1 5352 3 is_stmt 1 view .LVU584
 2002 000c 2946     		mov	r1, r5
 2003              	.LVL165:
 2004              		.loc 1 5352 3 is_stmt 0 view .LVU585
 2005 000e 0220     		movs	r0, #2
 2006              	.LVL166:
 2007              		.loc 1 5353 1 view .LVU586
 2008 0010 BDE83840 		pop	{r3, r4, r5, lr}
 2009              		.cfi_remember_state
 2010              		.cfi_restore 14
 2011              		.cfi_restore 5
 2012              		.cfi_restore 4
 2013              		.cfi_restore 3
 2014              		.cfi_def_cfa_offset 0
 2015              	.LVL167:
 2016              		.loc 1 5352 3 view .LVU587
 2017 0014 FFF7FEBF 		b	remote_touch_set
 2018              	.LVL168:
 2019              	.L186:
 2020              		.cfi_restore_state
 2021              		.loc 1 5349 5 is_stmt 1 view .LVU588
 2022              		.loc 1 5349 9 is_stmt 0 view .LVU589
 2023 0018 0868     		ldr	r0, [r1]
 2024              	.LVL169:
 2025              		.loc 1 5349 9 view .LVU590
 2026 001a 0C46     		mov	r4, r1
 2027 001c FFF7FEFF 		bl	my_atoi
 2028              	.LVL170:
 2029              		.loc 1 5349 7 discriminator 1 view .LVU591
 2030 0020 05B2     		sxth	r5, r0
 2031              	.LVL171:
 2032              		.loc 1 5350 5 is_stmt 1 view .LVU592
 2033              		.loc 1 5350 9 is_stmt 0 view .LVU593
 2034 0022 6068     		ldr	r0, [r4, #4]
 2035 0024 FFF7FEFF 		bl	my_atoi
 2036              	.LVL172:
 2037              		.loc 1 5352 3 view .LVU594
 2038 0028 2946     		mov	r1, r5
 2039              		.loc 1 5350 7 discriminator 1 view .LVU595
 2040 002a 02B2     		sxth	r2, r0
 2041              	.LVL173:
 2042              		.loc 1 5352 3 is_stmt 1 view .LVU596
 2043              		.loc 1 5353 1 is_stmt 0 view .LVU597
 2044 002c BDE83840 		pop	{r3, r4, r5, lr}
 2045              		.cfi_restore 14
 2046              		.cfi_restore 5
 2047              		.cfi_restore 4
 2048              		.cfi_restore 3
 2049              		.cfi_def_cfa_offset 0
 2050              	.LVL174:
 2051              		.loc 1 5352 3 view .LVU598
ARM GAS  C:\msys64\tmp\ccb7DTfv.s 			page 37


 2052 0030 0220     		movs	r0, #2
 2053 0032 FFF7FEBF 		b	remote_touch_set
 2054              	.LVL175:
 2055              		.loc 1 5352 3 view .LVU599
 2056              		.cfi_endproc
 2057              	.LFE361:
 2058              		.size	cmd_release, .-cmd_release
 2059 0036 00BF     		.section	.text.cmd_touch,"ax",%progbits
 2060              		.align	1
 2061              		.p2align 4,,15
 2062              		.syntax unified
 2063              		.thumb
 2064              		.thumb_func
 2065              		.type	cmd_touch, %function
 2066              	cmd_touch:
 2067              	.LVL176:
 2068              	.LFB360:
 2069              		.loc 1 5338 1 is_stmt 1 view -0
 2070              		.cfi_startproc
 2071              		@ args = 0, pretend = 0, frame = 0
 2072              		@ frame_needed = 0, uses_anonymous_args = 0
 2073              		.loc 1 5339 3 view .LVU601
 2074              		.loc 1 5339 6 is_stmt 0 view .LVU602
 2075 0000 0228     		cmp	r0, #2
 2076 0002 00D0     		beq	.L192
 2077 0004 7047     		bx	lr
 2078              	.L192:
 2079              		.loc 1 5341 3 is_stmt 1 view .LVU603
 2080              		.loc 1 5338 1 is_stmt 0 view .LVU604
 2081 0006 38B5     		push	{r3, r4, r5, lr}
 2082              		.cfi_def_cfa_offset 16
 2083              		.cfi_offset 3, -16
 2084              		.cfi_offset 4, -12
 2085              		.cfi_offset 5, -8
 2086              		.cfi_offset 14, -4
 2087              		.loc 1 5341 34 view .LVU605
 2088 0008 0868     		ldr	r0, [r1]
 2089              	.LVL177:
 2090              		.loc 1 5341 34 view .LVU606
 2091 000a 0C46     		mov	r4, r1
 2092 000c FFF7FEFF 		bl	my_atoi
 2093              	.LVL178:
 2094              		.loc 1 5341 34 view .LVU607
 2095 0010 0546     		mov	r5, r0
 2096              		.loc 1 5341 52 discriminator 1 view .LVU608
 2097 0012 6068     		ldr	r0, [r4, #4]
 2098 0014 FFF7FEFF 		bl	my_atoi
 2099              	.LVL179:
 2100              		.loc 1 5341 3 discriminator 2 view .LVU609
 2101 0018 29B2     		sxth	r1, r5
 2102 001a 02B2     		sxth	r2, r0
 2103              		.loc 1 5342 1 view .LVU610
 2104 001c BDE83840 		pop	{r3, r4, r5, lr}
 2105              		.cfi_restore 14
 2106              		.cfi_restore 5
 2107              		.cfi_restore 4
 2108              		.cfi_restore 3
ARM GAS  C:\msys64\tmp\ccb7DTfv.s 			page 38


 2109              		.cfi_def_cfa_offset 0
 2110              	.LVL180:
 2111              		.loc 1 5341 3 discriminator 2 view .LVU611
 2112 0020 0120     		movs	r0, #1
 2113 0022 FFF7FEBF 		b	remote_touch_set
 2114              	.LVL181:
 2115              		.cfi_endproc
 2116              	.LFE360:
 2117              		.size	cmd_touch, .-cmd_touch
 2118 0026 00BF     		.section	.text.cmd_save,"ax",%progbits
 2119              		.align	1
 2120              		.p2align 4,,15
 2121              		.syntax unified
 2122              		.thumb
 2123              		.thumb_func
 2124              		.type	cmd_save, %function
 2125              	cmd_save:
 2126              	.LVL182:
 2127              	.LFB330:
 2128              		.loc 1 4524 1 is_stmt 1 view -0
 2129              		.cfi_startproc
 2130              		@ args = 0, pretend = 0, frame = 0
 2131              		@ frame_needed = 0, uses_anonymous_args = 0
 2132              		.loc 1 4525 3 view .LVU613
 2133              		.loc 1 4526 3 view .LVU614
 2134              		.loc 1 4526 6 is_stmt 0 view .LVU615
 2135 0000 0128     		cmp	r0, #1
 2136 0002 00D0     		beq	.L201
 2137 0004 7047     		bx	lr
 2138              	.L201:
 2139              		.loc 1 4524 1 view .LVU616
 2140 0006 08B5     		push	{r3, lr}
 2141              		.cfi_def_cfa_offset 8
 2142              		.cfi_offset 3, -8
 2143              		.cfi_offset 14, -4
 2144              		.loc 1 4526 26 discriminator 1 view .LVU617
 2145 0008 0868     		ldr	r0, [r1]
 2146              	.LVL183:
 2147              		.loc 1 4526 26 discriminator 1 view .LVU618
 2148 000a FFF7FEFF 		bl	my_atoui
 2149              	.LVL184:
 2150              		.loc 1 4526 17 discriminator 1 view .LVU619
 2151 000e 0628     		cmp	r0, #6
 2152 0010 00D9     		bls	.L202
 2153              		.loc 1 4533 1 view .LVU620
 2154 0012 08BD     		pop	{r3, pc}
 2155              	.L202:
 2156              		.loc 1 4528 5 is_stmt 1 view .LVU621
 2157 0014 FFF7FEFF 		bl	caldata_save
 2158              	.LVL185:
 2159              		.loc 1 4529 5 view .LVU622
 2160              		.loc 1 4533 1 is_stmt 0 view .LVU623
 2161 0018 BDE80840 		pop	{r3, lr}
 2162              		.cfi_restore 14
 2163              		.cfi_restore 3
 2164              		.cfi_def_cfa_offset 0
 2165              		.loc 1 4529 5 view .LVU624
ARM GAS  C:\msys64\tmp\ccb7DTfv.s 			page 39


 2166 001c 1020     		movs	r0, #16
 2167 001e FFF7FEBF 		b	request_to_redraw
 2168              	.LVL186:
 2169              		.cfi_endproc
 2170              	.LFE330:
 2171              		.size	cmd_save, .-cmd_save
 2172 0022 00BF     		.section	.text.cmd_msg,"ax",%progbits
 2173              		.align	1
 2174              		.p2align 4,,15
 2175              		.syntax unified
 2176              		.thumb
 2177              		.thumb_func
 2178              		.type	cmd_msg, %function
 2179              	cmd_msg:
 2180              	.LVL187:
 2181              	.LFB366:
 2182              		.loc 1 5444 1 is_stmt 1 view -0
 2183              		.cfi_startproc
 2184              		@ args = 0, pretend = 0, frame = 0
 2185              		@ frame_needed = 0, uses_anonymous_args = 0
 2186              		.loc 1 5445 3 view .LVU626
 2187              		.loc 1 5445 6 is_stmt 0 view .LVU627
 2188 0000 00B9     		cbnz	r0, .L211
 2189 0002 7047     		bx	lr
 2190              	.L211:
 2191              		.loc 1 5450 3 is_stmt 1 view .LVU628
 2192              		.loc 1 5444 1 is_stmt 0 view .LVU629
 2193 0004 38B5     		push	{r3, r4, r5, lr}
 2194              		.cfi_def_cfa_offset 16
 2195              		.cfi_offset 3, -16
 2196              		.cfi_offset 4, -12
 2197              		.cfi_offset 5, -8
 2198              		.cfi_offset 14, -4
 2199 0006 0446     		mov	r4, r0
 2200              		.loc 1 5450 20 view .LVU630
 2201 0008 0868     		ldr	r0, [r1]
 2202              	.LVL188:
 2203              		.loc 1 5450 20 view .LVU631
 2204 000a 0D46     		mov	r5, r1
 2205 000c FFF7FEFF 		bl	my_atoui
 2206              	.LVL189:
 2207              		.loc 1 5452 6 view .LVU632
 2208 0010 012C     		cmp	r4, #1
 2209              		.loc 1 5450 20 view .LVU633
 2210 0012 0246     		mov	r2, r0
 2211              	.LVL190:
 2212              		.loc 1 5451 3 is_stmt 1 view .LVU634
 2213              		.loc 1 5452 3 view .LVU635
 2214              		.loc 1 5452 6 is_stmt 0 view .LVU636
 2215 0014 07DD     		ble	.L206
 2216              		.loc 1 5453 5 is_stmt 1 view .LVU637
 2217              		.loc 1 5454 6 is_stmt 0 view .LVU638
 2218 0016 022C     		cmp	r4, #2
 2219              		.loc 1 5453 10 view .LVU639
 2220 0018 6968     		ldr	r1, [r5, #4]
 2221              	.LVL191:
 2222              		.loc 1 5454 3 is_stmt 1 view .LVU640
ARM GAS  C:\msys64\tmp\ccb7DTfv.s 			page 40


 2223              		.loc 1 5454 6 is_stmt 0 view .LVU641
 2224 001a 0AD0     		beq	.L207
 2225              		.loc 1 5455 5 is_stmt 1 view .LVU642
 2226              		.loc 1 5455 12 is_stmt 0 view .LVU643
 2227 001c A868     		ldr	r0, [r5, #8]
 2228              	.LVL192:
 2229              		.loc 1 5456 3 is_stmt 1 view .LVU644
 2230              		.loc 1 5457 1 is_stmt 0 view .LVU645
 2231 001e BDE83840 		pop	{r3, r4, r5, lr}
 2232              		.cfi_remember_state
 2233              		.cfi_restore 14
 2234              		.cfi_restore 5
 2235              		.cfi_restore 4
 2236              		.cfi_restore 3
 2237              		.cfi_def_cfa_offset 0
 2238              	.LVL193:
 2239              		.loc 1 5456 3 view .LVU646
 2240 0022 FFF7FEBF 		b	ui_message_box
 2241              	.LVL194:
 2242              	.L206:
 2243              		.cfi_restore_state
 2244              		.loc 1 5451 22 view .LVU647
 2245 0026 0021     		movs	r1, #0
 2246              		.loc 1 5451 9 view .LVU648
 2247 0028 0846     		mov	r0, r1
 2248              	.LVL195:
 2249              	.L205:
 2250              		.loc 1 5456 3 is_stmt 1 view .LVU649
 2251              		.loc 1 5457 1 is_stmt 0 view .LVU650
 2252 002a BDE83840 		pop	{r3, r4, r5, lr}
 2253              		.cfi_remember_state
 2254              		.cfi_restore 14
 2255              		.cfi_restore 5
 2256              		.cfi_restore 4
 2257              		.cfi_restore 3
 2258              		.cfi_def_cfa_offset 0
 2259              	.LVL196:
 2260              		.loc 1 5456 3 view .LVU651
 2261 002e FFF7FEBF 		b	ui_message_box
 2262              	.LVL197:
 2263              	.L207:
 2264              		.cfi_restore_state
 2265              		.loc 1 5451 9 view .LVU652
 2266 0032 0020     		movs	r0, #0
 2267              	.LVL198:
 2268              		.loc 1 5451 9 view .LVU653
 2269 0034 F9E7     		b	.L205
 2270              		.cfi_endproc
 2271              	.LFE366:
 2272              		.size	cmd_msg, .-cmd_msg
 2273 0036 00BF     		.section	.text.cmd_touchtest,"ax",%progbits
 2274              		.align	1
 2275              		.p2align 4,,15
 2276              		.syntax unified
 2277              		.thumb
 2278              		.thumb_func
 2279              		.type	cmd_touchtest, %function
ARM GAS  C:\msys64\tmp\ccb7DTfv.s 			page 41


 2280              	cmd_touchtest:
 2281              	.LVL199:
 2282              	.LFB347:
 2283              		.loc 1 4853 1 is_stmt 1 view -0
 2284              		.cfi_startproc
 2285              		@ args = 0, pretend = 0, frame = 0
 2286              		@ frame_needed = 0, uses_anonymous_args = 0
 2287              		@ link register save eliminated.
 2288              		.loc 1 4854 3 view .LVU655
 2289              		.loc 1 4855 3 view .LVU656
 2290              		.loc 1 4856 3 view .LVU657
 2291 0000 FFF7FEBF 		b	ui_touch_draw_test
 2292              	.LVL200:
 2293              		.loc 1 4856 3 is_stmt 0 view .LVU658
 2294              		.cfi_endproc
 2295              	.LFE347:
 2296              		.size	cmd_touchtest, .-cmd_touchtest
 2297              		.section	.text.cmd_touchcal,"ax",%progbits
 2298              		.align	1
 2299              		.p2align 4,,15
 2300              		.syntax unified
 2301              		.thumb
 2302              		.thumb_func
 2303              		.type	cmd_touchcal, %function
 2304              	cmd_touchcal:
 2305              	.LVL201:
 2306              	.LFB346:
 2307              		.loc 1 4841 1 is_stmt 1 view -0
 2308              		.cfi_startproc
 2309              		@ args = 0, pretend = 0, frame = 0
 2310              		@ frame_needed = 0, uses_anonymous_args = 0
 2311              		.loc 1 4842 3 view .LVU660
 2312              		.loc 1 4843 3 view .LVU661
 2313              		.loc 1 4844 3 view .LVU662
 2314              		.loc 1 4845 3 view .LVU663
 2315              		.loc 1 4841 1 is_stmt 0 view .LVU664
 2316 0000 08B5     		push	{r3, lr}
 2317              		.cfi_def_cfa_offset 8
 2318              		.cfi_offset 3, -8
 2319              		.cfi_offset 14, -4
 2320              		.loc 1 4845 3 view .LVU665
 2321 0002 FFF7FEFF 		bl	ui_touch_cal_exec
 2322              	.LVL202:
 2323              		.loc 1 4846 3 is_stmt 1 view .LVU666
 2324              		.loc 1 4849 3 view .LVU667
 2325              		.loc 1 4850 1 is_stmt 0 view .LVU668
 2326 0006 BDE80840 		pop	{r3, lr}
 2327              		.cfi_restore 14
 2328              		.cfi_restore 3
 2329              		.cfi_def_cfa_offset 0
 2330              		.loc 1 4849 3 view .LVU669
 2331 000a 40F21A30 		movw	r0, #794
 2332 000e FFF7FEBF 		b	request_to_redraw
 2333              	.LVL203:
 2334              		.cfi_endproc
 2335              	.LFE346:
 2336              		.size	cmd_touchcal, .-cmd_touchcal
ARM GAS  C:\msys64\tmp\ccb7DTfv.s 			page 42


 2337 0012 00BF     		.section	.rodata.cmd_clearconfig.str1.4,"aMS",%progbits,1
 2338              		.align	2
 2339              	.LC2:
 2340 0000 31323334 		.ascii	"1234\000"
 2340      00
 2341              		.section	.text.cmd_clearconfig,"ax",%progbits
 2342              		.align	1
 2343              		.p2align 4,,15
 2344              		.syntax unified
 2345              		.thumb
 2346              		.thumb_func
 2347              		.type	cmd_clearconfig, %function
 2348              	cmd_clearconfig:
 2349              	.LVL204:
 2350              	.LFB286:
 2351              		.loc 1 3017 1 is_stmt 1 view -0
 2352              		.cfi_startproc
 2353              		@ args = 0, pretend = 0, frame = 0
 2354              		@ frame_needed = 0, uses_anonymous_args = 0
 2355              		.loc 1 3018 3 view .LVU671
 2356              		.loc 1 3018 6 is_stmt 0 view .LVU672
 2357 0000 0128     		cmp	r0, #1
 2358 0002 00D0     		beq	.L223
 2359 0004 7047     		bx	lr
 2360              	.L223:
 2361              		.loc 1 3024 3 is_stmt 1 view .LVU673
 2362              		.loc 1 3017 1 is_stmt 0 view .LVU674
 2363 0006 08B5     		push	{r3, lr}
 2364              		.cfi_def_cfa_offset 8
 2365              		.cfi_offset 3, -8
 2366              		.cfi_offset 14, -4
 2367 0008 0B46     		mov	r3, r1
 2368              		.loc 1 3024 7 view .LVU675
 2369 000a 0549     		ldr	r1, .L225
 2370              	.LVL205:
 2371              		.loc 1 3024 7 view .LVU676
 2372 000c 1868     		ldr	r0, [r3]
 2373              	.LVL206:
 2374              		.loc 1 3024 7 view .LVU677
 2375 000e FFF7FEFF 		bl	get_str_index
 2376              	.LVL207:
 2377              		.loc 1 3024 6 discriminator 1 view .LVU678
 2378 0012 00B1     		cbz	r0, .L224
 2379              		.loc 1 3033 1 view .LVU679
 2380 0014 08BD     		pop	{r3, pc}
 2381              	.L224:
 2382              		.loc 1 3030 3 is_stmt 1 view .LVU680
 2383              		.loc 1 3033 1 is_stmt 0 view .LVU681
 2384 0016 BDE80840 		pop	{r3, lr}
 2385              		.cfi_restore 14
 2386              		.cfi_restore 3
 2387              		.cfi_def_cfa_offset 0
 2388              		.loc 1 3030 3 view .LVU682
 2389 001a FFF7FEBF 		b	clear_all_config_prop_data
 2390              	.LVL208:
 2391              	.L226:
 2392 001e 00BF     		.align	2
ARM GAS  C:\msys64\tmp\ccb7DTfv.s 			page 43


 2393              	.L225:
 2394 0020 00000000 		.word	.LC2
 2395              		.cfi_endproc
 2396              	.LFE286:
 2397              		.size	cmd_clearconfig, .-cmd_clearconfig
 2398              		.section	.text.cmd_saveconfig,"ax",%progbits
 2399              		.align	1
 2400              		.p2align 4,,15
 2401              		.syntax unified
 2402              		.thumb
 2403              		.thumb_func
 2404              		.type	cmd_saveconfig, %function
 2405              	cmd_saveconfig:
 2406              	.LVL209:
 2407              	.LFB285:
 2408              		.loc 1 3009 1 is_stmt 1 view -0
 2409              		.cfi_startproc
 2410              		@ args = 0, pretend = 0, frame = 0
 2411              		@ frame_needed = 0, uses_anonymous_args = 0
 2412              		@ link register save eliminated.
 2413              		.loc 1 3010 3 view .LVU684
 2414              		.loc 1 3011 3 view .LVU685
 2415              		.loc 1 3012 3 view .LVU686
 2416 0000 FFF7FEBF 		b	config_save
 2417              	.LVL210:
 2418              		.loc 1 3012 3 is_stmt 0 view .LVU687
 2419              		.cfi_endproc
 2420              	.LFE285:
 2421              		.size	cmd_saveconfig, .-cmd_saveconfig
 2422              		.section	.rodata.cmd_sd_card_mount.str1.4,"aMS",%progbits,1
 2423              		.align	2
 2424              	.LC3:
 2425 0000 00       		.ascii	"\000"
 2426              		.section	.text.cmd_sd_card_mount,"ax",%progbits
 2427              		.align	1
 2428              		.p2align 4,,15
 2429              		.syntax unified
 2430              		.thumb
 2431              		.thumb_func
 2432              		.type	cmd_sd_card_mount, %function
 2433              	cmd_sd_card_mount:
 2434              	.LFB362:
 2435              		.loc 1 5362 1 is_stmt 1 view -0
 2436              		.cfi_startproc
 2437              		@ args = 0, pretend = 0, frame = 0
 2438              		@ frame_needed = 0, uses_anonymous_args = 0
 2439              		@ link register save eliminated.
 2440              		.loc 1 5363 3 view .LVU689
 2441              		.loc 1 5363 23 is_stmt 0 view .LVU690
 2442 0000 0249     		ldr	r1, .L229
 2443 0002 0348     		ldr	r0, .L229+4
 2444 0004 0122     		movs	r2, #1
 2445 0006 FFF7FEBF 		b	f_mount
 2446              	.LVL211:
 2447              	.L230:
 2448 000a 00BF     		.align	2
 2449              	.L229:
ARM GAS  C:\msys64\tmp\ccb7DTfv.s 			page 44


 2450 000c 00000000 		.word	.LC3
 2451 0010 C40D0000 		.word	spi_buffer+3524
 2452              		.cfi_endproc
 2453              	.LFE362:
 2454              		.size	cmd_sd_card_mount, .-cmd_sd_card_mount
 2455              		.section	.text.cmd_sd_delete,"ax",%progbits
 2456              		.align	1
 2457              		.p2align 4,,15
 2458              		.syntax unified
 2459              		.thumb
 2460              		.thumb_func
 2461              		.type	cmd_sd_delete, %function
 2462              	cmd_sd_delete:
 2463              	.LVL212:
 2464              	.LFB365:
 2465              		.loc 1 5426 1 is_stmt 1 view -0
 2466              		.cfi_startproc
 2467              		@ args = 0, pretend = 0, frame = 0
 2468              		@ frame_needed = 0, uses_anonymous_args = 0
 2469              		.loc 1 5427 3 view .LVU692
 2470              		.loc 1 5428 3 view .LVU693
 2471              		.loc 1 5428 6 is_stmt 0 view .LVU694
 2472 0000 0128     		cmp	r0, #1
 2473 0002 00D0     		beq	.L239
 2474 0004 7047     		bx	lr
 2475              	.L239:
 2476              		.loc 1 5433 3 is_stmt 1 view .LVU695
 2477              		.loc 1 5426 1 is_stmt 0 view .LVU696
 2478 0006 10B5     		push	{r4, lr}
 2479              		.cfi_def_cfa_offset 8
 2480              		.cfi_offset 4, -8
 2481              		.cfi_offset 14, -4
 2482 0008 0C46     		mov	r4, r1
 2483              		.loc 1 5433 7 view .LVU697
 2484 000a FFF7FEFF 		bl	cmd_sd_card_mount
 2485              	.LVL213:
 2486              		.loc 1 5433 6 discriminator 1 view .LVU698
 2487 000e 00B1     		cbz	r0, .L240
 2488              		.loc 1 5439 1 view .LVU699
 2489 0010 10BD     		pop	{r4, pc}
 2490              	.LVL214:
 2491              	.L240:
 2492              		.loc 1 5435 3 is_stmt 1 view .LVU700
 2493              		.loc 1 5436 3 view .LVU701
 2494              		.loc 1 5436 9 is_stmt 0 view .LVU702
 2495 0012 2068     		ldr	r0, [r4]
 2496              		.loc 1 5439 1 view .LVU703
 2497 0014 BDE81040 		pop	{r4, lr}
 2498              		.cfi_restore 14
 2499              		.cfi_restore 4
 2500              		.cfi_def_cfa_offset 0
 2501              	.LVL215:
 2502              		.loc 1 5436 9 view .LVU704
 2503 0018 FFF7FEBF 		b	f_unlink
 2504              	.LVL216:
 2505              		.loc 1 5436 9 view .LVU705
 2506              		.cfi_endproc
ARM GAS  C:\msys64\tmp\ccb7DTfv.s 			page 45


 2507              	.LFE365:
 2508              		.size	cmd_sd_delete, .-cmd_sd_delete
 2509              		.section	.text.cmd_sd_read,"ax",%progbits
 2510              		.align	1
 2511              		.p2align 4,,15
 2512              		.syntax unified
 2513              		.thumb
 2514              		.thumb_func
 2515              		.type	cmd_sd_read, %function
 2516              	cmd_sd_read:
 2517              	.LVL217:
 2518              	.LFB364:
 2519              		.loc 1 5396 1 is_stmt 1 view -0
 2520              		.cfi_startproc
 2521              		@ args = 0, pretend = 0, frame = 8
 2522              		@ frame_needed = 0, uses_anonymous_args = 0
 2523              		.loc 1 5397 3 view .LVU707
 2524              		.loc 1 5398 3 view .LVU708
 2525              		.loc 1 5398 6 is_stmt 0 view .LVU709
 2526 0000 0128     		cmp	r0, #1
 2527 0002 00D0     		beq	.L253
 2528 0004 7047     		bx	lr
 2529              	.L253:
 2530              		.loc 1 5403 3 is_stmt 1 view .LVU710
 2531              		.loc 1 5396 1 is_stmt 0 view .LVU711
 2532 0006 30B5     		push	{r4, r5, lr}
 2533              		.cfi_def_cfa_offset 12
 2534              		.cfi_offset 4, -12
 2535              		.cfi_offset 5, -8
 2536              		.cfi_offset 14, -4
 2537 0008 83B0     		sub	sp, sp, #12
 2538              		.cfi_def_cfa_offset 24
 2539              		.loc 1 5403 15 view .LVU712
 2540 000a 0D68     		ldr	r5, [r1]
 2541              	.LVL218:
 2542              		.loc 1 5404 3 is_stmt 1 view .LVU713
 2543 000c 0446     		mov	r4, r0
 2544              		.loc 1 5404 7 is_stmt 0 view .LVU714
 2545 000e FFF7FEFF 		bl	cmd_sd_card_mount
 2546              	.LVL219:
 2547              		.loc 1 5404 6 discriminator 1 view .LVU715
 2548 0012 08B1     		cbz	r0, .L254
 2549              	.LVL220:
 2550              	.L241:
 2551              		.loc 1 5423 1 view .LVU716
 2552 0014 03B0     		add	sp, sp, #12
 2553              		.cfi_remember_state
 2554              		.cfi_def_cfa_offset 12
 2555              		@ sp needed
 2556 0016 30BD     		pop	{r4, r5, pc}
 2557              	.LVL221:
 2558              	.L254:
 2559              		.cfi_restore_state
 2560              		.loc 1 5407 3 is_stmt 1 view .LVU717
 2561              		.loc 1 5407 7 is_stmt 0 view .LVU718
 2562 0018 2946     		mov	r1, r5
 2563 001a 1148     		ldr	r0, .L255
ARM GAS  C:\msys64\tmp\ccb7DTfv.s 			page 46


 2564 001c 2246     		mov	r2, r4
 2565 001e FFF7FEFF 		bl	f_open
 2566              	.LVL222:
 2567              		.loc 1 5407 6 discriminator 1 view .LVU719
 2568 0022 0546     		mov	r5, r0
 2569              	.LVL223:
 2570              		.loc 1 5407 6 discriminator 1 view .LVU720
 2571 0024 0028     		cmp	r0, #0
 2572 0026 F5D1     		bne	.L241
 2573              		.loc 1 5414 3 is_stmt 1 view .LVU721
 2574              		.loc 1 5414 23 is_stmt 0 view .LVU722
 2575 0028 0E4C     		ldr	r4, .L255+4
 2576              	.LVL224:
 2577              		.loc 1 5415 3 view .LVU723
 2578 002a 0421     		movs	r1, #4
 2579              		.loc 1 5414 23 view .LVU724
 2580 002c D4F8843B 		ldr	r3, [r4, #2948]	@ unaligned
 2581              		.loc 1 5414 12 view .LVU725
 2582 0030 0093     		str	r3, [sp]
 2583              		.loc 1 5415 3 is_stmt 1 view .LVU726
 2584 0032 6846     		mov	r0, sp
 2585 0034 FFF7FEFF 		bl	shell_write
 2586              	.LVL225:
 2587              		.loc 1 5416 3 view .LVU727
 2588              		.loc 1 5416 8 is_stmt 0 view .LVU728
 2589 0038 0195     		str	r5, [sp, #4]
 2590              		.loc 1 5418 3 is_stmt 1 view .LVU729
 2591              		.loc 1 5418 9 is_stmt 0 view .LVU730
 2592 003a 04E0     		b	.L245
 2593              	.L246:
 2594              		.loc 1 5418 60 discriminator 1 view .LVU731
 2595 003c 0199     		ldr	r1, [sp, #4]
 2596              		.loc 1 5419 5 view .LVU732
 2597 003e 2046     		mov	r0, r4
 2598              		.loc 1 5418 52 discriminator 1 view .LVU733
 2599 0040 51B1     		cbz	r1, .L248
 2600              		.loc 1 5419 5 view .LVU734
 2601 0042 FFF7FEFF 		bl	shell_write
 2602              	.LVL226:
 2603              	.L245:
 2604              		.loc 1 5418 52 is_stmt 1 view .LVU735
 2605              		.loc 1 5418 10 is_stmt 0 view .LVU736
 2606 0046 0648     		ldr	r0, .L255
 2607 0048 01AB     		add	r3, sp, #4
 2608 004a 4FF40072 		mov	r2, #512
 2609 004e 2146     		mov	r1, r4
 2610 0050 FFF7FEFF 		bl	f_read
 2611              	.LVL227:
 2612              		.loc 1 5419 5 is_stmt 1 view .LVU737
 2613              		.loc 1 5418 52 is_stmt 0 discriminator 1 view .LVU738
 2614 0054 0028     		cmp	r0, #0
 2615 0056 F1D0     		beq	.L246
 2616              	.L248:
 2617              		.loc 1 5421 3 is_stmt 1 view .LVU739
 2618 0058 0148     		ldr	r0, .L255
 2619 005a FFF7FEFF 		bl	f_close
 2620              	.LVL228:
ARM GAS  C:\msys64\tmp\ccb7DTfv.s 			page 47


 2621              		.loc 1 5422 3 view .LVU740
 2622 005e D9E7     		b	.L241
 2623              	.L256:
 2624              		.align	2
 2625              	.L255:
 2626 0060 740B0000 		.word	spi_buffer+2932
 2627 0064 00000000 		.word	spi_buffer
 2628              		.cfi_endproc
 2629              	.LFE364:
 2630              		.size	cmd_sd_read, .-cmd_sd_read
 2631              		.section	.rodata.cmd_sd_list.str1.4,"aMS",%progbits,1
 2632              		.align	2
 2633              	.LC4:
 2634 0000 2A2E2A00 		.ascii	"*.*\000"
 2635              		.section	.text.cmd_sd_list,"ax",%progbits
 2636              		.align	1
 2637              		.p2align 4,,15
 2638              		.syntax unified
 2639              		.thumb
 2640              		.thumb_func
 2641              		.type	cmd_sd_list, %function
 2642              	cmd_sd_list:
 2643              	.LVL229:
 2644              	.LFB363:
 2645              		.loc 1 5370 1 view -0
 2646              		.cfi_startproc
 2647              		@ args = 0, pretend = 0, frame = 152
 2648              		@ frame_needed = 0, uses_anonymous_args = 0
 2649              		.loc 1 5371 3 view .LVU742
 2650              		.loc 1 5372 3 view .LVU743
 2651              		.loc 1 5373 3 view .LVU744
 2652              		.loc 1 5370 1 is_stmt 0 view .LVU745
 2653 0000 30B5     		push	{r4, r5, lr}
 2654              		.cfi_def_cfa_offset 12
 2655              		.cfi_offset 4, -12
 2656              		.cfi_offset 5, -8
 2657              		.cfi_offset 14, -4
 2658 0002 A7B0     		sub	sp, sp, #156
 2659              		.cfi_def_cfa_offset 168
 2660              		.loc 1 5370 1 view .LVU746
 2661 0004 0446     		mov	r4, r0
 2662 0006 0D46     		mov	r5, r1
 2663              		.loc 1 5373 7 view .LVU747
 2664 0008 FFF7FEFF 		bl	cmd_sd_card_mount
 2665              	.LVL230:
 2666              		.loc 1 5373 6 discriminator 1 view .LVU748
 2667 000c 60B9     		cbnz	r0, .L257
 2668              		.loc 1 5375 3 is_stmt 1 view .LVU749
 2669 000e C4B1     		cbz	r4, .L262
 2670 0010 012C     		cmp	r4, #1
 2671 0012 09D1     		bne	.L257
 2672              		.loc 1 5381 5 view .LVU750
 2673              		.loc 1 5381 18 is_stmt 0 view .LVU751
 2674 0014 2B68     		ldr	r3, [r5]
 2675              		.loc 1 5382 5 is_stmt 1 view .LVU752
 2676              	.L259:
 2677              		.loc 1 5387 7 is_stmt 0 view .LVU753
ARM GAS  C:\msys64\tmp\ccb7DTfv.s 			page 48


 2678 0016 0C49     		ldr	r1, .L266
 2679              		.loc 1 5378 12 view .LVU754
 2680 0018 2493     		str	r3, [sp, #144]
 2681              		.loc 1 5387 3 is_stmt 1 view .LVU755
 2682              		.loc 1 5387 7 is_stmt 0 view .LVU756
 2683 001a 10A8     		add	r0, sp, #64
 2684 001c FFF7FEFF 		bl	f_opendir
 2685              	.LVL231:
 2686              		.loc 1 5387 6 discriminator 1 view .LVU757
 2687 0020 40B1     		cbz	r0, .L261
 2688              	.L260:
 2689              		.loc 1 5392 3 is_stmt 1 view .LVU758
 2690 0022 10A8     		add	r0, sp, #64
 2691 0024 FFF7FEFF 		bl	f_closedir
 2692              	.LVL232:
 2693              	.L257:
 2694              		.loc 1 5393 1 is_stmt 0 view .LVU759
 2695 0028 27B0     		add	sp, sp, #156
 2696              		.cfi_remember_state
 2697              		.cfi_def_cfa_offset 12
 2698              		@ sp needed
 2699 002a 30BD     		pop	{r4, r5, pc}
 2700              	.LVL233:
 2701              	.L265:
 2702              		.cfi_restore_state
 2703              		.loc 1 5389 43 discriminator 1 view .LVU760
 2704 002c 9DF81A30 		ldrb	r3, [sp, #26]	@ zero_extendqisi2
 2705 0030 002B     		cmp	r3, #0
 2706 0032 F6D0     		beq	.L260
 2707              	.L261:
 2708              		.loc 1 5389 43 is_stmt 1 view .LVU761
 2709              		.loc 1 5389 12 is_stmt 0 view .LVU762
 2710 0034 6946     		mov	r1, sp
 2711 0036 10A8     		add	r0, sp, #64
 2712 0038 FFF7FEFF 		bl	f_findnext
 2713              	.LVL234:
 2714              		.loc 1 5389 43 discriminator 1 view .LVU763
 2715 003c 0028     		cmp	r0, #0
 2716 003e F5D0     		beq	.L265
 2717 0040 EFE7     		b	.L260
 2718              	.L262:
 2719              		.loc 1 5375 3 view .LVU764
 2720 0042 024B     		ldr	r3, .L266+4
 2721 0044 E7E7     		b	.L259
 2722              	.L267:
 2723 0046 00BF     		.align	2
 2724              	.L266:
 2725 0048 00000000 		.word	.LC3
 2726 004c 00000000 		.word	.LC4
 2727              		.cfi_endproc
 2728              	.LFE363:
 2729              		.size	cmd_sd_list, .-cmd_sd_list
 2730              		.section	.rodata.cmd_time.str1.4,"aMS",%progbits,1
 2731              		.align	2
 2732              	.LC5:
 2733 0000 6200     		.ascii	"b\000"
 2734              		.section	.text.cmd_time,"ax",%progbits
ARM GAS  C:\msys64\tmp\ccb7DTfv.s 			page 49


 2735              		.align	1
 2736              		.p2align 4,,15
 2737              		.syntax unified
 2738              		.thumb
 2739              		.thumb_func
 2740              		.type	cmd_time, %function
 2741              	cmd_time:
 2742              	.LVL235:
 2743              	.LFB283:
 2744              		.loc 1 2942 1 is_stmt 1 view -0
 2745              		.cfi_startproc
 2746              		@ args = 0, pretend = 0, frame = 8
 2747              		@ frame_needed = 0, uses_anonymous_args = 0
 2748              		.loc 1 2943 3 view .LVU766
 2749              		.loc 1 2944 3 view .LVU767
 2750              		.loc 1 2945 3 view .LVU768
 2751              		.loc 1 2946 3 view .LVU769
 2752              		.loc 1 2942 1 is_stmt 0 view .LVU770
 2753 0000 30B5     		push	{r4, r5, lr}
 2754              		.cfi_def_cfa_offset 12
 2755              		.cfi_offset 4, -12
 2756              		.cfi_offset 5, -8
 2757              		.cfi_offset 14, -4
 2758              		.loc 1 2946 15 view .LVU771
 2759 0002 274C     		ldr	r4, .L278
 2760              		.loc 1 2947 15 view .LVU772
 2761 0004 274A     		ldr	r2, .L278+4
 2762              		.loc 1 2946 15 view .LVU773
 2763 0006 2368     		ldr	r3, [r4]
 2764              		.loc 1 2942 1 view .LVU774
 2765 0008 83B0     		sub	sp, sp, #12
 2766              		.cfi_def_cfa_offset 24
 2767              		.loc 1 2946 15 view .LVU775
 2768 000a 03F07F33 		and	r3, r3, #2139062143
 2769 000e 23F0FE43 		bic	r3, r3, #2130706432
 2770              		.loc 1 2946 13 view .LVU776
 2771 0012 0093     		str	r3, [sp]
 2772              		.loc 1 2947 3 is_stmt 1 view .LVU777
 2773              		.loc 1 2947 15 is_stmt 0 view .LVU778
 2774 0014 6368     		ldr	r3, [r4, #4]
 2775              		.loc 1 2953 6 view .LVU779
 2776 0016 0328     		cmp	r0, #3
 2777              		.loc 1 2947 15 view .LVU780
 2778 0018 02EA0302 		and	r2, r2, r3
 2779              		.loc 1 2947 13 view .LVU781
 2780 001c 0192     		str	r2, [sp, #4]
 2781              		.loc 1 2948 3 is_stmt 1 view .LVU782
 2782              		.loc 1 2949 3 view .LVU783
 2783              		.loc 1 2952 3 view .LVU784
 2784              	.LVL236:
 2785              		.loc 1 2953 3 view .LVU785
 2786              		.loc 1 2942 1 is_stmt 0 view .LVU786
 2787 001e 0C46     		mov	r4, r1
 2788              		.loc 1 2953 6 view .LVU787
 2789 0020 26D0     		beq	.L275
 2790              		.loc 1 2958 3 is_stmt 1 view .LVU788
 2791              		.loc 1 2958 6 is_stmt 0 view .LVU789
ARM GAS  C:\msys64\tmp\ccb7DTfv.s 			page 50


 2792 0022 0228     		cmp	r0, #2
 2793 0024 01D0     		beq	.L276
 2794              	.LVL237:
 2795              	.L268:
 2796              		.loc 1 2977 1 view .LVU790
 2797 0026 03B0     		add	sp, sp, #12
 2798              		.cfi_remember_state
 2799              		.cfi_def_cfa_offset 12
 2800              	.LVL238:
 2801              		.loc 1 2977 1 view .LVU791
 2802              		@ sp needed
 2803 0028 30BD     		pop	{r4, r5, pc}
 2804              	.LVL239:
 2805              	.L276:
 2806              		.cfi_restore_state
 2807              		.loc 1 2960 3 is_stmt 1 view .LVU792
 2808              		.loc 1 2960 13 is_stmt 0 view .LVU793
 2809 002a 1F49     		ldr	r1, .L278+8
 2810              	.LVL240:
 2811              		.loc 1 2960 13 view .LVU794
 2812 002c 2068     		ldr	r0, [r4]
 2813              	.LVL241:
 2814              		.loc 1 2960 13 view .LVU795
 2815 002e FFF7FEFF 		bl	get_str_index
 2816              	.LVL242:
 2817 0032 0546     		mov	r5, r0
 2818              	.LVL243:
 2819              		.loc 1 2961 3 is_stmt 1 view .LVU796
 2820              		.loc 1 2961 6 is_stmt 0 view .LVU797
 2821 0034 062D     		cmp	r5, #6
 2822              		.loc 1 2963 5 view .LVU798
 2823 0036 6068     		ldr	r0, [r4, #4]
 2824              	.LVL244:
 2825              		.loc 1 2961 6 view .LVU799
 2826 0038 2AD0     		beq	.L277
 2827              		.loc 1 2966 3 is_stmt 1 view .LVU800
 2828              		.loc 1 2966 18 is_stmt 0 view .LVU801
 2829 003a FFF7FEFF 		bl	my_atoui
 2830              	.LVL245:
 2831              		.loc 1 2967 3 is_stmt 1 view .LVU802
 2832              		.loc 1 2967 6 is_stmt 0 view .LVU803
 2833 003e 002D     		cmp	r5, #0
 2834 0040 F1DB     		blt	.L268
 2835              		.loc 1 2967 15 discriminator 1 view .LVU804
 2836 0042 6328     		cmp	r0, #99
 2837 0044 EFD8     		bhi	.L268
 2838              		.loc 1 2970 3 is_stmt 1 view .LVU805
 2839              		.loc 1 2970 34 is_stmt 0 view .LVU806
 2840 0046 194B     		ldr	r3, .L278+12
 2841              		.loc 1 2970 19 view .LVU807
 2842 0048 194A     		ldr	r2, .L278+16
 2843              		.loc 1 2970 34 view .LVU808
 2844 004a A3FB0013 		umull	r1, r3, r3, r0
 2845 004e DB08     		lsrs	r3, r3, #3
 2846              		.loc 1 2970 19 view .LVU809
 2847 0050 525D     		ldrb	r2, [r2, r5]	@ zero_extendqisi2
 2848              		.loc 1 2970 53 view .LVU810
ARM GAS  C:\msys64\tmp\ccb7DTfv.s 			page 51


 2849 0052 03EB8301 		add	r1, r3, r3, lsl #2
 2850 0056 A0EB4100 		sub	r0, r0, r1, lsl #1
 2851              	.LVL246:
 2852              		.loc 1 2970 26 view .LVU811
 2853 005a 6A44     		add	r2, sp, r2
 2854              		.loc 1 2970 46 view .LVU812
 2855 005c 40EA0310 		orr	r0, r0, r3, lsl #4
 2856              		.loc 1 2970 26 view .LVU813
 2857 0060 1070     		strb	r0, [r2]
 2858              		.loc 1 2971 3 is_stmt 1 view .LVU814
 2859 0062 DDE90010 		ldrd	r1, r0, [sp]
 2860              	.LVL247:
 2861              	.L274:
 2862              		.loc 1 2977 1 is_stmt 0 view .LVU815
 2863 0066 03B0     		add	sp, sp, #12
 2864              		.cfi_remember_state
 2865              		.cfi_def_cfa_offset 12
 2866              	.LVL248:
 2867              		.loc 1 2977 1 view .LVU816
 2868              		@ sp needed
 2869 0068 BDE83040 		pop	{r4, r5, lr}
 2870              		.cfi_restore 14
 2871              		.cfi_restore 5
 2872              		.cfi_restore 4
 2873              		.cfi_def_cfa_offset 0
 2874              	.LVL249:
 2875              		.loc 1 2971 3 view .LVU817
 2876 006c FFF7FEBF 		b	rtc_set_time
 2877              	.LVL250:
 2878              	.L275:
 2879              		.cfi_restore_state
 2880              		.loc 1 2953 20 discriminator 1 view .LVU818
 2881 0070 1049     		ldr	r1, .L278+20
 2882              	.LVL251:
 2883              		.loc 1 2953 20 discriminator 1 view .LVU819
 2884 0072 2068     		ldr	r0, [r4]
 2885              	.LVL252:
 2886              		.loc 1 2953 20 discriminator 1 view .LVU820
 2887 0074 FFF7FEFF 		bl	get_str_index
 2888              	.LVL253:
 2889              		.loc 1 2953 17 discriminator 1 view .LVU821
 2890 0078 0028     		cmp	r0, #0
 2891 007a D4D1     		bne	.L268
 2892              		.loc 1 2955 5 is_stmt 1 view .LVU822
 2893 007c 6068     		ldr	r0, [r4, #4]
 2894 007e FFF7FEFF 		bl	my_atoui
 2895              	.LVL254:
 2896 0082 0546     		mov	r5, r0
 2897              		.loc 1 2955 5 is_stmt 0 discriminator 1 view .LVU823
 2898 0084 A068     		ldr	r0, [r4, #8]
 2899 0086 FFF7FEFF 		bl	my_atoui
 2900              	.LVL255:
 2901 008a 0146     		mov	r1, r0
 2902              		.loc 1 2955 5 discriminator 2 view .LVU824
 2903 008c 2846     		mov	r0, r5
 2904 008e EAE7     		b	.L274
 2905              	.LVL256:
ARM GAS  C:\msys64\tmp\ccb7DTfv.s 			page 52


 2906              	.L277:
 2907              		.loc 1 2963 5 is_stmt 1 view .LVU825
 2908 0090 FFF7FEFF 		bl	my_atof
 2909              	.LVL257:
 2910              		.loc 1 2977 1 is_stmt 0 view .LVU826
 2911 0094 03B0     		add	sp, sp, #12
 2912              		.cfi_def_cfa_offset 12
 2913              	.LVL258:
 2914              		.loc 1 2977 1 view .LVU827
 2915              		@ sp needed
 2916 0096 BDE83040 		pop	{r4, r5, lr}
 2917              		.cfi_restore 14
 2918              		.cfi_restore 5
 2919              		.cfi_restore 4
 2920              		.cfi_def_cfa_offset 0
 2921              	.LVL259:
 2922              		.loc 1 2963 5 discriminator 1 view .LVU828
 2923 009a FFF7FEBF 		b	rtc_set_cal
 2924              	.LVL260:
 2925              	.L279:
 2926 009e 00BF     		.align	2
 2927              	.L278:
 2928 00a0 00280040 		.word	1073752064
 2929 00a4 3F1FFF00 		.word	16719679
 2930 00a8 00000000 		.word	time_cmd.3
 2931 00ac CDCCCCCC 		.word	-858993459
 2932 00b0 00000000 		.word	idx_to_time.2
 2933 00b4 00000000 		.word	.LC5
 2934              		.cfi_endproc
 2935              	.LFE283:
 2936              		.size	cmd_time, .-cmd_time
 2937              		.section	.text.cmd_offset,"ax",%progbits
 2938              		.align	1
 2939              		.p2align 4,,15
 2940              		.syntax unified
 2941              		.thumb
 2942              		.thumb_func
 2943              		.type	cmd_offset, %function
 2944              	cmd_offset:
 2945              	.LVL261:
 2946              	.LFB279:
 2947              		.loc 1 2890 1 is_stmt 1 view -0
 2948              		.cfi_startproc
 2949              		@ args = 0, pretend = 0, frame = 0
 2950              		@ frame_needed = 0, uses_anonymous_args = 0
 2951              		.loc 1 2891 3 view .LVU830
 2952              		.loc 1 2891 6 is_stmt 0 view .LVU831
 2953 0000 0128     		cmp	r0, #1
 2954 0002 00D0     		beq	.L285
 2955 0004 7047     		bx	lr
 2956              	.L285:
 2957              		.loc 1 2898 3 is_stmt 1 view .LVU832
 2958              		.loc 1 2890 1 is_stmt 0 view .LVU833
 2959 0006 08B5     		push	{r3, lr}
 2960              		.cfi_def_cfa_offset 8
 2961              		.cfi_offset 3, -8
 2962              		.cfi_offset 14, -4
ARM GAS  C:\msys64\tmp\ccb7DTfv.s 			page 53


 2963              		.loc 1 2898 3 view .LVU834
 2964 0008 0868     		ldr	r0, [r1]
 2965              	.LVL262:
 2966              		.loc 1 2898 3 view .LVU835
 2967 000a FFF7FEFF 		bl	my_atoi
 2968              	.LVL263:
 2969              		.loc 1 2899 1 view .LVU836
 2970 000e BDE80840 		pop	{r3, lr}
 2971              		.cfi_restore 14
 2972              		.cfi_restore 3
 2973              		.cfi_def_cfa_offset 0
 2974              		.loc 1 2898 3 discriminator 1 view .LVU837
 2975 0012 FFF7FEBF 		b	si5351_set_frequency_offset
 2976              	.LVL264:
 2977              		.cfi_endproc
 2978              	.LFE279:
 2979              		.size	cmd_offset, .-cmd_offset
 2980 0016 00BF     		.section	.text.get_sweep_mask,"ax",%progbits
 2981              		.align	1
 2982              		.p2align 4,,15
 2983              		.syntax unified
 2984              		.thumb
 2985              		.thumb_func
 2986              		.type	get_sweep_mask, %function
 2987              	get_sweep_mask:
 2988              	.LFB295:
 2989              		.loc 1 3419 1 is_stmt 1 view -0
 2990              		.cfi_startproc
 2991              		@ args = 0, pretend = 0, frame = 0
 2992              		@ frame_needed = 0, uses_anonymous_args = 0
 2993              		.loc 1 3420 3 view .LVU839
 2994              	.LVL265:
 2995              		.loc 1 3432 3 view .LVU840
 2996              		.loc 1 3437 3 view .LVU841
 2997              		.loc 1 3419 1 is_stmt 0 view .LVU842
 2998 0000 08B5     		push	{r3, lr}
 2999              		.cfi_def_cfa_offset 8
 3000              		.cfi_offset 3, -8
 3001              		.cfi_offset 14, -4
 3002              		.loc 1 3437 14 view .LVU843
 3003 0002 FFF7FEFF 		bl	plot_get_measure_channels
 3004              	.LVL266:
 3005              		.loc 1 3443 7 view .LVU844
 3006 0006 144B     		ldr	r3, .L306
 3007              	.LVL267:
 3008              		.loc 1 3443 3 is_stmt 1 view .LVU845
 3009              		.loc 1 3443 7 is_stmt 0 view .LVU846
 3010 0008 9A8C     		ldrh	r2, [r3, #36]
 3011              		.loc 1 3447 6 view .LVU847
 3012 000a D3ED277A 		vldr.32	s15, [r3, #156]
 3013              		.loc 1 3443 6 view .LVU848
 3014 000e D105     		lsls	r1, r2, #23
 3015              		.loc 1 3437 11 discriminator 1 view .LVU849
 3016 0010 54BF     		ite	pl
 3017 0012 40F00300 		orrpl	r0, r0, #3
 3018              	.LVL268:
 3019              		.loc 1 3444 5 is_stmt 1 view .LVU850
ARM GAS  C:\msys64\tmp\ccb7DTfv.s 			page 54


 3020              		.loc 1 3444 13 is_stmt 0 view .LVU851
 3021 0016 40F02300 		orrmi	r0, r0, #35
 3022              		.loc 1 3447 6 view .LVU852
 3023 001a F5EE407A 		vcmp.f32	s15, #0
 3024              		.loc 1 3449 6 view .LVU853
 3025 001e D3ED287A 		vldr.32	s15, [r3, #160]
 3026              		.loc 1 3444 13 view .LVU854
 3027 0022 80B2     		uxth	r0, r0
 3028              	.LVL269:
 3029              		.loc 1 3445 3 is_stmt 1 view .LVU855
 3030              		.loc 1 3446 5 view .LVU856
 3031              		.loc 1 3445 6 is_stmt 0 view .LVU857
 3032 0024 9205     		lsls	r2, r2, #22
 3033              		.loc 1 3446 13 view .LVU858
 3034 0026 48BF     		it	mi
 3035 0028 40F04000 		orrmi	r0, r0, #64
 3036              	.LVL270:
 3037              		.loc 1 3447 3 is_stmt 1 view .LVU859
 3038              		.loc 1 3448 5 view .LVU860
 3039              		.loc 1 3447 6 is_stmt 0 view .LVU861
 3040 002c F1EE10FA 		vmrs	APSR_nzcv, FPSCR
 3041              		.loc 1 3449 6 view .LVU862
 3042 0030 F5EE407A 		vcmp.f32	s15, #0
 3043              		.loc 1 3451 6 view .LVU863
 3044 0034 D3ED2A7A 		vldr.32	s15, [r3, #168]
 3045              		.loc 1 3448 13 view .LVU864
 3046 0038 18BF     		it	ne
 3047 003a 40F00400 		orrne	r0, r0, #4
 3048              	.LVL271:
 3049              		.loc 1 3449 3 is_stmt 1 view .LVU865
 3050              		.loc 1 3450 5 view .LVU866
 3051              		.loc 1 3449 6 is_stmt 0 view .LVU867
 3052 003e F1EE10FA 		vmrs	APSR_nzcv, FPSCR
 3053              		.loc 1 3451 6 view .LVU868
 3054 0042 F5EE407A 		vcmp.f32	s15, #0
 3055              		.loc 1 3450 13 view .LVU869
 3056 0046 18BF     		it	ne
 3057 0048 40F00800 		orrne	r0, r0, #8
 3058              	.LVL272:
 3059              		.loc 1 3451 3 is_stmt 1 view .LVU870
 3060              		.loc 1 3452 5 view .LVU871
 3061              		.loc 1 3451 6 is_stmt 0 view .LVU872
 3062 004c F1EE10FA 		vmrs	APSR_nzcv, FPSCR
 3063              		.loc 1 3452 13 view .LVU873
 3064 0050 18BF     		it	ne
 3065 0052 40F01000 		orrne	r0, r0, #16
 3066              	.LVL273:
 3067              		.loc 1 3453 3 is_stmt 1 view .LVU874
 3068              		.loc 1 3454 1 is_stmt 0 view .LVU875
 3069 0056 08BD     		pop	{r3, pc}
 3070              	.L307:
 3071              		.align	2
 3072              	.L306:
 3073 0058 00000000 		.word	current_props
 3074              		.cfi_endproc
 3075              	.LFE295:
 3076              		.size	get_sweep_mask, .-get_sweep_mask
ARM GAS  C:\msys64\tmp\ccb7DTfv.s 			page 55


 3077              		.section	.text.eterm_set.constprop.0,"ax",%progbits
 3078              		.align	1
 3079              		.p2align 4,,15
 3080              		.syntax unified
 3081              		.thumb
 3082              		.thumb_func
 3083              		.type	eterm_set.constprop.0, %function
 3084              	eterm_set.constprop.0:
 3085              	.LVL274:
 3086              	.LFB384:
 3087              		.loc 1 4071 1 is_stmt 1 view -0
 3088              		.cfi_startproc
 3089              		@ args = 0, pretend = 0, frame = 0
 3090              		@ frame_needed = 0, uses_anonymous_args = 0
 3091              		@ link register save eliminated.
 3092              		.loc 1 4073 3 view .LVU877
 3093              		.loc 1 4074 3 view .LVU878
 3094              		.loc 1 4074 17 discriminator 1 view .LVU879
 3095              		.loc 1 4074 19 is_stmt 0 discriminator 1 view .LVU880
 3096 0000 0A4B     		ldr	r3, .L315
 3097 0002 5A8B     		ldrh	r2, [r3, #26]
 3098              		.loc 1 4074 17 discriminator 1 view .LVU881
 3099 0004 8AB1     		cbz	r2, .L308
 3100 0006 40F29111 		movw	r1, #401
 3101 000a 01FB0021 		mla	r1, r1, r0, r2
 3102 000e 40F6884C 		movw	ip, #3208
 3103 0012 0CFB0030 		mla	r0, ip, r0, r3
 3104              	.LVL275:
 3105              		.loc 1 4077 26 view .LVU882
 3106 0016 0022     		movs	r2, #0
 3107 0018 03EBC103 		add	r3, r3, r1, lsl #3
 3108              	.LVL276:
 3109              	.L310:
 3110              		.loc 1 4076 5 is_stmt 1 view .LVU883
 3111              		.loc 1 4076 26 is_stmt 0 view .LVU884
 3112 001c 80ED340A 		vstr.32	s0, [r0, #208]
 3113              		.loc 1 4077 5 is_stmt 1 view .LVU885
 3114              		.loc 1 4077 26 is_stmt 0 view .LVU886
 3115 0020 C0F8D420 		str	r2, [r0, #212]	@ float
 3116              		.loc 1 4074 34 is_stmt 1 discriminator 3 view .LVU887
 3117              		.loc 1 4074 17 discriminator 1 view .LVU888
 3118 0024 0830     		adds	r0, r0, #8
 3119 0026 9842     		cmp	r0, r3
 3120 0028 F8D1     		bne	.L310
 3121              	.L308:
 3122              		.loc 1 4079 1 is_stmt 0 view .LVU889
 3123 002a 7047     		bx	lr
 3124              	.L316:
 3125              		.align	2
 3126              	.L315:
 3127 002c 00000000 		.word	current_props
 3128              		.cfi_endproc
 3129              	.LFE384:
 3130              		.size	eterm_set.constprop.0, .-eterm_set.constprop.0
 3131              		.section	.text.cmd_info,"ax",%progbits
 3132              		.align	1
 3133              		.p2align 4,,15
ARM GAS  C:\msys64\tmp\ccb7DTfv.s 			page 56


 3134              		.syntax unified
 3135              		.thumb
 3136              		.thumb_func
 3137              		.type	cmd_info, %function
 3138              	cmd_info:
 3139              	.LFB382:
 3140              		.cfi_startproc
 3141              		.loc 1 5163 1 is_stmt 1 view -0
 3142              		@ args = 0, pretend = 0, frame = 0
 3143              		@ frame_needed = 0, uses_anonymous_args = 0
 3144              		@ link register save eliminated.
 3145 0000 7047     		bx	lr
 3146              		.cfi_endproc
 3147              	.LFE382:
 3148              		.size	cmd_info, .-cmd_info
 3149 0002 00BF     		.section	.text.cmd_frequencies,"ax",%progbits
 3150              		.align	1
 3151              		.p2align 4,,15
 3152              		.syntax unified
 3153              		.thumb
 3154              		.thumb_func
 3155              		.type	cmd_frequencies, %function
 3156              	cmd_frequencies:
 3157              	.LFB378:
 3158              		.cfi_startproc
 3159              		.loc 1 4859 1 view -0
 3160              		@ args = 0, pretend = 0, frame = 0
 3161              		@ frame_needed = 0, uses_anonymous_args = 0
 3162              		@ link register save eliminated.
 3163 0000 7047     		bx	lr
 3164              		.cfi_endproc
 3165              	.LFE378:
 3166              		.size	cmd_frequencies, .-cmd_frequencies
 3167 0002 00BF     		.section	.text.cmd_version,"ax",%progbits
 3168              		.align	1
 3169              		.p2align 4,,15
 3170              		.syntax unified
 3171              		.thumb
 3172              		.thumb_func
 3173              		.type	cmd_version, %function
 3174              	cmd_version:
 3175              	.LFB380:
 3176              		.cfi_startproc
 3177              		.loc 1 5092 1 view -0
 3178              		@ args = 0, pretend = 0, frame = 0
 3179              		@ frame_needed = 0, uses_anonymous_args = 0
 3180              		@ link register save eliminated.
 3181 0000 7047     		bx	lr
 3182              		.cfi_endproc
 3183              	.LFE380:
 3184              		.size	cmd_version, .-cmd_version
 3185 0002 00BF     		.section	.text.mla_is_resonance_centered,"ax",%progbits
 3186              		.align	1
 3187              		.p2align 4,,15
 3188              		.global	mla_is_resonance_centered
 3189              		.syntax unified
 3190              		.thumb
ARM GAS  C:\msys64\tmp\ccb7DTfv.s 			page 57


 3191              		.thumb_func
 3192              		.type	mla_is_resonance_centered, %function
 3193              	mla_is_resonance_centered:
 3194              	.LFB250:
 3195              		.loc 1 941 1 view -0
 3196              		.cfi_startproc
 3197              		@ args = 0, pretend = 0, frame = 0
 3198              		@ frame_needed = 0, uses_anonymous_args = 0
 3199              		@ link register save eliminated.
 3200              		.loc 1 942 3 view .LVU894
 3201              		.loc 1 942 27 is_stmt 0 view .LVU895
 3202 0000 0A4B     		ldr	r3, .L323
 3203              		.loc 1 944 20 view .LVU896
 3204 0002 0B49     		ldr	r1, .L323+4
 3205              		.loc 1 942 27 view .LVU897
 3206 0004 5A8B     		ldrh	r2, [r3, #26]
 3207              		.loc 1 942 40 view .LVU898
 3208 0006 0B4B     		ldr	r3, .L323+8
 3209              		.loc 1 944 20 view .LVU899
 3210 0008 B1F90000 		ldrsh	r0, [r1]
 3211              		.loc 1 942 40 view .LVU900
 3212 000c A3FB0213 		umull	r1, r3, r3, r2
 3213              		.loc 1 944 35 view .LVU901
 3214 0010 B0EB930F 		cmp	r0, r3, lsr #2
 3215              		.loc 1 942 13 view .LVU902
 3216 0014 4FEA9301 		lsr	r1, r3, #2
 3217              	.LVL277:
 3218              		.loc 1 943 3 is_stmt 1 view .LVU903
 3219              		.loc 1 944 35 is_stmt 0 view .LVU904
 3220 0018 05DD     		ble	.L322
 3221              		.loc 1 945 36 view .LVU905
 3222 001a 521A     		subs	r2, r2, r1
 3223              		.loc 1 944 35 discriminator 1 view .LVU906
 3224 001c 9042     		cmp	r0, r2
 3225 001e ACBF     		ite	ge
 3226 0020 0020     		movge	r0, #0
 3227 0022 0120     		movlt	r0, #1
 3228 0024 7047     		bx	lr
 3229              	.L322:
 3230 0026 0020     		movs	r0, #0
 3231              		.loc 1 947 3 is_stmt 1 view .LVU907
 3232              		.loc 1 947 3 view .LVU908
 3233              		.loc 1 947 3 view .LVU909
 3234              		.loc 1 954 3 view .LVU910
 3235              		.loc 1 955 1 is_stmt 0 view .LVU911
 3236 0028 7047     		bx	lr
 3237              	.L324:
 3238 002a 00BF     		.align	2
 3239              	.L323:
 3240 002c 00000000 		.word	current_props
 3241 0030 00000000 		.word	mla_res_idx
 3242 0034 CDCCCCCC 		.word	-858993459
 3243              		.cfi_endproc
 3244              	.LFE250:
 3245              		.size	mla_is_resonance_centered, .-mla_is_resonance_centered
 3246              		.section	.text.set_smooth_factor,"ax",%progbits
 3247              		.align	1
ARM GAS  C:\msys64\tmp\ccb7DTfv.s 			page 58


 3248              		.p2align 4,,15
 3249              		.global	set_smooth_factor
 3250              		.syntax unified
 3251              		.thumb
 3252              		.thumb_func
 3253              		.type	set_smooth_factor, %function
 3254              	set_smooth_factor:
 3255              	.LVL278:
 3256              	.LFB254:
 3257              		.loc 1 1207 1 is_stmt 1 view -0
 3258              		.cfi_startproc
 3259              		@ args = 0, pretend = 0, frame = 0
 3260              		@ frame_needed = 0, uses_anonymous_args = 0
 3261              		@ link register save eliminated.
 3262              		.loc 1 1208 3 view .LVU913
 3263              		.loc 1 1210 3 view .LVU914
 3264              		.loc 1 1208 6 is_stmt 0 view .LVU915
 3265 0000 0828     		cmp	r0, #8
 3266              		.loc 1 1210 17 view .LVU916
 3267 0002 044A     		ldr	r2, .L326
 3268              		.loc 1 1208 6 view .LVU917
 3269 0004 0346     		mov	r3, r0
 3270 0006 28BF     		it	cs
 3271 0008 0823     		movcs	r3, #8
 3272              		.loc 1 1211 3 view .LVU918
 3273 000a 1020     		movs	r0, #16
 3274              	.LVL279:
 3275              		.loc 1 1210 17 view .LVU919
 3276 000c 1370     		strb	r3, [r2]
 3277              		.loc 1 1211 3 is_stmt 1 view .LVU920
 3278 000e FFF7FEBF 		b	request_to_redraw
 3279              	.LVL280:
 3280              	.L327:
 3281 0012 00BF     		.align	2
 3282              	.L326:
 3283 0014 00000000 		.word	smooth_factor
 3284              		.cfi_endproc
 3285              	.LFE254:
 3286              		.size	set_smooth_factor, .-set_smooth_factor
 3287              		.section	.text.cmd_smooth,"ax",%progbits
 3288              		.align	1
 3289              		.p2align 4,,15
 3290              		.syntax unified
 3291              		.thumb
 3292              		.thumb_func
 3293              		.type	cmd_smooth, %function
 3294              	cmd_smooth:
 3295              	.LVL281:
 3296              	.LFB276:
 3297              		.loc 1 2810 1 view -0
 3298              		.cfi_startproc
 3299              		@ args = 0, pretend = 0, frame = 0
 3300              		@ frame_needed = 0, uses_anonymous_args = 0
 3301              		.loc 1 2811 3 view .LVU922
 3302              		.loc 1 2811 6 is_stmt 0 view .LVU923
 3303 0000 0128     		cmp	r0, #1
 3304 0002 00D0     		beq	.L333
ARM GAS  C:\msys64\tmp\ccb7DTfv.s 			page 59


 3305 0004 7047     		bx	lr
 3306              	.L333:
 3307              		.loc 1 2818 3 is_stmt 1 view .LVU924
 3308              		.loc 1 2810 1 is_stmt 0 view .LVU925
 3309 0006 08B5     		push	{r3, lr}
 3310              		.cfi_def_cfa_offset 8
 3311              		.cfi_offset 3, -8
 3312              		.cfi_offset 14, -4
 3313              		.loc 1 2818 21 view .LVU926
 3314 0008 0868     		ldr	r0, [r1]
 3315              	.LVL282:
 3316              		.loc 1 2818 21 view .LVU927
 3317 000a FFF7FEFF 		bl	my_atoui
 3318              	.LVL283:
 3319              		.loc 1 2819 1 view .LVU928
 3320 000e BDE80840 		pop	{r3, lr}
 3321              		.cfi_restore 14
 3322              		.cfi_restore 3
 3323              		.cfi_def_cfa_offset 0
 3324              		.loc 1 2818 3 discriminator 1 view .LVU929
 3325 0012 C0B2     		uxtb	r0, r0
 3326 0014 FFF7FEBF 		b	set_smooth_factor
 3327              	.LVL284:
 3328              		.cfi_endproc
 3329              	.LFE276:
 3330              		.size	cmd_smooth, .-cmd_smooth
 3331              		.section	.text.get_smooth_factor,"ax",%progbits
 3332              		.align	1
 3333              		.p2align 4,,15
 3334              		.global	get_smooth_factor
 3335              		.syntax unified
 3336              		.thumb
 3337              		.thumb_func
 3338              		.type	get_smooth_factor, %function
 3339              	get_smooth_factor:
 3340              	.LFB255:
 3341              		.loc 1 1215 1 is_stmt 1 view -0
 3342              		.cfi_startproc
 3343              		@ args = 0, pretend = 0, frame = 0
 3344              		@ frame_needed = 0, uses_anonymous_args = 0
 3345              		@ link register save eliminated.
 3346              		.loc 1 1216 3 view .LVU931
 3347              		.loc 1 1216 10 is_stmt 0 view .LVU932
 3348 0000 014B     		ldr	r3, .L335
 3349              		.loc 1 1217 1 view .LVU933
 3350 0002 1878     		ldrb	r0, [r3]	@ zero_extendqisi2
 3351 0004 7047     		bx	lr
 3352              	.L336:
 3353 0006 00BF     		.align	2
 3354              	.L335:
 3355 0008 00000000 		.word	smooth_factor
 3356              		.cfi_endproc
 3357              	.LFE255:
 3358              		.size	get_smooth_factor, .-get_smooth_factor
 3359              		.section	.text.drawBarGraph,"ax",%progbits
 3360              		.align	1
 3361              		.p2align 4,,15
ARM GAS  C:\msys64\tmp\ccb7DTfv.s 			page 60


 3362              		.global	drawBarGraph
 3363              		.syntax unified
 3364              		.thumb
 3365              		.thumb_func
 3366              		.type	drawBarGraph, %function
 3367              	drawBarGraph:
 3368              	.LVL285:
 3369              	.LFB257:
 3370              		.loc 1 1274 1 is_stmt 1 view -0
 3371              		.cfi_startproc
 3372              		@ args = 0, pretend = 0, frame = 0
 3373              		@ frame_needed = 0, uses_anonymous_args = 0
 3374              		.loc 1 1275 3 view .LVU935
 3375              		.loc 1 1276 3 view .LVU936
 3376              		.loc 1 1283 6 is_stmt 0 view .LVU937
 3377 0000 B0EE0C7A 		vmov.f32	s14, #3.5e+0
 3378 0004 B4EEC70A 		vcmpe.f32	s0, s14
 3379 0008 F1EE10FA 		vmrs	APSR_nzcv, FPSCR
 3380              		.loc 1 1281 6 view .LVU938
 3381 000c F7EE007A 		vmov.f32	s15, #1.0e+0
 3382              		.loc 1 1283 6 view .LVU939
 3383 0010 88BF     		it	hi
 3384 0012 B0EE470A 		vmovhi.f32	s0, s14
 3385              	.LVL286:
 3386              		.loc 1 1281 6 view .LVU940
 3387 0016 B4EEE70A 		vcmpe.f32	s0, s15
 3388 001a F1EE10FA 		vmrs	APSR_nzcv, FPSCR
 3389 001e B8BF     		it	lt
 3390 0020 B0EE670A 		vmovlt.f32	s0, s15
 3391              		.loc 1 1294 23 view .LVU941
 3392 0024 30EE670A 		vsub.f32	s0, s0, s15
 3393              		.loc 1 1295 42 view .LVU942
 3394 0028 B3EE007A 		vmov.f32	s14, #1.6e+1
 3395 002c F6EE007A 		vmov.f32	s15, #5.0e-1
 3396 0030 E0EE077A 		vfma.f32	s15, s0, s14
 3397              		.loc 1 1274 1 view .LVU943
 3398 0034 F8B5     		push	{r3, r4, r5, r6, r7, lr}
 3399              		.cfi_def_cfa_offset 24
 3400              		.cfi_offset 3, -24
 3401              		.cfi_offset 4, -20
 3402              		.cfi_offset 5, -16
 3403              		.cfi_offset 6, -12
 3404              		.cfi_offset 7, -8
 3405              		.cfi_offset 14, -4
 3406              		.loc 1 1295 7 view .LVU944
 3407 0036 FDEEE77A 		vcvt.s32.f32	s15, s15
 3408              		.loc 1 1276 27 view .LVU945
 3409 003a 454B     		ldr	r3, .L356
 3410              		.loc 1 1278 16 view .LVU946
 3411 003c 454F     		ldr	r7, .L356+4
 3412              		.loc 1 1276 27 view .LVU947
 3413 003e 1B78     		ldrb	r3, [r3]	@ zero_extendqisi2
 3414              		.loc 1 1295 7 view .LVU948
 3415 0040 17EE905A 		vmov	r5, s15	@ int
 3416              		.loc 1 1298 6 view .LVU949
 3417 0044 282D     		cmp	r5, #40
 3418 0046 2E46     		mov	r6, r5
ARM GAS  C:\msys64\tmp\ccb7DTfv.s 			page 61


 3419 0048 A8BF     		it	ge
 3420 004a 2826     		movge	r6, #40
 3421              		.loc 1 1274 1 view .LVU950
 3422 004c 2DED028B 		vpush.64	{d8}
 3423              		.cfi_def_cfa_offset 32
 3424              		.cfi_offset 80, -32
 3425              		.cfi_offset 81, -28
 3426              		.loc 1 1296 6 view .LVU951
 3427 0050 26EAE676 		bic	r6, r6, r6, asr #31
 3428              		.loc 1 1276 6 view .LVU952
 3429 0054 002B     		cmp	r3, #0
 3430 0056 5CD0     		beq	.L338
 3431              		.loc 1 1278 5 is_stmt 1 view .LVU953
 3432              		.loc 1 1278 16 is_stmt 0 view .LVU954
 3433 0058 4FF0FF33 		mov	r3, #-1
 3434 005c 3B60     		str	r3, [r7]
 3435              		.loc 1 1281 3 is_stmt 1 view .LVU955
 3436              	.LVL287:
 3437              		.loc 1 1286 3 view .LVU956
 3438              		.loc 1 1287 3 view .LVU957
 3439              		.loc 1 1290 3 view .LVU958
 3440              		.loc 1 1291 3 view .LVU959
 3441              		.loc 1 1294 3 view .LVU960
 3442              		.loc 1 1295 3 view .LVU961
 3443              		.loc 1 1296 3 view .LVU962
 3444              		.loc 1 1302 3 view .LVU963
 3445              	.L339:
 3446              		.loc 1 1305 5 view .LVU964
 3447 005e 0021     		movs	r1, #0
 3448 0060 0846     		mov	r0, r1
 3449 0062 FFF7FEFF 		bl	lcd_set_colors
 3450              	.LVL288:
 3451              		.loc 1 1306 5 view .LVU965
 3452 0066 2D23     		movs	r3, #45
 3453 0068 4FF4DC72 		mov	r2, #440
 3454 006c F021     		movs	r1, #240
 3455 006e 1420     		movs	r0, #20
 3456 0070 FFF7FEFF 		bl	lcd_fill
 3457              	.LVL289:
 3458              		.loc 1 1309 5 view .LVU966
 3459 0074 0221     		movs	r1, #2
 3460 0076 0020     		movs	r0, #0
 3461 0078 FFF7FEFF 		bl	lcd_set_colors
 3462              	.LVL290:
 3463              		.loc 1 1312 5 view .LVU967
 3464 007c 0123     		movs	r3, #1
 3465 007e 4FF4DD72 		mov	r2, #442
 3466 0082 EF21     		movs	r1, #239
 3467 0084 1320     		movs	r0, #19
 3468 0086 FFF7FEFF 		bl	lcd_fill
 3469              	.LVL291:
 3470              		.loc 1 1314 5 view .LVU968
 3471 008a 0123     		movs	r3, #1
 3472 008c 4FF4DD72 		mov	r2, #442
 3473 0090 40F21D11 		movw	r1, #285
 3474 0094 1320     		movs	r0, #19
 3475 0096 FFF7FEFF 		bl	lcd_fill
ARM GAS  C:\msys64\tmp\ccb7DTfv.s 			page 62


 3476              	.LVL292:
 3477              		.loc 1 1316 5 view .LVU969
 3478 009a 2F23     		movs	r3, #47
 3479 009c 0122     		movs	r2, #1
 3480 009e EF21     		movs	r1, #239
 3481 00a0 1320     		movs	r0, #19
 3482 00a2 FFF7FEFF 		bl	lcd_fill
 3483              	.LVL293:
 3484              		.loc 1 1318 5 view .LVU970
 3485              		.loc 1 1320 16 is_stmt 0 view .LVU971
 3486 00a6 0024     		movs	r4, #0
 3487              		.loc 1 1318 5 view .LVU972
 3488 00a8 2F23     		movs	r3, #47
 3489 00aa 0122     		movs	r2, #1
 3490 00ac EF21     		movs	r1, #239
 3491 00ae 4FF4E670 		mov	r0, #460
 3492 00b2 FFF7FEFF 		bl	lcd_fill
 3493              	.LVL294:
 3494              		.loc 1 1320 5 is_stmt 1 view .LVU973
 3495              		.loc 1 1324 6 is_stmt 0 view .LVU974
 3496 00b6 A542     		cmp	r5, r4
 3497              		.loc 1 1320 16 view .LVU975
 3498 00b8 3C60     		str	r4, [r7]
 3499              		.loc 1 1324 3 is_stmt 1 view .LVU976
 3500              		.loc 1 1324 6 is_stmt 0 view .LVU977
 3501 00ba 26DD     		ble	.L346
 3502              	.LVL295:
 3503              	.L341:
 3504              	.LBB219:
 3505              		.loc 1 1326 32 is_stmt 1 discriminator 1 view .LVU978
 3506 00bc 0B25     		movs	r5, #11
 3507 00be 1423     		movs	r3, #20
 3508              	.LBB220:
 3509              		.loc 1 1335 15 is_stmt 0 view .LVU979
 3510 00c0 DFED258A 		vldr.32	s17, .L356+8
 3511 00c4 14FB0535 		smlabb	r5, r4, r5, r3
 3512              		.loc 1 1333 10 view .LVU980
 3513 00c8 B2EE008A 		vmov.f32	s16, #8.0e+0
 3514              	.L345:
 3515              		.loc 1 1328 7 is_stmt 1 view .LVU981
 3516              		.loc 1 1335 12 view .LVU982
 3517              		.loc 1 1330 22 is_stmt 0 view .LVU983
 3518 00cc 0134     		adds	r4, r4, #1
 3519              	.LVL296:
 3520              		.loc 1 1330 12 view .LVU984
 3521 00ce 07EE904A 		vmov	s15, r4	@ int
 3522 00d2 F8EEE77A 		vcvt.f32.s32	s15, s15
 3523              	.LVL297:
 3524              		.loc 1 1332 7 is_stmt 1 view .LVU985
 3525              		.loc 1 1333 7 view .LVU986
 3526              		.loc 1 1334 15 is_stmt 0 view .LVU987
 3527 00d6 0821     		movs	r1, #8
 3528              		.loc 1 1333 10 view .LVU988
 3529 00d8 F4EEC87A 		vcmpe.f32	s15, s16
 3530 00dc F1EE10FA 		vmrs	APSR_nzcv, FPSCR
 3531              		.loc 1 1338 15 view .LVU989
 3532 00e0 F4EEE87A 		vcmpe.f32	s15, s17
ARM GAS  C:\msys64\tmp\ccb7DTfv.s 			page 63


 3533              		.loc 1 1333 10 view .LVU990
 3534 00e4 04D9     		bls	.L343
 3535              		.loc 1 1338 15 view .LVU991
 3536 00e6 F1EE10FA 		vmrs	APSR_nzcv, FPSCR
 3537 00ea 94BF     		ite	ls
 3538 00ec 0621     		movls	r1, #6
 3539 00ee 0A21     		movhi	r1, #10
 3540              	.L343:
 3541              	.LVL298:
 3542              		.loc 1 1340 7 is_stmt 1 view .LVU992
 3543              		.loc 1 1342 7 view .LVU993
 3544 00f0 0020     		movs	r0, #0
 3545 00f2 FFF7FEFF 		bl	lcd_set_colors
 3546              	.LVL299:
 3547              		.loc 1 1343 7 view .LVU994
 3548 00f6 2846     		mov	r0, r5
 3549 00f8 2D23     		movs	r3, #45
 3550 00fa 0922     		movs	r2, #9
 3551 00fc F021     		movs	r1, #240
 3552 00fe FFF7FEFF 		bl	lcd_fill
 3553              	.LVL300:
 3554              	.LBE220:
 3555              		.loc 1 1326 43 discriminator 2 view .LVU995
 3556              		.loc 1 1326 32 discriminator 1 view .LVU996
 3557 0102 B442     		cmp	r4, r6
 3558 0104 05F10B05 		add	r5, r5, #11
 3559              	.LVL301:
 3560              		.loc 1 1326 32 is_stmt 0 discriminator 1 view .LVU997
 3561 0108 E0DB     		blt	.L345
 3562              	.LVL302:
 3563              	.L346:
 3564              		.loc 1 1326 32 discriminator 1 view .LVU998
 3565              	.LBE219:
 3566              		.loc 1 1358 3 is_stmt 1 view .LVU999
 3567              		.loc 1 1359 1 is_stmt 0 view .LVU1000
 3568 010a BDEC028B 		vldm	sp!, {d8}
 3569              		.cfi_remember_state
 3570              		.cfi_restore 80
 3571              		.cfi_restore 81
 3572              		.cfi_def_cfa_offset 24
 3573              		.loc 1 1358 14 view .LVU1001
 3574 010e 3E60     		str	r6, [r7]
 3575              		.loc 1 1359 1 view .LVU1002
 3576 0110 F8BD     		pop	{r3, r4, r5, r6, r7, pc}
 3577              	.LVL303:
 3578              	.L338:
 3579              		.cfi_restore_state
 3580              		.loc 1 1281 3 is_stmt 1 view .LVU1003
 3581              		.loc 1 1286 3 view .LVU1004
 3582              		.loc 1 1287 3 view .LVU1005
 3583              		.loc 1 1290 3 view .LVU1006
 3584              		.loc 1 1291 3 view .LVU1007
 3585              		.loc 1 1294 3 view .LVU1008
 3586              		.loc 1 1295 3 view .LVU1009
 3587              		.loc 1 1296 3 view .LVU1010
 3588              		.loc 1 1302 3 view .LVU1011
 3589              		.loc 1 1302 18 is_stmt 0 view .LVU1012
ARM GAS  C:\msys64\tmp\ccb7DTfv.s 			page 64


 3590 0112 3C68     		ldr	r4, [r7]
 3591              		.loc 1 1302 6 view .LVU1013
 3592 0114 002C     		cmp	r4, #0
 3593 0116 A2DB     		blt	.L339
 3594              		.loc 1 1324 3 is_stmt 1 view .LVU1014
 3595              		.loc 1 1324 6 is_stmt 0 view .LVU1015
 3596 0118 B442     		cmp	r4, r6
 3597 011a CFDB     		blt	.L341
 3598              		.loc 1 1347 8 is_stmt 1 view .LVU1016
 3599              		.loc 1 1347 11 is_stmt 0 view .LVU1017
 3600 011c F5DD     		ble	.L346
 3601 011e 0B24     		movs	r4, #11
 3602 0120 1423     		movs	r3, #20
 3603 0122 16FB0434 		smlabb	r4, r6, r4, r3
 3604              	.LBB221:
 3605              		.loc 1 1349 14 view .LVU1018
 3606 0126 3546     		mov	r5, r6
 3607              	.L347:
 3608              	.LVL304:
 3609              	.LBB222:
 3610              		.loc 1 1351 7 is_stmt 1 view .LVU1019
 3611              		.loc 1 1353 7 view .LVU1020
 3612 0128 0021     		movs	r1, #0
 3613 012a 0846     		mov	r0, r1
 3614 012c FFF7FEFF 		bl	lcd_set_colors
 3615              	.LVL305:
 3616              		.loc 1 1354 7 view .LVU1021
 3617 0130 2D23     		movs	r3, #45
 3618 0132 2046     		mov	r0, r4
 3619 0134 0922     		movs	r2, #9
 3620 0136 F021     		movs	r1, #240
 3621 0138 FFF7FEFF 		bl	lcd_fill
 3622              	.LVL306:
 3623              	.LBE222:
 3624              		.loc 1 1349 43 discriminator 3 view .LVU1022
 3625              		.loc 1 1349 28 is_stmt 0 discriminator 1 view .LVU1023
 3626 013c 3B68     		ldr	r3, [r7]
 3627              		.loc 1 1349 43 discriminator 3 view .LVU1024
 3628 013e 0135     		adds	r5, r5, #1
 3629              	.LVL307:
 3630              		.loc 1 1349 28 is_stmt 1 discriminator 1 view .LVU1025
 3631 0140 AB42     		cmp	r3, r5
 3632 0142 04F10B04 		add	r4, r4, #11
 3633              	.LVL308:
 3634              		.loc 1 1349 28 is_stmt 0 discriminator 1 view .LVU1026
 3635 0146 EFDC     		bgt	.L347
 3636              	.LBE221:
 3637              		.loc 1 1358 3 is_stmt 1 view .LVU1027
 3638              		.loc 1 1359 1 is_stmt 0 view .LVU1028
 3639 0148 BDEC028B 		vldm	sp!, {d8}
 3640              		.cfi_restore 80
 3641              		.cfi_restore 81
 3642              		.cfi_def_cfa_offset 24
 3643              		.loc 1 1358 14 view .LVU1029
 3644 014c 3E60     		str	r6, [r7]
 3645              		.loc 1 1359 1 view .LVU1030
 3646 014e F8BD     		pop	{r3, r4, r5, r6, r7, pc}
ARM GAS  C:\msys64\tmp\ccb7DTfv.s 			page 65


 3647              	.LVL309:
 3648              	.L357:
 3649              		.loc 1 1359 1 view .LVU1031
 3650              		.align	2
 3651              	.L356:
 3652 0150 00000000 		.word	doOnceOnly_In_Mode2
 3653 0154 00000000 		.word	prevActive.26
 3654 0158 00000042 		.word	1107296256
 3655              		.cfi_endproc
 3656              	.LFE257:
 3657              		.size	drawBarGraph, .-drawBarGraph
 3658              		.section	.rodata.displaySWR.str1.4,"aMS",%progbits,1
 3659              		.align	2
 3660              	.LC6:
 3661 0000 53575200 		.ascii	"SWR\000"
 3662              		.align	2
 3663              	.LC7:
 3664 0004 21212100 		.ascii	"!!!\000"
 3665              		.section	.text.displaySWR,"ax",%progbits
 3666              		.align	1
 3667              		.p2align 4,,15
 3668              		.global	displaySWR
 3669              		.syntax unified
 3670              		.thumb
 3671              		.thumb_func
 3672              		.type	displaySWR, %function
 3673              	displaySWR:
 3674              	.LVL310:
 3675              	.LFB258:
 3676              		.loc 1 1362 1 is_stmt 1 view -0
 3677              		.cfi_startproc
 3678              		@ args = 0, pretend = 0, frame = 8
 3679              		@ frame_needed = 0, uses_anonymous_args = 0
 3680              		.loc 1 1364 3 view .LVU1033
 3681              		.loc 1 1365 3 view .LVU1034
 3682              		.loc 1 1366 3 view .LVU1035
 3683              		.loc 1 1368 3 view .LVU1036
 3684              		.loc 1 1362 1 is_stmt 0 view .LVU1037
 3685 0000 70B5     		push	{r4, r5, r6, lr}
 3686              		.cfi_def_cfa_offset 16
 3687              		.cfi_offset 4, -16
 3688              		.cfi_offset 5, -12
 3689              		.cfi_offset 6, -8
 3690              		.cfi_offset 14, -4
 3691              		.loc 1 1368 7 view .LVU1038
 3692 0002 714B     		ldr	r3, .L391
 3693              		.loc 1 1362 1 view .LVU1039
 3694 0004 2DED028B 		vpush.64	{d8}
 3695              		.cfi_def_cfa_offset 24
 3696              		.cfi_offset 80, -24
 3697              		.cfi_offset 81, -20
 3698              		.loc 1 1368 6 view .LVU1040
 3699 0008 1B78     		ldrb	r3, [r3]	@ zero_extendqisi2
 3700              		.loc 1 1362 1 view .LVU1041
 3701 000a 82B0     		sub	sp, sp, #8
 3702              		.cfi_def_cfa_offset 32
 3703              		.loc 1 1368 6 view .LVU1042
ARM GAS  C:\msys64\tmp\ccb7DTfv.s 			page 66


 3704 000c 13B1     		cbz	r3, .L359
 3705              		.loc 1 1370 5 is_stmt 1 view .LVU1043
 3706              		.loc 1 1370 17 is_stmt 0 view .LVU1044
 3707 000e 6F4B     		ldr	r3, .L391+4
 3708 0010 0022     		movs	r2, #0
 3709 0012 1A60     		str	r2, [r3]
 3710              	.L359:
 3711              		.loc 1 1374 3 is_stmt 1 view .LVU1045
 3712              		.loc 1 1375 3 view .LVU1046
 3713              		.loc 1 1376 3 view .LVU1047
 3714              		.loc 1 1378 3 view .LVU1048
 3715              	.LBB223:
 3716              	.LBI223:
 3717              		.loc 3 228 25 view .LVU1049
 3718              		.loc 3 233 3 view .LVU1050
 3719              	.LBB224:
 3720              	.LBI224:
 3721              		.loc 4 105 25 view .LVU1051
 3722              		.loc 4 107 3 view .LVU1052
 3723              	.LBB225:
 3724              	.LBI225:
 3725              		.loc 5 139 25 view .LVU1053
 3726              	.LBB226:
 3727              		.loc 5 141 3 view .LVU1054
 3728              	.LBE226:
 3729              	.LBE225:
 3730              	.LBE224:
 3731              	.LBE223:
 3732              		.loc 1 1379 10 is_stmt 0 view .LVU1055
 3733 0014 6E4A     		ldr	r2, .L391+8
 3734              	.LBB233:
 3735              	.LBB231:
 3736              	.LBB229:
 3737              	.LBB227:
 3738              		.loc 5 141 10 view .LVU1056
 3739 0016 4FF08041 		mov	r1, #1073741824
 3740              	.LBE227:
 3741              	.LBE229:
 3742              	.LBE231:
 3743              	.LBE233:
 3744              		.loc 1 1379 10 view .LVU1057
 3745 001a 1368     		ldr	r3, [r2]
 3746              	.LBB234:
 3747              	.LBB232:
 3748              	.LBB230:
 3749              	.LBB228:
 3750              		.loc 5 141 10 view .LVU1058
 3751 001c 496A     		ldr	r1, [r1, #36]
 3752              	.LVL311:
 3753              		.loc 5 141 10 view .LVU1059
 3754              	.LBE228:
 3755              	.LBE230:
 3756              	.LBE232:
 3757              	.LBE234:
 3758              		.loc 1 1379 3 is_stmt 1 view .LVU1060
 3759              		.loc 1 1379 6 is_stmt 0 view .LVU1061
 3760 001e 002B     		cmp	r3, #0
ARM GAS  C:\msys64\tmp\ccb7DTfv.s 			page 67


 3761 0020 7ED0     		beq	.L360
 3762              		.loc 1 1383 7 view .LVU1062
 3763 0022 6C4D     		ldr	r5, .L391+12
 3764              		.loc 1 1384 9 view .LVU1063
 3765 0024 6C4C     		ldr	r4, .L391+16
 3766              		.loc 1 1383 7 view .LVU1064
 3767 0026 D5ED007A 		vldr.32	s15, [r5]
 3768              		.loc 1 1384 9 view .LVU1065
 3769 002a 2088     		ldrh	r0, [r4]
 3770              		.loc 1 1383 7 view .LVU1066
 3771 002c 30EE270A 		vadd.f32	s0, s0, s15
 3772              	.LVL312:
 3773              		.loc 1 1384 6 view .LVU1067
 3774 0030 4FF6FF76 		movw	r6, #65535
 3775 0034 B042     		cmp	r0, r6
 3776              		.loc 1 1388 23 view .LVU1068
 3777 0036 A1EB0303 		sub	r3, r1, r3
 3778              		.loc 1 1383 3 is_stmt 1 view .LVU1069
 3779              		.loc 1 1383 7 is_stmt 0 view .LVU1070
 3780 003a 85ED000A 		vstr.32	s0, [r5]
 3781              		.loc 1 1384 3 is_stmt 1 view .LVU1071
 3782              		.loc 1 1384 6 is_stmt 0 view .LVU1072
 3783 003e 01D0     		beq	.L362
 3784              		.loc 1 1385 5 is_stmt 1 view .LVU1073
 3785              		.loc 1 1385 6 is_stmt 0 view .LVU1074
 3786 0040 0130     		adds	r0, r0, #1
 3787 0042 2080     		strh	r0, [r4]	@ movhi
 3788              	.L362:
 3789              		.loc 1 1388 3 is_stmt 1 view .LVU1075
 3790              		.loc 1 1388 6 is_stmt 0 view .LVU1076
 3791 0044 F92B     		cmp	r3, #249
 3792 0046 67D9     		bls	.L358
 3793              		.loc 1 1392 3 is_stmt 1 view .LVU1077
 3794              		.loc 1 1392 27 is_stmt 0 discriminator 1 view .LVU1078
 3795 0048 2388     		ldrh	r3, [r4]
 3796              		.loc 1 1398 7 view .LVU1079
 3797 004a 604E     		ldr	r6, .L391+4
 3798              		.loc 1 1395 6 view .LVU1080
 3799 004c 1160     		str	r1, [r2]
 3800              		.loc 1 1392 27 discriminator 1 view .LVU1081
 3801 004e 07EE903A 		vmov	s15, r3	@ int
 3802              		.loc 1 1398 6 view .LVU1082
 3803 0052 3068     		ldr	r0, [r6]
 3804              		.loc 1 1392 27 discriminator 1 view .LVU1083
 3805 0054 F8EE677A 		vcvt.f32.u32	s15, s15
 3806              		.loc 1 1393 7 view .LVU1084
 3807 0058 0023     		movs	r3, #0
 3808              		.loc 1 1394 5 view .LVU1085
 3809 005a 0022     		movs	r2, #0
 3810              		.loc 1 1392 37 discriminator 1 view .LVU1086
 3811 005c 80EE278A 		vdiv.f32	s16, s0, s15
 3812              	.LVL313:
 3813              		.loc 1 1393 3 is_stmt 1 view .LVU1087
 3814              		.loc 1 1394 5 is_stmt 0 view .LVU1088
 3815 0060 2280     		strh	r2, [r4]	@ movhi
 3816              		.loc 1 1393 7 view .LVU1089
 3817 0062 2B60     		str	r3, [r5]	@ float
ARM GAS  C:\msys64\tmp\ccb7DTfv.s 			page 68


 3818              		.loc 1 1394 3 is_stmt 1 view .LVU1090
 3819              		.loc 1 1395 3 view .LVU1091
 3820              		.loc 1 1398 3 view .LVU1092
 3821              		.loc 1 1398 6 is_stmt 0 view .LVU1093
 3822 0064 0028     		cmp	r0, #0
 3823 0066 00F09080 		beq	.L389
 3824              		.loc 1 1407 3 is_stmt 1 view .LVU1094
 3825              	.LVL314:
 3826              		.loc 1 1408 3 view .LVU1095
 3827              		.loc 1 1408 6 is_stmt 0 view .LVU1096
 3828 006a B5EEC08A 		vcmpe.f32	s16, #0
 3829 006e F1EE10FA 		vmrs	APSR_nzcv, FPSCR
 3830 0072 69D9     		bls	.L364
 3831              	.LVL315:
 3832              	.L390:
 3833              		.loc 1 1408 37 discriminator 1 view .LVU1097
 3834 0074 DFED597A 		vldr.32	s15, .L391+20
 3835 0078 B4EEE78A 		vcmpe.f32	s16, s15
 3836 007c F1EE10FA 		vmrs	APSR_nzcv, FPSCR
 3837 0080 62DC     		bgt	.L364
 3838              		.loc 1 1412 3 is_stmt 1 view .LVU1098
 3839              		.loc 1 1413 3 view .LVU1099
 3840              		.loc 1 1415 8 view .LVU1100
 3841              		.loc 1 1415 11 is_stmt 0 view .LVU1101
 3842 0082 F7EE087A 		vmov.f32	s15, #1.5e+0
 3843 0086 B4EEE78A 		vcmpe.f32	s16, s15
 3844 008a F1EE10FA 		vmrs	APSR_nzcv, FPSCR
 3845 008e 40F29480 		bls	.L374
 3846              		.loc 1 1417 8 is_stmt 1 view .LVU1102
 3847              		.loc 1 1417 11 is_stmt 0 view .LVU1103
 3848 0092 F0EE087A 		vmov.f32	s15, #3.0e+0
 3849              		.loc 1 1420 11 view .LVU1104
 3850 0096 B4EEE78A 		vcmpe.f32	s16, s15
 3851 009a F1EE10FA 		vmrs	APSR_nzcv, FPSCR
 3852 009e 94BF     		ite	ls
 3853 00a0 0625     		movls	r5, #6
 3854 00a2 0A25     		movhi	r5, #10
 3855              	.L365:
 3856              	.LVL316:
 3857              		.loc 1 1423 3 is_stmt 1 view .LVU1105
 3858              		.loc 1 1423 54 is_stmt 0 discriminator 1 view .LVU1106
 3859 00a4 B2EE047A 		vmov.f32	s14, #1.0e+1
 3860 00a8 F6EE007A 		vmov.f32	s15, #5.0e-1
 3861 00ac E8EE077A 		vfma.f32	s15, s16, s14
 3862              		.loc 1 1428 18 view .LVU1107
 3863 00b0 4B4B     		ldr	r3, .L391+24
 3864              		.loc 1 1428 8 view .LVU1108
 3865 00b2 1A68     		ldr	r2, [r3]
 3866              		.loc 1 1423 34 discriminator 1 view .LVU1109
 3867 00b4 FDEEE77A 		vcvt.s32.f32	s15, s15
 3868 00b8 17EE904A 		vmov	r4, s15	@ int
 3869              	.LVL317:
 3870              		.loc 1 1426 3 is_stmt 1 view .LVU1110
 3871              		.loc 1 1428 5 view .LVU1111
 3872              		.loc 1 1428 8 is_stmt 0 view .LVU1112
 3873 00bc A242     		cmp	r2, r4
 3874              		.loc 1 1428 45 discriminator 1 view .LVU1113
ARM GAS  C:\msys64\tmp\ccb7DTfv.s 			page 69


 3875 00be 494A     		ldr	r2, .L391+28
 3876              		.loc 1 1428 8 view .LVU1114
 3877 00c0 7DD0     		beq	.L385
 3878              	.L367:
 3879              		.loc 1 1438 3 is_stmt 1 view .LVU1115
 3880              		.loc 1 1442 3 is_stmt 0 view .LVU1116
 3881 00c2 0020     		movs	r0, #0
 3882              		.loc 1 1438 16 view .LVU1117
 3883 00c4 1C60     		str	r4, [r3]
 3884              		.loc 1 1439 3 is_stmt 1 view .LVU1118
 3885              		.loc 1 1439 14 is_stmt 0 view .LVU1119
 3886 00c6 1580     		strh	r5, [r2]	@ movhi
 3887              		.loc 1 1442 3 is_stmt 1 view .LVU1120
 3888 00c8 FFF7FEFF 		bl	lcd_set_background
 3889              	.LVL318:
 3890              		.loc 1 1443 3 view .LVU1121
 3891 00cc 3223     		movs	r3, #50
 3892 00ce 8C22     		movs	r2, #140
 3893 00d0 8221     		movs	r1, #130
 3894 00d2 FA20     		movs	r0, #250
 3895 00d4 FFF7FEFF 		bl	lcd_fill
 3896              	.LVL319:
 3897              		.loc 1 1445 3 view .LVU1122
 3898 00d8 2846     		mov	r0, r5
 3899 00da FFF7FEFF 		bl	lcd_set_foreground
 3900              	.LVL320:
 3901              		.loc 1 1447 3 view .LVU1123
 3902              		.loc 1 1454 3 view .LVU1124
 3903              		.loc 1 1455 3 view .LVU1125
 3904              		.loc 1 1457 3 view .LVU1126
 3905              		.loc 1 1458 3 view .LVU1127
 3906              		.loc 1 1454 7 is_stmt 0 view .LVU1128
 3907 00de 424A     		ldr	r2, .L391+32
 3908 00e0 82FB0432 		smull	r3, r2, r2, r4
 3909 00e4 E317     		asrs	r3, r4, #31
 3910 00e6 C3EBA203 		rsb	r3, r3, r2, asr #2
 3911              		.loc 1 1455 7 view .LVU1129
 3912 00ea 03EB8302 		add	r2, r3, r3, lsl #2
 3913              		.loc 1 1459 10 view .LVU1130
 3914 00ee 2E21     		movs	r1, #46
 3915              		.loc 1 1455 7 view .LVU1131
 3916 00f0 A4EB4204 		sub	r4, r4, r2, lsl #1
 3917              	.LVL321:
 3918              		.loc 1 1458 16 view .LVU1132
 3919 00f4 03F13002 		add	r2, r3, #48
 3920              		.loc 1 1460 16 view .LVU1133
 3921 00f8 3034     		adds	r4, r4, #48
 3922              		.loc 1 1461 10 view .LVU1134
 3923 00fa 0025     		movs	r5, #0
 3924              	.LVL322:
 3925              		.loc 1 1458 10 view .LVU1135
 3926 00fc 8DF80420 		strb	r2, [sp, #4]
 3927              		.loc 1 1459 3 is_stmt 1 view .LVU1136
 3928              		.loc 1 1459 10 is_stmt 0 view .LVU1137
 3929 0100 8DF80510 		strb	r1, [sp, #5]
 3930              		.loc 1 1460 3 is_stmt 1 view .LVU1138
 3931              		.loc 1 1463 3 is_stmt 0 view .LVU1139
ARM GAS  C:\msys64\tmp\ccb7DTfv.s 			page 70


 3932 0104 0323     		movs	r3, #3
 3933 0106 8C22     		movs	r2, #140
 3934 0108 F021     		movs	r1, #240
 3935 010a 01A8     		add	r0, sp, #4
 3936              		.loc 1 1460 10 view .LVU1140
 3937 010c 8DF80640 		strb	r4, [sp, #6]
 3938              		.loc 1 1461 3 is_stmt 1 view .LVU1141
 3939              		.loc 1 1461 10 is_stmt 0 view .LVU1142
 3940 0110 8DF80750 		strb	r5, [sp, #7]
 3941              		.loc 1 1463 3 is_stmt 1 view .LVU1143
 3942 0114 FFF7FEFF 		bl	lcd_drawstring_size
 3943              	.LVL323:
 3944              	.L358:
 3945              		.loc 1 1464 1 is_stmt 0 view .LVU1144
 3946 0118 02B0     		add	sp, sp, #8
 3947              		.cfi_remember_state
 3948              		.cfi_def_cfa_offset 24
 3949              		@ sp needed
 3950 011a BDEC028B 		vldm	sp!, {d8}
 3951              		.cfi_restore 80
 3952              		.cfi_restore 81
 3953              		.cfi_def_cfa_offset 16
 3954 011e 70BD     		pop	{r4, r5, r6, pc}
 3955              	.LVL324:
 3956              	.L360:
 3957              		.cfi_restore_state
 3958              		.loc 1 1380 5 is_stmt 1 view .LVU1145
 3959              		.loc 1 1383 7 is_stmt 0 view .LVU1146
 3960 0120 2C48     		ldr	r0, .L391+12
 3961              		.loc 1 1384 9 view .LVU1147
 3962 0122 2D4C     		ldr	r4, .L391+16
 3963              		.loc 1 1383 7 view .LVU1148
 3964 0124 D0ED007A 		vldr.32	s15, [r0]
 3965              		.loc 1 1384 9 view .LVU1149
 3966 0128 2388     		ldrh	r3, [r4]
 3967              		.loc 1 1380 8 view .LVU1150
 3968 012a 1160     		str	r1, [r2]
 3969              		.loc 1 1383 3 is_stmt 1 view .LVU1151
 3970              		.loc 1 1383 7 is_stmt 0 view .LVU1152
 3971 012c 77EE807A 		vadd.f32	s15, s15, s0
 3972              		.loc 1 1384 6 view .LVU1153
 3973 0130 4FF6FF72 		movw	r2, #65535
 3974 0134 9342     		cmp	r3, r2
 3975              		.loc 1 1383 7 view .LVU1154
 3976 0136 C0ED007A 		vstr.32	s15, [r0]
 3977              		.loc 1 1384 3 is_stmt 1 view .LVU1155
 3978              		.loc 1 1384 6 is_stmt 0 view .LVU1156
 3979 013a EDD0     		beq	.L358
 3980              		.loc 1 1385 5 is_stmt 1 view .LVU1157
 3981              		.loc 1 1385 6 is_stmt 0 view .LVU1158
 3982 013c 0133     		adds	r3, r3, #1
 3983 013e 2380     		strh	r3, [r4]	@ movhi
 3984              		.loc 1 1388 3 is_stmt 1 view .LVU1159
 3985              		.loc 1 1464 1 is_stmt 0 view .LVU1160
 3986 0140 02B0     		add	sp, sp, #8
 3987              		.cfi_remember_state
 3988              		.cfi_def_cfa_offset 24
ARM GAS  C:\msys64\tmp\ccb7DTfv.s 			page 71


 3989              		@ sp needed
 3990 0142 BDEC028B 		vldm	sp!, {d8}
 3991              		.cfi_restore 80
 3992              		.cfi_restore 81
 3993              		.cfi_def_cfa_offset 16
 3994 0146 70BD     		pop	{r4, r5, r6, pc}
 3995              	.LVL325:
 3996              	.L364:
 3997              		.cfi_restore_state
 3998              		.loc 1 1409 5 is_stmt 1 view .LVU1161
 3999              		.loc 1 1412 3 view .LVU1162
 4000              		.loc 1 1413 3 view .LVU1163
 4001              		.loc 1 1423 3 view .LVU1164
 4002              		.loc 1 1426 3 view .LVU1165
 4003              		.loc 1 1434 5 view .LVU1166
 4004              		.loc 1 1434 23 is_stmt 0 view .LVU1167
 4005 0148 254B     		ldr	r3, .L391+24
 4006              		.loc 1 1434 8 view .LVU1168
 4007 014a 284A     		ldr	r2, .L391+36
 4008 014c 1968     		ldr	r1, [r3]
 4009 014e 9142     		cmp	r1, r2
 4010              		.loc 1 1434 48 discriminator 1 view .LVU1169
 4011 0150 244A     		ldr	r2, .L391+28
 4012              		.loc 1 1434 8 view .LVU1170
 4013 0152 2ED0     		beq	.L386
 4014              	.L369:
 4015              		.loc 1 1438 3 is_stmt 1 view .LVU1171
 4016              		.loc 1 1438 16 is_stmt 0 view .LVU1172
 4017 0154 2549     		ldr	r1, .L391+36
 4018 0156 1960     		str	r1, [r3]
 4019              		.loc 1 1439 3 is_stmt 1 view .LVU1173
 4020              		.loc 1 1439 14 is_stmt 0 view .LVU1174
 4021 0158 0A24     		movs	r4, #10
 4022              		.loc 1 1442 3 view .LVU1175
 4023 015a 0020     		movs	r0, #0
 4024              		.loc 1 1439 14 view .LVU1176
 4025 015c 1480     		strh	r4, [r2]	@ movhi
 4026              		.loc 1 1442 3 is_stmt 1 view .LVU1177
 4027 015e FFF7FEFF 		bl	lcd_set_background
 4028              	.LVL326:
 4029              		.loc 1 1443 3 view .LVU1178
 4030 0162 3223     		movs	r3, #50
 4031 0164 8C22     		movs	r2, #140
 4032 0166 8221     		movs	r1, #130
 4033 0168 FA20     		movs	r0, #250
 4034 016a FFF7FEFF 		bl	lcd_fill
 4035              	.LVL327:
 4036              		.loc 1 1445 3 view .LVU1179
 4037 016e 2046     		mov	r0, r4
 4038 0170 FFF7FEFF 		bl	lcd_set_foreground
 4039              	.LVL328:
 4040              		.loc 1 1447 3 view .LVU1180
 4041              		.loc 1 1449 5 view .LVU1181
 4042 0174 1E48     		ldr	r0, .L391+40
 4043 0176 0323     		movs	r3, #3
 4044 0178 8C22     		movs	r2, #140
 4045 017a F021     		movs	r1, #240
ARM GAS  C:\msys64\tmp\ccb7DTfv.s 			page 72


 4046              		.loc 1 1464 1 is_stmt 0 view .LVU1182
 4047 017c 02B0     		add	sp, sp, #8
 4048              		.cfi_remember_state
 4049              		.cfi_def_cfa_offset 24
 4050              		@ sp needed
 4051 017e BDEC028B 		vldm	sp!, {d8}
 4052              		.cfi_restore 80
 4053              		.cfi_restore 81
 4054              		.cfi_def_cfa_offset 16
 4055              	.LVL329:
 4056              		.loc 1 1464 1 view .LVU1183
 4057 0182 BDE87040 		pop	{r4, r5, r6, lr}
 4058              		.cfi_restore 14
 4059              		.cfi_restore 6
 4060              		.cfi_restore 5
 4061              		.cfi_restore 4
 4062              		.cfi_def_cfa_offset 0
 4063              		.loc 1 1449 5 view .LVU1184
 4064 0186 FFF7FEBF 		b	lcd_drawstring_size
 4065              	.LVL330:
 4066              	.L389:
 4067              		.cfi_restore_state
 4068              		.loc 1 1400 5 is_stmt 1 view .LVU1185
 4069 018a FFF7FEFF 		bl	lcd_set_background
 4070              	.LVL331:
 4071              		.loc 1 1401 5 view .LVU1186
 4072 018e 0120     		movs	r0, #1
 4073 0190 FFF7FEFF 		bl	lcd_set_foreground
 4074              	.LVL332:
 4075              		.loc 1 1402 5 view .LVU1187
 4076 0194 8C22     		movs	r2, #140
 4077 0196 0323     		movs	r3, #3
 4078 0198 1648     		ldr	r0, .L391+44
 4079 019a 1146     		mov	r1, r2
 4080 019c FFF7FEFF 		bl	lcd_drawstring_size
 4081              	.LVL333:
 4082              		.loc 1 1403 5 view .LVU1188
 4083              		.loc 1 1408 6 is_stmt 0 view .LVU1189
 4084 01a0 B5EEC08A 		vcmpe.f32	s16, #0
 4085              		.loc 1 1403 17 view .LVU1190
 4086 01a4 0123     		movs	r3, #1
 4087              		.loc 1 1408 6 view .LVU1191
 4088 01a6 F1EE10FA 		vmrs	APSR_nzcv, FPSCR
 4089              		.loc 1 1403 17 view .LVU1192
 4090 01aa 3360     		str	r3, [r6]
 4091              		.loc 1 1407 3 is_stmt 1 view .LVU1193
 4092              	.LVL334:
 4093              		.loc 1 1408 3 view .LVU1194
 4094              		.loc 1 1408 6 is_stmt 0 view .LVU1195
 4095 01ac 3FF662AF 		bhi	.L390
 4096 01b0 CAE7     		b	.L364
 4097              	.LVL335:
 4098              	.L386:
 4099              		.loc 1 1434 33 discriminator 1 view .LVU1196
 4100 01b2 1188     		ldrh	r1, [r2]
 4101 01b4 0A29     		cmp	r1, #10
 4102 01b6 CDD1     		bne	.L369
ARM GAS  C:\msys64\tmp\ccb7DTfv.s 			page 73


 4103 01b8 AEE7     		b	.L358
 4104              	.LVL336:
 4105              	.L374:
 4106              		.loc 1 1416 11 view .LVU1197
 4107 01ba 0825     		movs	r5, #8
 4108 01bc 72E7     		b	.L365
 4109              	.LVL337:
 4110              	.L385:
 4111              		.loc 1 1428 35 discriminator 1 view .LVU1198
 4112 01be 1188     		ldrh	r1, [r2]
 4113 01c0 A942     		cmp	r1, r5
 4114 01c2 7FF47EAF 		bne	.L367
 4115 01c6 A7E7     		b	.L358
 4116              	.L392:
 4117              		.align	2
 4118              	.L391:
 4119 01c8 00000000 		.word	doOnceOnly_In_Mode2
 4120 01cc 00000000 		.word	label_drawn.25
 4121 01d0 00000000 		.word	t0.24
 4122 01d4 00000000 		.word	acc.23
 4123 01d8 00000000 		.word	n.22
 4124 01dc 66661E41 		.word	1092511334
 4125 01e0 00000000 		.word	last_swr_int.21
 4126 01e4 00000000 		.word	last_color.20
 4127 01e8 67666666 		.word	1717986919
 4128 01ec F1D8FFFF 		.word	-9999
 4129 01f0 04000000 		.word	.LC7
 4130 01f4 00000000 		.word	.LC6
 4131              		.cfi_endproc
 4132              	.LFE258:
 4133              		.size	displaySWR, .-displaySWR
 4134              		.section	.text.displayTargetFrequency,"ax",%progbits
 4135              		.align	1
 4136              		.p2align 4,,15
 4137              		.global	displayTargetFrequency
 4138              		.syntax unified
 4139              		.thumb
 4140              		.thumb_func
 4141              		.type	displayTargetFrequency, %function
 4142              	displayTargetFrequency:
 4143              	.LVL338:
 4144              	.LFB260:
 4145              		.loc 1 1551 1 is_stmt 1 view -0
 4146              		.cfi_startproc
 4147              		@ args = 0, pretend = 0, frame = 16
 4148              		@ frame_needed = 0, uses_anonymous_args = 0
 4149              		.loc 1 1552 3 view .LVU1200
 4150              		.loc 1 1553 3 view .LVU1201
 4151              		.loc 1 1554 3 view .LVU1202
 4152              		.loc 1 1551 1 is_stmt 0 view .LVU1203
 4153 0000 2DE9F04F 		push	{r4, r5, r6, r7, r8, r9, r10, fp, lr}
 4154              		.cfi_def_cfa_offset 36
 4155              		.cfi_offset 4, -36
 4156              		.cfi_offset 5, -32
 4157              		.cfi_offset 6, -28
 4158              		.cfi_offset 7, -24
 4159              		.cfi_offset 8, -20
ARM GAS  C:\msys64\tmp\ccb7DTfv.s 			page 74


 4160              		.cfi_offset 9, -16
 4161              		.cfi_offset 10, -12
 4162              		.cfi_offset 11, -8
 4163              		.cfi_offset 14, -4
 4164              		.loc 1 1554 27 view .LVU1204
 4165 0004 784B     		ldr	r3, .L414
 4166              		.loc 1 1556 17 view .LVU1205
 4167 0006 794D     		ldr	r5, .L414+4
 4168              		.loc 1 1554 6 view .LVU1206
 4169 0008 1B78     		ldrb	r3, [r3]	@ zero_extendqisi2
 4170              		.loc 1 1551 1 view .LVU1207
 4171 000a 85B0     		sub	sp, sp, #20
 4172              		.cfi_def_cfa_offset 56
 4173              		.loc 1 1551 1 view .LVU1208
 4174 000c 0446     		mov	r4, r0
 4175              		.loc 1 1554 6 view .LVU1209
 4176 000e 002B     		cmp	r3, #0
 4177 0010 00F0E580 		beq	.L394
 4178              		.loc 1 1556 5 is_stmt 1 view .LVU1210
 4179              		.loc 1 1556 17 is_stmt 0 view .LVU1211
 4180 0014 0023     		movs	r3, #0
 4181 0016 2B60     		str	r3, [r5]
 4182              		.loc 1 1558 3 is_stmt 1 view .LVU1212
 4183              	.LVL339:
 4184              		.loc 1 1561 3 view .LVU1213
 4185              	.L395:
 4186              	.LBB248:
 4187              		.loc 1 1563 5 view .LVU1214
 4188 0018 0020     		movs	r0, #0
 4189              	.LVL340:
 4190              		.loc 1 1563 5 is_stmt 0 view .LVU1215
 4191 001a FFF7FEFF 		bl	lcd_set_background
 4192              	.LVL341:
 4193              		.loc 1 1564 5 is_stmt 1 view .LVU1216
 4194 001e 0120     		movs	r0, #1
 4195 0020 FFF7FEFF 		bl	lcd_set_foreground
 4196              	.LVL342:
 4197              		.loc 1 1566 5 view .LVU1217
 4198              		.loc 1 1566 10 is_stmt 0 view .LVU1218
 4199 0024 724B     		ldr	r3, .L414+8
 4200 0026 93E80700 		ldm	r3, {r0, r1, r2}
 4201 002a 6B46     		mov	r3, sp
 4202 002c 03C3     		stmia	r3!, {r0, r1}
 4203 002e 0022     		movs	r2, #0
 4204              		.loc 1 1567 14 view .LVU1219
 4205 0030 1821     		movs	r1, #24
 4206              		.loc 1 1566 10 view .LVU1220
 4207 0032 CDF80920 		str	r2, [sp, #9]	@ unaligned
 4208              		.loc 1 1570 5 view .LVU1221
 4209 0036 0323     		movs	r3, #3
 4210              		.loc 1 1567 14 view .LVU1222
 4211 0038 8DF80810 		strb	r1, [sp, #8]
 4212              		.loc 1 1566 10 view .LVU1223
 4213 003c 0392     		str	r2, [sp, #12]	@ unaligned
 4214              		.loc 1 1567 5 is_stmt 1 view .LVU1224
 4215              		.loc 1 1568 5 view .LVU1225
 4216              		.loc 1 1570 5 view .LVU1226
ARM GAS  C:\msys64\tmp\ccb7DTfv.s 			page 75


 4217 003e 0A21     		movs	r1, #10
 4218 0040 2322     		movs	r2, #35
 4219 0042 6846     		mov	r0, sp
 4220 0044 FFF7FEFF 		bl	lcd_drawstring_size
 4221              	.LVL343:
 4222              		.loc 1 1571 5 view .LVU1227
 4223              		.loc 1 1571 17 is_stmt 0 view .LVU1228
 4224 0048 0123     		movs	r3, #1
 4225 004a 2B60     		str	r3, [r5]
 4226              	.L396:
 4227              	.LBE248:
 4228              		.loc 1 1575 3 is_stmt 1 view .LVU1229
 4229              		.loc 1 1575 24 is_stmt 0 view .LVU1230
 4230 004c 6949     		ldr	r1, .L414+12
 4231              		.loc 1 1575 6 view .LVU1231
 4232 004e 0B68     		ldr	r3, [r1]
 4233 0050 A342     		cmp	r3, r4
 4234 0052 00F0C180 		beq	.L393
 4235              		.loc 1 1578 3 is_stmt 1 view .LVU1232
 4236              		.loc 1 1582 36 is_stmt 0 view .LVU1233
 4237 0056 684B     		ldr	r3, .L414+16
 4238              		.loc 1 1581 12 view .LVU1234
 4239 0058 684D     		ldr	r5, .L414+20
 4240              		.loc 1 1578 13 view .LVU1235
 4241 005a 0C60     		str	r4, [r1]
 4242              		.loc 1 1581 3 is_stmt 1 view .LVU1236
 4243              		.loc 1 1582 36 is_stmt 0 view .LVU1237
 4244 005c A3FB0402 		umull	r0, r2, r3, r4
 4245 0060 9209     		lsrs	r2, r2, #6
 4246              		.loc 1 1582 12 view .LVU1238
 4247 0062 A3FB0203 		umull	r0, r3, r3, r2
 4248              		.loc 1 1581 12 view .LVU1239
 4249 0066 A5FB0405 		umull	r0, r5, r5, r4
 4250              		.loc 1 1582 12 view .LVU1240
 4251 006a 9E09     		lsrs	r6, r3, #6
 4252              		.loc 1 1586 3 view .LVU1241
 4253 006c 0020     		movs	r0, #0
 4254              		.loc 1 1582 12 view .LVU1242
 4255 006e 4FF47A73 		mov	r3, #1000
 4256 0072 03FB1626 		mls	r6, r3, r6, r2
 4257              		.loc 1 1583 12 view .LVU1243
 4258 0076 03FB1244 		mls	r4, r3, r2, r4
 4259              	.LVL344:
 4260              		.loc 1 1586 3 view .LVU1244
 4261 007a FFF7FEFF 		bl	lcd_set_background
 4262              	.LVL345:
 4263              		.loc 1 1587 3 view .LVU1245
 4264 007e 1921     		movs	r1, #25
 4265 0080 4FF48272 		mov	r2, #260
 4266 0084 2323     		movs	r3, #35
 4267 0086 C820     		movs	r0, #200
 4268 0088 FFF7FEFF 		bl	lcd_fill
 4269              	.LVL346:
 4270              		.loc 1 1589 3 view .LVU1246
 4271 008c 0120     		movs	r0, #1
 4272 008e FFF7FEFF 		bl	lcd_set_foreground
 4273              	.LVL347:
ARM GAS  C:\msys64\tmp\ccb7DTfv.s 			page 76


 4274              		.loc 1 1594 23 view .LVU1247
 4275 0092 5B4B     		ldr	r3, .L414+24
 4276              		.loc 1 1597 23 view .LVU1248
 4277 0094 DFF86CE1 		ldr	lr, .L414+28
 4278              		.loc 1 1581 12 view .LVU1249
 4279 0098 AD0C     		lsrs	r5, r5, #18
 4280              	.LVL348:
 4281              		.loc 1 1582 3 is_stmt 1 view .LVU1250
 4282              		.loc 1 1583 3 view .LVU1251
 4283              		.loc 1 1586 3 view .LVU1252
 4284              		.loc 1 1587 3 view .LVU1253
 4285              		.loc 1 1589 3 view .LVU1254
 4286              		.loc 1 1592 3 view .LVU1255
 4287              		.loc 1 1594 3 view .LVU1256
 4288              		.loc 1 1594 23 is_stmt 0 view .LVU1257
 4289 009a A3FB0520 		umull	r2, r0, r3, r5
 4290              		.loc 1 1598 24 view .LVU1258
 4291 009e A3FB0612 		umull	r1, r2, r3, r6
 4292 00a2 D208     		lsrs	r2, r2, #3
 4293              		.loc 1 1602 23 view .LVU1259
 4294 00a4 A3FB041C 		umull	r1, ip, r3, r4
 4295              		.loc 1 1598 30 view .LVU1260
 4296 00a8 A3FB0217 		umull	r1, r7, r3, r2
 4297              		.loc 1 1602 23 view .LVU1261
 4298 00ac 4FEADC0C 		lsr	ip, ip, #3
 4299              		.loc 1 1598 30 view .LVU1262
 4300 00b0 FF08     		lsrs	r7, r7, #3
 4301              		.loc 1 1602 29 view .LVU1263
 4302 00b2 A3FB0C13 		umull	r1, r3, r3, ip
 4303              		.loc 1 1598 30 view .LVU1264
 4304 00b6 07EB8707 		add	r7, r7, r7, lsl #2
 4305              		.loc 1 1602 29 view .LVU1265
 4306 00ba DB08     		lsrs	r3, r3, #3
 4307              		.loc 1 1598 30 view .LVU1266
 4308 00bc A2EB4707 		sub	r7, r2, r7, lsl #1
 4309              		.loc 1 1599 23 view .LVU1267
 4310 00c0 02EB8202 		add	r2, r2, r2, lsl #2
 4311 00c4 A6EB4202 		sub	r2, r6, r2, lsl #1
 4312              		.loc 1 1602 29 view .LVU1268
 4313 00c8 03EB8301 		add	r1, r3, r3, lsl #2
 4314              		.loc 1 1597 23 view .LVU1269
 4315 00cc AEFB0663 		umull	r6, r3, lr, r6
 4316              	.LVL349:
 4317              		.loc 1 1599 16 view .LVU1270
 4318 00d0 3032     		adds	r2, r2, #48
 4319              		.loc 1 1597 23 view .LVU1271
 4320 00d2 5B09     		lsrs	r3, r3, #5
 4321              		.loc 1 1602 29 view .LVU1272
 4322 00d4 ACEB4101 		sub	r1, ip, r1, lsl #1
 4323              		.loc 1 1594 23 view .LVU1273
 4324 00d8 C008     		lsrs	r0, r0, #3
 4325              		.loc 1 1597 16 view .LVU1274
 4326 00da 3033     		adds	r3, r3, #48
 4327              		.loc 1 1599 10 view .LVU1275
 4328 00dc 8DF80520 		strb	r2, [sp, #5]
 4329              		.loc 1 1606 11 view .LVU1276
 4330 00e0 7A22     		movs	r2, #122
ARM GAS  C:\msys64\tmp\ccb7DTfv.s 			page 77


 4331              		.loc 1 1601 22 view .LVU1277
 4332 00e2 AEFB046E 		umull	r6, lr, lr, r4
 4333              		.loc 1 1603 22 view .LVU1278
 4334 00e6 0CEB8C0C 		add	ip, ip, ip, lsl #2
 4335              		.loc 1 1597 10 view .LVU1279
 4336 00ea 8DF80330 		strb	r3, [sp, #3]
 4337              		.loc 1 1606 11 view .LVU1280
 4338 00ee ADF80C20 		strh	r2, [sp, #12]	@ movhi
 4339              		.loc 1 1602 16 view .LVU1281
 4340 00f2 01F13003 		add	r3, r1, #48
 4341              		.loc 1 1595 23 view .LVU1282
 4342 00f6 00EB8002 		add	r2, r0, r0, lsl #2
 4343              		.loc 1 1603 22 view .LVU1283
 4344 00fa A4EB4C04 		sub	r4, r4, ip, lsl #1
 4345              	.LVL350:
 4346              		.loc 1 1602 10 view .LVU1284
 4347 00fe 8DF80830 		strb	r3, [sp, #8]
 4348              		.loc 1 1595 23 view .LVU1285
 4349 0102 A5EB4205 		sub	r5, r5, r2, lsl #1
 4350              	.LVL351:
 4351              		.loc 1 1604 11 view .LVU1286
 4352 0106 44F62003 		movw	r3, #18464
 4353              		.loc 1 1596 10 view .LVU1287
 4354 010a 2E22     		movs	r2, #46
 4355              		.loc 1 1594 16 view .LVU1288
 4356 010c 3030     		adds	r0, r0, #48
 4357              		.loc 1 1601 22 view .LVU1289
 4358 010e 4FEA5E1E 		lsr	lr, lr, #5
 4359              		.loc 1 1601 16 view .LVU1290
 4360 0112 0EF1300E 		add	lr, lr, #48
 4361              		.loc 1 1604 11 view .LVU1291
 4362 0116 ADF80A30 		strh	r3, [sp, #10]	@ movhi
 4363              		.loc 1 1594 10 view .LVU1292
 4364 011a 8DF80000 		strb	r0, [sp]
 4365              		.loc 1 1595 3 is_stmt 1 view .LVU1293
 4366              		.loc 1 1609 3 is_stmt 0 view .LVU1294
 4367 011e 0323     		movs	r3, #3
 4368              		.loc 1 1596 10 view .LVU1295
 4369 0120 8DF80220 		strb	r2, [sp, #2]
 4370              		.loc 1 1600 10 view .LVU1296
 4371 0124 8DF80620 		strb	r2, [sp, #6]
 4372              		.loc 1 1598 16 view .LVU1297
 4373 0128 3037     		adds	r7, r7, #48
 4374              		.loc 1 1603 16 view .LVU1298
 4375 012a 3034     		adds	r4, r4, #48
 4376              		.loc 1 1595 16 view .LVU1299
 4377 012c 3035     		adds	r5, r5, #48
 4378              		.loc 1 1609 3 view .LVU1300
 4379 012e 2322     		movs	r2, #35
 4380 0130 C821     		movs	r1, #200
 4381 0132 6846     		mov	r0, sp
 4382              		.loc 1 1598 10 view .LVU1301
 4383 0134 8DF80470 		strb	r7, [sp, #4]
 4384              		.loc 1 1601 10 view .LVU1302
 4385 0138 8DF807E0 		strb	lr, [sp, #7]
 4386              		.loc 1 1603 10 view .LVU1303
 4387 013c 8DF80940 		strb	r4, [sp, #9]
ARM GAS  C:\msys64\tmp\ccb7DTfv.s 			page 78


 4388              		.loc 1 1595 10 view .LVU1304
 4389 0140 8DF80150 		strb	r5, [sp, #1]
 4390              		.loc 1 1596 3 is_stmt 1 view .LVU1305
 4391              		.loc 1 1597 3 view .LVU1306
 4392              		.loc 1 1598 3 view .LVU1307
 4393              		.loc 1 1599 3 view .LVU1308
 4394              		.loc 1 1600 3 view .LVU1309
 4395              		.loc 1 1601 3 view .LVU1310
 4396              		.loc 1 1602 3 view .LVU1311
 4397              		.loc 1 1603 3 view .LVU1312
 4398              		.loc 1 1604 3 view .LVU1313
 4399              		.loc 1 1605 3 view .LVU1314
 4400              		.loc 1 1606 3 view .LVU1315
 4401              		.loc 1 1607 3 view .LVU1316
 4402              		.loc 1 1609 3 view .LVU1317
 4403 0144 FFF7FEFF 		bl	lcd_drawstring_size
 4404              	.LVL352:
 4405              		.loc 1 1611 3 view .LVU1318
 4406              	.LBB249:
 4407              	.LBI249:
 4408              		.loc 1 1483 13 view .LVU1319
 4409              	.LBB250:
 4410              		.loc 1 1485 3 view .LVU1320
 4411              		.loc 1 1487 3 view .LVU1321
 4412              		.loc 1 1488 3 view .LVU1322
 4413              		.loc 1 1490 3 view .LVU1323
 4414              		.loc 1 1491 3 view .LVU1324
 4415              		.loc 1 1492 3 view .LVU1325
 4416              		.loc 1 1494 3 view .LVU1326
 4417              		.loc 1 1495 3 view .LVU1327
 4418              		.loc 1 1498 3 view .LVU1328
 4419              		.loc 1 1499 3 view .LVU1329
 4420              		.loc 1 1500 3 view .LVU1330
 4421              		.loc 1 1501 3 view .LVU1331
 4422              		.loc 1 1503 3 view .LVU1332
 4423              		.loc 1 1505 3 view .LVU1333
 4424              		.loc 1 1505 13 view .LVU1334
 4425              		.loc 1 1505 10 is_stmt 0 view .LVU1335
 4426 0148 9DF80030 		ldrb	r3, [sp]	@ zero_extendqisi2
 4427              		.loc 1 1505 13 view .LVU1336
 4428 014c 002B     		cmp	r3, #0
 4429 014e 43D0     		beq	.L393
 4430              	.LBB251:
 4431              	.LBB252:
 4432              	.LBB253:
 4433              		.loc 1 1524 13 view .LVU1337
 4434 0150 DFF8B480 		ldr	r8, .L414+32
 4435              	.LBE253:
 4436              	.LBE252:
 4437              	.LBE251:
 4438              		.loc 1 1505 13 view .LVU1338
 4439 0154 6D46     		mov	r5, sp
 4440              		.loc 1 1503 7 view .LVU1339
 4441 0156 C826     		movs	r6, #200
 4442              	.LBB263:
 4443              	.LBB257:
 4444              	.LBB254:
ARM GAS  C:\msys64\tmp\ccb7DTfv.s 			page 79


 4445              		.loc 1 1525 9 view .LVU1340
 4446 0158 0227     		movs	r7, #2
 4447 015a 07E0     		b	.L398
 4448              	.LVL353:
 4449              	.L400:
 4450              		.loc 1 1525 9 view .LVU1341
 4451              	.LBE254:
 4452              	.LBE257:
 4453              	.LBE263:
 4454              		.loc 1 1538 5 is_stmt 1 view .LVU1342
 4455              		.loc 1 1538 8 is_stmt 0 view .LVU1343
 4456 015c 2B78     		ldrb	r3, [r5]	@ zero_extendqisi2
 4457 015e 2E2B     		cmp	r3, #46
 4458              		.loc 1 1539 7 is_stmt 1 view .LVU1344
 4459              		.loc 1 1505 10 is_stmt 0 view .LVU1345
 4460 0160 15F8013F 		ldrb	r3, [r5, #1]!	@ zero_extendqisi2
 4461              	.LVL354:
 4462              		.loc 1 1539 9 view .LVU1346
 4463 0164 0CBF     		ite	eq
 4464 0166 0A36     		addeq	r6, r6, #10
 4465              	.LVL355:
 4466              		.loc 1 1541 7 is_stmt 1 view .LVU1347
 4467              		.loc 1 1541 9 is_stmt 0 view .LVU1348
 4468 0168 1536     		addne	r6, r6, #21
 4469              	.LVL356:
 4470              		.loc 1 1543 5 is_stmt 1 view .LVU1349
 4471              		.loc 1 1505 13 view .LVU1350
 4472 016a ABB3     		cbz	r3, .L393
 4473              	.LVL357:
 4474              	.L398:
 4475              		.loc 1 1505 13 is_stmt 0 discriminator 1 view .LVU1351
 4476 016c 202B     		cmp	r3, #32
 4477 016e 33D0     		beq	.L393
 4478              		.loc 1 1507 5 is_stmt 1 view .LVU1352
 4479              		.loc 1 1507 8 is_stmt 0 view .LVU1353
 4480 0170 303B     		subs	r3, r3, #48
 4481 0172 092B     		cmp	r3, #9
 4482 0174 F2D8     		bhi	.L400
 4483              	.LBB264:
 4484              		.loc 1 1509 7 is_stmt 1 view .LVU1354
 4485              		.loc 1 1517 7 view .LVU1355
 4486 0176 0521     		movs	r1, #5
 4487 0178 0846     		mov	r0, r1
 4488 017a FFF7FEFF 		bl	lcd_set_colors
 4489              	.LVL358:
 4490              		.loc 1 1518 7 view .LVU1356
 4491              		.loc 1 1518 11 is_stmt 0 view .LVU1357
 4492 017e 06F10A09 		add	r9, r6, #10
 4493              	.LVL359:
 4494              		.loc 1 1522 7 is_stmt 1 view .LVU1358
 4495              	.LBB258:
 4496              		.loc 1 1522 12 view .LVU1359
 4497              		.loc 1 1522 25 discriminator 1 view .LVU1360
 4498              	.LBE258:
 4499              		.loc 1 1518 11 is_stmt 0 view .LVU1361
 4500 0182 4FF00D0B 		mov	fp, #13
 4501 0186 0024     		movs	r4, #0
ARM GAS  C:\msys64\tmp\ccb7DTfv.s 			page 80


 4502              	.LBB259:
 4503              	.LBB255:
 4504              		.loc 1 1525 9 view .LVU1362
 4505 0188 4FF0010A 		mov	r10, #1
 4506              	.LVL360:
 4507              	.L401:
 4508              		.loc 1 1524 9 is_stmt 1 view .LVU1363
 4509              		.loc 1 1524 13 is_stmt 0 view .LVU1364
 4510 018c A8FB0430 		umull	r3, r0, r8, r4
 4511 0190 C008     		lsrs	r0, r0, #3
 4512              	.LVL361:
 4513              		.loc 1 1525 9 is_stmt 1 view .LVU1365
 4514 0192 10FB07A2 		smlabb	r2, r0, r7, r10
 4515 0196 5946     		mov	r1, fp
 4516 0198 0123     		movs	r3, #1
 4517 019a A9EB0000 		sub	r0, r9, r0
 4518              	.LVL362:
 4519              		.loc 1 1525 9 is_stmt 0 view .LVU1366
 4520              	.LBE255:
 4521              		.loc 1 1522 25 discriminator 1 view .LVU1367
 4522 019e 0A34     		adds	r4, r4, #10
 4523              	.LVL363:
 4524              	.LBB256:
 4525              		.loc 1 1525 9 view .LVU1368
 4526 01a0 FFF7FEFF 		bl	lcd_fill
 4527              	.LVL364:
 4528              	.LBE256:
 4529              		.loc 1 1522 34 is_stmt 1 discriminator 3 view .LVU1369
 4530              		.loc 1 1522 25 discriminator 1 view .LVU1370
 4531 01a4 3C2C     		cmp	r4, #60
 4532 01a6 0BF1010B 		add	fp, fp, #1
 4533              	.LVL365:
 4534              		.loc 1 1522 25 is_stmt 0 discriminator 1 view .LVU1371
 4535 01aa EFD1     		bne	.L401
 4536 01ac 4FF05A0B 		mov	fp, #90
 4537              	.LVL366:
 4538              		.loc 1 1522 25 discriminator 1 view .LVU1372
 4539 01b0 0024     		movs	r4, #0
 4540              	.LVL367:
 4541              		.loc 1 1522 25 discriminator 1 view .LVU1373
 4542              	.LBE259:
 4543              	.LBB260:
 4544              	.LBB261:
 4545              		.loc 1 1533 9 view .LVU1374
 4546 01b2 4FF0010A 		mov	r10, #1
 4547              	.L402:
 4548              	.LVL368:
 4549              		.loc 1 1532 9 is_stmt 1 view .LVU1375
 4550              		.loc 1 1532 13 is_stmt 0 view .LVU1376
 4551 01b6 A8FB0430 		umull	r3, r0, r8, r4
 4552 01ba C008     		lsrs	r0, r0, #3
 4553              	.LVL369:
 4554              		.loc 1 1533 9 is_stmt 1 view .LVU1377
 4555 01bc 10FB07A2 		smlabb	r2, r0, r7, r10
 4556 01c0 5946     		mov	r1, fp
 4557 01c2 0123     		movs	r3, #1
 4558 01c4 A9EB0000 		sub	r0, r9, r0
ARM GAS  C:\msys64\tmp\ccb7DTfv.s 			page 81


 4559              	.LVL370:
 4560              		.loc 1 1533 9 is_stmt 0 view .LVU1378
 4561              	.LBE261:
 4562              		.loc 1 1530 25 discriminator 1 view .LVU1379
 4563 01c8 0A34     		adds	r4, r4, #10
 4564              	.LVL371:
 4565              	.LBB262:
 4566              		.loc 1 1533 9 view .LVU1380
 4567 01ca FFF7FEFF 		bl	lcd_fill
 4568              	.LVL372:
 4569              	.LBE262:
 4570              		.loc 1 1530 34 is_stmt 1 discriminator 3 view .LVU1381
 4571              		.loc 1 1530 25 discriminator 1 view .LVU1382
 4572 01ce 3C2C     		cmp	r4, #60
 4573 01d0 0BF1FF3B 		add	fp, fp, #-1
 4574              	.LVL373:
 4575              		.loc 1 1530 25 is_stmt 0 discriminator 1 view .LVU1383
 4576 01d4 EFD1     		bne	.L402
 4577 01d6 C1E7     		b	.L400
 4578              	.LVL374:
 4579              	.L393:
 4580              		.loc 1 1530 25 discriminator 1 view .LVU1384
 4581              	.LBE260:
 4582              	.LBE264:
 4583              	.LBE250:
 4584              	.LBE249:
 4585              		.loc 1 1612 1 view .LVU1385
 4586 01d8 05B0     		add	sp, sp, #20
 4587              		.cfi_remember_state
 4588              		.cfi_def_cfa_offset 36
 4589              		@ sp needed
 4590 01da BDE8F08F 		pop	{r4, r5, r6, r7, r8, r9, r10, fp, pc}
 4591              	.LVL375:
 4592              	.L394:
 4593              		.cfi_restore_state
 4594              		.loc 1 1558 3 is_stmt 1 view .LVU1386
 4595              		.loc 1 1561 3 view .LVU1387
 4596              		.loc 1 1561 6 is_stmt 0 view .LVU1388
 4597 01de 2B68     		ldr	r3, [r5]
 4598 01e0 002B     		cmp	r3, #0
 4599 01e2 7FF433AF 		bne	.L396
 4600 01e6 17E7     		b	.L395
 4601              	.L415:
 4602              		.align	2
 4603              	.L414:
 4604 01e8 00000000 		.word	doOnceOnly_In_Mode2
 4605 01ec 00000000 		.word	label_drawn.19
 4606 01f0 00000000 		.word	.LANCHOR0
 4607 01f4 00000000 		.word	last_freq.18
 4608 01f8 D34D6210 		.word	274877907
 4609 01fc 83DE1B43 		.word	1125899907
 4610 0200 CDCCCCCC 		.word	-858993459
 4611 0204 1F85EB51 		.word	1374389535
 4612 0208 ABAAAAAA 		.word	-1431655765
 4613              		.cfi_endproc
 4614              	.LFE260:
 4615              		.size	displayTargetFrequency, .-displayTargetFrequency
ARM GAS  C:\msys64\tmp\ccb7DTfv.s 			page 82


 4616              		.section	.text.pause_sweep,"ax",%progbits
 4617              		.align	1
 4618              		.p2align 4,,15
 4619              		.global	pause_sweep
 4620              		.syntax unified
 4621              		.thumb
 4622              		.thumb_func
 4623              		.type	pause_sweep, %function
 4624              	pause_sweep:
 4625              	.LFB263:
 4626              		.loc 1 2524 1 is_stmt 1 view -0
 4627              		.cfi_startproc
 4628              		@ args = 0, pretend = 0, frame = 0
 4629              		@ frame_needed = 0, uses_anonymous_args = 0
 4630              		@ link register save eliminated.
 4631              		.loc 1 2525 3 view .LVU1390
 4632              		.loc 1 2525 14 is_stmt 0 view .LVU1391
 4633 0000 024A     		ldr	r2, .L417
 4634 0002 1378     		ldrb	r3, [r2]	@ zero_extendqisi2
 4635 0004 23F00103 		bic	r3, r3, #1
 4636 0008 1370     		strb	r3, [r2]
 4637              		.loc 1 2526 1 view .LVU1392
 4638 000a 7047     		bx	lr
 4639              	.L418:
 4640              		.align	2
 4641              	.L417:
 4642 000c 00000000 		.word	sweep_mode
 4643              		.cfi_endproc
 4644              	.LFE263:
 4645              		.size	pause_sweep, .-pause_sweep
 4646              		.section	.text.cmd_pause,"ax",%progbits
 4647              		.align	1
 4648              		.p2align 4,,15
 4649              		.syntax unified
 4650              		.thumb
 4651              		.thumb_func
 4652              		.type	cmd_pause, %function
 4653              	cmd_pause:
 4654              	.LVL376:
 4655              	.LFB273:
 4656              		.loc 1 2773 1 is_stmt 1 view -0
 4657              		.cfi_startproc
 4658              		@ args = 0, pretend = 0, frame = 0
 4659              		@ frame_needed = 0, uses_anonymous_args = 0
 4660              		@ link register save eliminated.
 4661              		.loc 1 2774 3 view .LVU1394
 4662              		.loc 1 2775 3 view .LVU1395
 4663              		.loc 1 2776 3 view .LVU1396
 4664 0000 FFF7FEBF 		b	pause_sweep
 4665              	.LVL377:
 4666              		.cfi_endproc
 4667              	.LFE273:
 4668              		.size	cmd_pause, .-cmd_pause
 4669              		.section	.text.cmd_freq,"ax",%progbits
 4670              		.align	1
 4671              		.p2align 4,,15
 4672              		.syntax unified
ARM GAS  C:\msys64\tmp\ccb7DTfv.s 			page 83


 4673              		.thumb
 4674              		.thumb_func
 4675              		.type	cmd_freq, %function
 4676              	cmd_freq:
 4677              	.LVL378:
 4678              	.LFB280:
 4679              		.loc 1 2903 1 view -0
 4680              		.cfi_startproc
 4681              		@ args = 0, pretend = 0, frame = 0
 4682              		@ frame_needed = 0, uses_anonymous_args = 0
 4683              		.loc 1 2904 3 view .LVU1398
 4684              		.loc 1 2904 6 is_stmt 0 view .LVU1399
 4685 0000 0128     		cmp	r0, #1
 4686 0002 00D0     		beq	.L425
 4687 0004 7047     		bx	lr
 4688              	.L425:
 4689              		.loc 1 2909 3 is_stmt 1 view .LVU1400
 4690              		.loc 1 2903 1 is_stmt 0 view .LVU1401
 4691 0006 08B5     		push	{r3, lr}
 4692              		.cfi_def_cfa_offset 8
 4693              		.cfi_offset 3, -8
 4694              		.cfi_offset 14, -4
 4695              		.loc 1 2909 19 view .LVU1402
 4696 0008 0868     		ldr	r0, [r1]
 4697              	.LVL379:
 4698              		.loc 1 2909 19 view .LVU1403
 4699 000a FFF7FEFF 		bl	my_atoui
 4700              	.LVL380:
 4701              		.loc 1 2910 3 is_stmt 1 view .LVU1404
 4702 000e FFF7FEFF 		bl	pause_sweep
 4703              	.LVL381:
 4704              		.loc 1 2911 3 view .LVU1405
 4705              	.LBB267:
 4706              	.LBI267:
 4707              		.loc 1 3633 12 view .LVU1406
 4708              	.LBB268:
 4709              		.loc 1 3635 3 view .LVU1407
 4710              		.loc 1 3635 10 is_stmt 0 view .LVU1408
 4711 0012 034B     		ldr	r3, .L426
 4712 0014 D97F     		ldrb	r1, [r3, #31]	@ zero_extendqisi2
 4713              	.LBE268:
 4714              	.LBE267:
 4715              		.loc 1 2913 1 view .LVU1409
 4716 0016 BDE80840 		pop	{r3, lr}
 4717              		.cfi_restore 14
 4718              		.cfi_restore 3
 4719              		.cfi_def_cfa_offset 0
 4720              	.LBB270:
 4721              	.LBB269:
 4722              		.loc 1 3635 10 view .LVU1410
 4723 001a FFF7FEBF 		b	si5351_set_frequency
 4724              	.LVL382:
 4725              	.L427:
 4726              		.loc 1 3635 10 view .LVU1411
 4727 001e 00BF     		.align	2
 4728              	.L426:
 4729 0020 00000000 		.word	current_props
ARM GAS  C:\msys64\tmp\ccb7DTfv.s 			page 84


 4730              	.LBE269:
 4731              	.LBE270:
 4732              		.cfi_endproc
 4733              	.LFE280:
 4734              		.size	cmd_freq, .-cmd_freq
 4735              		.section	.text.toggle_sweep,"ax",%progbits
 4736              		.align	1
 4737              		.p2align 4,,15
 4738              		.global	toggle_sweep
 4739              		.syntax unified
 4740              		.thumb
 4741              		.thumb_func
 4742              		.type	toggle_sweep, %function
 4743              	toggle_sweep:
 4744              	.LFB265:
 4745              		.loc 1 2535 1 is_stmt 1 view -0
 4746              		.cfi_startproc
 4747              		@ args = 0, pretend = 0, frame = 0
 4748              		@ frame_needed = 0, uses_anonymous_args = 0
 4749              		@ link register save eliminated.
 4750              		.loc 1 2536 3 view .LVU1413
 4751              		.loc 1 2536 14 is_stmt 0 view .LVU1414
 4752 0000 024A     		ldr	r2, .L429
 4753 0002 1378     		ldrb	r3, [r2]	@ zero_extendqisi2
 4754 0004 83F00103 		eor	r3, r3, #1
 4755 0008 1370     		strb	r3, [r2]
 4756              		.loc 1 2537 1 view .LVU1415
 4757 000a 7047     		bx	lr
 4758              	.L430:
 4759              		.align	2
 4760              	.L429:
 4761 000c 00000000 		.word	sweep_mode
 4762              		.cfi_endproc
 4763              	.LFE265:
 4764              		.size	toggle_sweep, .-toggle_sweep
 4765              		.section	.text.bessel_I0_ext,"ax",%progbits
 4766              		.align	1
 4767              		.p2align 4,,15
 4768              		.global	bessel_I0_ext
 4769              		.syntax unified
 4770              		.thumb
 4771              		.thumb_func
 4772              		.type	bessel_I0_ext, %function
 4773              	bessel_I0_ext:
 4774              	.LVL383:
 4775              	.LFB266:
 4776              		.loc 1 2551 1 is_stmt 1 view -0
 4777              		.cfi_startproc
 4778              		@ args = 0, pretend = 0, frame = 0
 4779              		@ frame_needed = 0, uses_anonymous_args = 0
 4780              		@ link register save eliminated.
 4781              		.loc 1 2557 3 view .LVU1417
 4782              		.loc 1 2559 3 view .LVU1418
 4783              		.loc 1 2578 3 view .LVU1419
 4784 0000 094B     		ldr	r3, .L434
 4785              		.loc 1 2551 1 is_stmt 0 view .LVU1420
 4786 0002 F0EE406A 		vmov.f32	s13, s0
ARM GAS  C:\msys64\tmp\ccb7DTfv.s 			page 85


 4787              	.LVL384:
 4788              		.loc 1 2578 19 view .LVU1421
 4789 0006 F7EE007A 		vmov.f32	s15, #1.0e+0
 4790 000a 30EE270A 		vadd.f32	s0, s0, s15
 4791              	.LVL385:
 4792              		.loc 1 2578 19 view .LVU1422
 4793 000e 03F12C02 		add	r2, r3, #44
 4794              		.loc 1 2578 9 view .LVU1423
 4795 0012 F0EE667A 		vmov.f32	s15, s13
 4796              	.LVL386:
 4797              	.L432:
 4798              		.loc 1 2579 3 is_stmt 1 view .LVU1424
 4799              		.loc 1 2581 5 view .LVU1425
 4800              		.loc 1 2581 36 is_stmt 0 view .LVU1426
 4801 0016 B3EC017A 		vldmia.32	r3!, {s14}
 4802              		.loc 1 2581 18 view .LVU1427
 4803 001a 67EEA67A 		vmul.f32	s15, s15, s13
 4804              	.LVL387:
 4805              		.loc 1 2582 12 discriminator 1 view .LVU1428
 4806 001e 9342     		cmp	r3, r2
 4807              		.loc 1 2581 9 view .LVU1429
 4808 0020 A7EE270A 		vfma.f32	s0, s14, s15
 4809              	.LVL388:
 4810              		.loc 1 2582 12 is_stmt 1 discriminator 1 view .LVU1430
 4811 0024 F7D1     		bne	.L432
 4812              		.loc 1 2583 3 view .LVU1431
 4813              		.loc 1 2584 1 is_stmt 0 view .LVU1432
 4814 0026 7047     		bx	lr
 4815              	.L435:
 4816              		.align	2
 4817              	.L434:
 4818 0028 00000000 		.word	besseli0_k.17
 4819              		.cfi_endproc
 4820              	.LFE266:
 4821              		.size	bessel_I0_ext, .-bessel_I0_ext
 4822              		.section	.text.shell_printf,"ax",%progbits
 4823              		.align	1
 4824              		.p2align 4,,15
 4825              		.global	shell_printf
 4826              		.syntax unified
 4827              		.thumb
 4828              		.thumb_func
 4829              		.type	shell_printf, %function
 4830              	shell_printf:
 4831              	.LVL389:
 4832              	.LFB269:
 4833              		.loc 1 2736 1 is_stmt 1 view -0
 4834              		.cfi_startproc
 4835              		@ args = 4, pretend = 16, frame = 0
 4836              		@ frame_needed = 0, uses_anonymous_args = 1
 4837              		@ link register save eliminated.
 4838              		.loc 1 2738 3 view .LVU1434
 4839              		.loc 1 2736 1 is_stmt 0 view .LVU1435
 4840 0000 0FB4     		push	{r0, r1, r2, r3}
 4841              		.cfi_def_cfa_offset 16
 4842              		.cfi_offset 0, -16
 4843              		.cfi_offset 1, -12
ARM GAS  C:\msys64\tmp\ccb7DTfv.s 			page 86


 4844              		.cfi_offset 2, -8
 4845              		.cfi_offset 3, -4
 4846              		.loc 1 2748 1 view .LVU1436
 4847 0002 0020     		movs	r0, #0
 4848 0004 04B0     		add	sp, sp, #16
 4849              		.cfi_restore 3
 4850              		.cfi_restore 2
 4851              		.cfi_restore 1
 4852              		.cfi_restore 0
 4853              		.cfi_def_cfa_offset 0
 4854 0006 7047     		bx	lr
 4855              		.cfi_endproc
 4856              	.LFE269:
 4857              		.size	shell_printf, .-shell_printf
 4858              		.section	.text.set_power,"ax",%progbits
 4859              		.align	1
 4860              		.p2align 4,,15
 4861              		.global	set_power
 4862              		.syntax unified
 4863              		.thumb
 4864              		.thumb_func
 4865              		.type	set_power, %function
 4866              	set_power:
 4867              	.LVL390:
 4868              	.LFB281:
 4869              		.loc 1 2916 1 is_stmt 1 view -0
 4870              		.cfi_startproc
 4871              		@ args = 0, pretend = 0, frame = 0
 4872              		@ frame_needed = 0, uses_anonymous_args = 0
 4873              		.loc 1 2917 3 view .LVU1438
 4874              		.loc 1 2916 1 is_stmt 0 view .LVU1439
 4875 0000 10B5     		push	{r4, lr}
 4876              		.cfi_def_cfa_offset 8
 4877              		.cfi_offset 4, -8
 4878              		.cfi_offset 14, -4
 4879              		.loc 1 2916 1 view .LVU1440
 4880 0002 0446     		mov	r4, r0
 4881              		.loc 1 2917 3 view .LVU1441
 4882 0004 1020     		movs	r0, #16
 4883              	.LVL391:
 4884              		.loc 1 2917 3 view .LVU1442
 4885 0006 FFF7FEFF 		bl	request_to_redraw
 4886              	.LVL392:
 4887              		.loc 1 2918 3 is_stmt 1 view .LVU1443
 4888              		.loc 1 2920 20 is_stmt 0 view .LVU1444
 4889 000a 094B     		ldr	r3, .L446
 4890              		.loc 1 2919 11 view .LVU1445
 4891 000c 042C     		cmp	r4, #4
 4892              		.loc 1 2920 6 view .LVU1446
 4893 000e DA7F     		ldrb	r2, [r3, #31]	@ zero_extendqisi2
 4894              		.loc 1 2919 11 view .LVU1447
 4895 0010 28BF     		it	cs
 4896 0012 FF24     		movcs	r4, #255
 4897              	.LVL393:
 4898              		.loc 1 2920 3 is_stmt 1 view .LVU1448
 4899              		.loc 1 2920 6 is_stmt 0 view .LVU1449
 4900 0014 A242     		cmp	r2, r4
ARM GAS  C:\msys64\tmp\ccb7DTfv.s 			page 87


 4901 0016 04D0     		beq	.L438
 4902              		.loc 1 2922 3 is_stmt 1 view .LVU1450
 4903              		.loc 1 2924 20 is_stmt 0 view .LVU1451
 4904 0018 064A     		ldr	r2, .L446+4
 4905              		.loc 1 2922 24 view .LVU1452
 4906 001a DC77     		strb	r4, [r3, #31]
 4907              		.loc 1 2924 3 is_stmt 1 view .LVU1453
 4908              		.loc 1 2924 6 is_stmt 0 view .LVU1454
 4909 001c 1378     		ldrb	r3, [r2]	@ zero_extendqisi2
 4910 001e DB07     		lsls	r3, r3, #31
 4911 0020 00D5     		bpl	.L445
 4912              	.L438:
 4913              		.loc 1 2926 1 view .LVU1455
 4914 0022 10BD     		pop	{r4, pc}
 4915              	.LVL394:
 4916              	.L445:
 4917              		.loc 1 2925 5 is_stmt 1 view .LVU1456
 4918 0024 2046     		mov	r0, r4
 4919              		.loc 1 2926 1 is_stmt 0 view .LVU1457
 4920 0026 BDE81040 		pop	{r4, lr}
 4921              		.cfi_restore 14
 4922              		.cfi_restore 4
 4923              		.cfi_def_cfa_offset 0
 4924              	.LVL395:
 4925              		.loc 1 2925 5 view .LVU1458
 4926 002a FFF7FEBF 		b	si5351_set_power
 4927              	.LVL396:
 4928              	.L447:
 4929              		.loc 1 2925 5 view .LVU1459
 4930 002e 00BF     		.align	2
 4931              	.L446:
 4932 0030 00000000 		.word	current_props
 4933 0034 00000000 		.word	sweep_mode
 4934              		.cfi_endproc
 4935              	.LFE281:
 4936              		.size	set_power, .-set_power
 4937              		.section	.text.cmd_power,"ax",%progbits
 4938              		.align	1
 4939              		.p2align 4,,15
 4940              		.syntax unified
 4941              		.thumb
 4942              		.thumb_func
 4943              		.type	cmd_power, %function
 4944              	cmd_power:
 4945              	.LVL397:
 4946              	.LFB282:
 4947              		.loc 1 2929 1 is_stmt 1 view -0
 4948              		.cfi_startproc
 4949              		@ args = 0, pretend = 0, frame = 0
 4950              		@ frame_needed = 0, uses_anonymous_args = 0
 4951              		.loc 1 2930 3 view .LVU1461
 4952              		.loc 1 2930 6 is_stmt 0 view .LVU1462
 4953 0000 0128     		cmp	r0, #1
 4954 0002 00D0     		beq	.L453
 4955 0004 7047     		bx	lr
 4956              	.L453:
 4957              		.loc 1 2937 3 is_stmt 1 view .LVU1463
ARM GAS  C:\msys64\tmp\ccb7DTfv.s 			page 88


 4958              		.loc 1 2929 1 is_stmt 0 view .LVU1464
 4959 0006 08B5     		push	{r3, lr}
 4960              		.cfi_def_cfa_offset 8
 4961              		.cfi_offset 3, -8
 4962              		.cfi_offset 14, -4
 4963              		.loc 1 2937 13 view .LVU1465
 4964 0008 0868     		ldr	r0, [r1]
 4965              	.LVL398:
 4966              		.loc 1 2937 13 view .LVU1466
 4967 000a FFF7FEFF 		bl	my_atoi
 4968              	.LVL399:
 4969              		.loc 1 2938 1 view .LVU1467
 4970 000e BDE80840 		pop	{r3, lr}
 4971              		.cfi_restore 14
 4972              		.cfi_restore 3
 4973              		.cfi_def_cfa_offset 0
 4974              		.loc 1 2937 3 discriminator 1 view .LVU1468
 4975 0012 C0B2     		uxtb	r0, r0
 4976 0014 FFF7FEBF 		b	set_power
 4977              	.LVL400:
 4978              		.cfi_endproc
 4979              	.LFE282:
 4980              		.size	cmd_power, .-cmd_power
 4981              		.section	.text.capture_rle8,"ax",%progbits
 4982              		.align	1
 4983              		.p2align 4,,15
 4984              		.global	capture_rle8
 4985              		.syntax unified
 4986              		.thumb
 4987              		.thumb_func
 4988              		.type	capture_rle8, %function
 4989              	capture_rle8:
 4990              	.LFB288:
 4991              		.loc 1 3056 1 is_stmt 1 view -0
 4992              		.cfi_startproc
 4993              		@ args = 0, pretend = 0, frame = 8
 4994              		@ frame_needed = 0, uses_anonymous_args = 0
 4995              		.loc 1 3057 3 view .LVU1470
 4996              		.loc 1 3067 3 view .LVU1471
 4997              		.loc 1 3056 1 is_stmt 0 view .LVU1472
 4998 0000 2DE9F043 		push	{r4, r5, r6, r7, r8, r9, lr}
 4999              		.cfi_def_cfa_offset 28
 5000              		.cfi_offset 4, -28
 5001              		.cfi_offset 5, -24
 5002              		.cfi_offset 6, -20
 5003              		.cfi_offset 7, -16
 5004              		.cfi_offset 8, -12
 5005              		.cfi_offset 9, -8
 5006              		.cfi_offset 14, -4
 5007 0004 85B0     		sub	sp, sp, #20
 5008              		.cfi_def_cfa_offset 48
 5009              		.loc 1 3067 12 view .LVU1473
 5010 0006 4023     		movs	r3, #64
 5011              		.loc 1 3068 3 view .LVU1474
 5012 0008 2B48     		ldr	r0, .L470
 5013              		.loc 1 3067 12 view .LVU1475
 5014 000a ADF80E30 		strh	r3, [sp, #14]	@ movhi
ARM GAS  C:\msys64\tmp\ccb7DTfv.s 			page 89


 5015              		.loc 1 3068 3 is_stmt 1 view .LVU1476
 5016 000e 0821     		movs	r1, #8
 5017 0010 FFF7FEFF 		bl	shell_write
 5018              	.LVL401:
 5019              		.loc 1 3069 3 view .LVU1477
 5020 0014 0221     		movs	r1, #2
 5021 0016 0DF10E00 		add	r0, sp, #14
 5022 001a FFF7FEFF 		bl	shell_write
 5023              	.LVL402:
 5024              		.loc 1 3070 3 view .LVU1478
 5025 001e 2748     		ldr	r0, .L470+4
 5026 0020 BDF80E10 		ldrh	r1, [sp, #14]
 5027 0024 DFF8A480 		ldr	r8, .L470+20
 5028 0028 254E     		ldr	r6, .L470+8
 5029 002a FFF7FEFF 		bl	shell_write
 5030              	.LVL403:
 5031              		.loc 1 3071 3 view .LVU1479
 5032              		.loc 1 3072 3 view .LVU1480
 5033              	.LBB271:
 5034              		.loc 1 3072 8 view .LVU1481
 5035              		.loc 1 3072 30 discriminator 1 view .LVU1482
 5036              		.loc 1 3072 19 is_stmt 0 view .LVU1483
 5037 002e 0024     		movs	r4, #0
 5038              		.loc 1 3072 12 view .LVU1484
 5039 0030 2746     		mov	r7, r4
 5040 0032 08F2BE35 		addw	r5, r8, #958
 5041 0036 A8F14009 		sub	r9, r8, #64
 5042              	.LVL404:
 5043              	.L461:
 5044              		.loc 1 3074 5 is_stmt 1 view .LVU1485
 5045 003a 0020     		movs	r0, #0
 5046 003c CDF80080 		str	r8, [sp]
 5047 0040 0123     		movs	r3, #1
 5048 0042 4FF4F072 		mov	r2, #480
 5049 0046 3946     		mov	r1, r7
 5050 0048 FFF7FEFF 		bl	lcd_read_memory
 5051              	.LVL405:
 5052              		.loc 1 3075 5 view .LVU1486
 5053              	.LBB272:
 5054              		.loc 1 3075 10 view .LVU1487
 5055              		.loc 1 3075 23 discriminator 1 view .LVU1488
 5056 004c 1D48     		ldr	r0, .L470+12
 5057 004e 00F1010C 		add	ip, r0, #1
 5058 0052 04E0     		b	.L460
 5059              	.LVL406:
 5060              	.L466:
 5061              		.loc 1 3081 9 view .LVU1489
 5062              		.loc 1 3084 28 is_stmt 0 view .LVU1490
 5063 0054 E3B2     		uxtb	r3, r4
 5064              		.loc 1 3084 7 is_stmt 1 view .LVU1491
 5065              		.loc 1 3075 23 is_stmt 0 discriminator 1 view .LVU1492
 5066 0056 A842     		cmp	r0, r5
 5067              		.loc 1 3084 28 view .LVU1493
 5068 0058 0CF8013F 		strb	r3, [ip, #1]!
 5069              	.LVL407:
 5070              		.loc 1 3075 37 is_stmt 1 discriminator 2 view .LVU1494
 5071              		.loc 1 3075 23 discriminator 1 view .LVU1495
ARM GAS  C:\msys64\tmp\ccb7DTfv.s 			page 90


 5072 005c 15D0     		beq	.L469
 5073              	.LVL408:
 5074              	.L460:
 5075              		.loc 1 3077 7 view .LVU1496
 5076              		.loc 1 3077 30 is_stmt 0 view .LVU1497
 5077 005e 06EB4403 		add	r3, r6, r4, lsl #1
 5078              		.loc 1 3077 43 view .LVU1498
 5079 0062 30F8021F 		ldrh	r1, [r0, #2]!
 5080              		.loc 1 3077 10 view .LVU1499
 5081 0066 DB8B     		ldrh	r3, [r3, #30]
 5082 0068 8B42     		cmp	r3, r1
 5083 006a F3D0     		beq	.L466
 5084              		.loc 1 3077 10 view .LVU1500
 5085 006c 164B     		ldr	r3, .L470+16
 5086              		.loc 1 3079 18 view .LVU1501
 5087 006e 0024     		movs	r4, #0
 5088              	.LVL409:
 5089              	.L456:
 5090              		.loc 1 3079 84 is_stmt 1 discriminator 4 view .LVU1502
 5091              		.loc 1 3079 41 is_stmt 0 discriminator 3 view .LVU1503
 5092 0070 33F8022F 		ldrh	r2, [r3, #2]!
 5093 0074 8A42     		cmp	r2, r1
 5094 0076 EDD0     		beq	.L466
 5095              		.loc 1 3079 84 discriminator 4 view .LVU1504
 5096 0078 0134     		adds	r4, r4, #1
 5097              	.LVL410:
 5098              		.loc 1 3079 41 is_stmt 1 discriminator 1 view .LVU1505
 5099 007a 202C     		cmp	r4, #32
 5100 007c F8D1     		bne	.L456
 5101 007e 0024     		movs	r4, #0
 5102              	.LVL411:
 5103              		.loc 1 3082 15 is_stmt 0 view .LVU1506
 5104 0080 2346     		mov	r3, r4
 5105              	.LVL412:
 5106              		.loc 1 3084 7 is_stmt 1 view .LVU1507
 5107              		.loc 1 3075 23 is_stmt 0 discriminator 1 view .LVU1508
 5108 0082 A842     		cmp	r0, r5
 5109              		.loc 1 3084 28 view .LVU1509
 5110 0084 0CF8013F 		strb	r3, [ip, #1]!
 5111              	.LVL413:
 5112              		.loc 1 3075 37 is_stmt 1 discriminator 2 view .LVU1510
 5113              		.loc 1 3075 23 discriminator 1 view .LVU1511
 5114 0088 E9D1     		bne	.L460
 5115              	.LVL414:
 5116              	.L469:
 5117              		.loc 1 3075 23 is_stmt 0 discriminator 1 view .LVU1512
 5118              	.LBE272:
 5119              		.loc 1 3086 5 is_stmt 1 view .LVU1513
 5120              		.loc 1 3086 21 is_stmt 0 view .LVU1514
 5121 008a 1048     		ldr	r0, .L470+20
 5122 008c 4FF4F072 		mov	r2, #480
 5123 0090 A0F13E01 		sub	r1, r0, #62
 5124 0094 FFF7FEFF 		bl	packbits
 5125              	.LVL415:
 5126              		.loc 1 3087 39 view .LVU1515
 5127 0098 81B2     		uxth	r1, r0
 5128              		.loc 1 3086 21 view .LVU1516
ARM GAS  C:\msys64\tmp\ccb7DTfv.s 			page 91


 5129 009a 0346     		mov	r3, r0
 5130              		.loc 1 3087 5 view .LVU1517
 5131 009c 0231     		adds	r1, r1, #2
 5132 009e 4846     		mov	r0, r9
 5133              		.loc 1 3072 45 discriminator 2 view .LVU1518
 5134 00a0 0137     		adds	r7, r7, #1
 5135              	.LVL416:
 5136              		.loc 1 3086 19 discriminator 1 view .LVU1519
 5137 00a2 A9F80030 		strh	r3, [r9]	@ movhi
 5138              		.loc 1 3087 5 is_stmt 1 view .LVU1520
 5139 00a6 FFF7FEFF 		bl	shell_write
 5140              	.LVL417:
 5141              		.loc 1 3072 45 discriminator 2 view .LVU1521
 5142              		.loc 1 3072 30 discriminator 1 view .LVU1522
 5143 00aa B7F5A07F 		cmp	r7, #320
 5144 00ae C4D1     		bne	.L461
 5145              		.loc 1 3072 30 is_stmt 0 discriminator 1 view .LVU1523
 5146              	.LBE271:
 5147              		.loc 1 3089 1 view .LVU1524
 5148 00b0 05B0     		add	sp, sp, #20
 5149              		.cfi_def_cfa_offset 28
 5150              		@ sp needed
 5151 00b2 BDE8F083 		pop	{r4, r5, r6, r7, r8, r9, pc}
 5152              	.LVL418:
 5153              	.L471:
 5154              		.loc 1 3089 1 view .LVU1525
 5155 00b6 00BF     		.align	2
 5156              	.L470:
 5157 00b8 00000000 		.word	screenshot_header.16
 5158 00bc 1E000000 		.word	config+30
 5159 00c0 00000000 		.word	config
 5160 00c4 3E000000 		.word	spi_buffer+62
 5161 00c8 1C000000 		.word	config+28
 5162 00cc 40000000 		.word	spi_buffer+64
 5163              		.cfi_endproc
 5164              	.LFE288:
 5165              		.size	capture_rle8, .-capture_rle8
 5166              		.section	.text.cmd_capture,"ax",%progbits
 5167              		.align	1
 5168              		.p2align 4,,15
 5169              		.syntax unified
 5170              		.thumb
 5171              		.thumb_func
 5172              		.type	cmd_capture, %function
 5173              	cmd_capture:
 5174              	.LVL419:
 5175              	.LFB289:
 5176              		.loc 1 3093 1 is_stmt 1 view -0
 5177              		.cfi_startproc
 5178              		@ args = 0, pretend = 0, frame = 0
 5179              		@ frame_needed = 0, uses_anonymous_args = 0
 5180              		.loc 1 3094 3 view .LVU1527
 5181              		.loc 1 3095 3 view .LVU1528
 5182              		.loc 1 3097 3 view .LVU1529
 5183              		.loc 1 3097 6 is_stmt 0 view .LVU1530
 5184 0000 0028     		cmp	r0, #0
 5185 0002 16DC     		bgt	.L478
ARM GAS  C:\msys64\tmp\ccb7DTfv.s 			page 92


 5186              		.loc 1 3093 1 view .LVU1531
 5187 0004 30B5     		push	{r4, r5, lr}
 5188              		.cfi_def_cfa_offset 12
 5189              		.cfi_offset 4, -12
 5190              		.cfi_offset 5, -8
 5191              		.cfi_offset 14, -4
 5192 0006 0C4D     		ldr	r5, .L479
 5193 0008 83B0     		sub	sp, sp, #12
 5194              		.cfi_def_cfa_offset 24
 5195              	.LBB273:
 5196              		.loc 1 3109 12 view .LVU1532
 5197 000a 0024     		movs	r4, #0
 5198              	.LVL420:
 5199              	.L473:
 5200              		.loc 1 3112 5 is_stmt 1 view .LVU1533
 5201 000c 2146     		mov	r1, r4
 5202 000e 0223     		movs	r3, #2
 5203 0010 4FF4F072 		mov	r2, #480
 5204 0014 0020     		movs	r0, #0
 5205 0016 0095     		str	r5, [sp]
 5206 0018 FFF7FEFF 		bl	lcd_read_memory
 5207              	.LVL421:
 5208              		.loc 1 3113 5 view .LVU1534
 5209              		.loc 1 3109 37 is_stmt 0 discriminator 3 view .LVU1535
 5210 001c 0234     		adds	r4, r4, #2
 5211              	.LVL422:
 5212              		.loc 1 3113 5 view .LVU1536
 5213 001e 4FF4F061 		mov	r1, #1920
 5214 0022 2846     		mov	r0, r5
 5215 0024 FFF7FEFF 		bl	shell_write
 5216              	.LVL423:
 5217              		.loc 1 3109 37 is_stmt 1 discriminator 3 view .LVU1537
 5218              		.loc 1 3109 21 discriminator 1 view .LVU1538
 5219 0028 B4F5A07F 		cmp	r4, #320
 5220 002c EED1     		bne	.L473
 5221              	.LBE273:
 5222              		.loc 1 3115 1 is_stmt 0 view .LVU1539
 5223 002e 03B0     		add	sp, sp, #12
 5224              		.cfi_def_cfa_offset 12
 5225              		@ sp needed
 5226 0030 30BD     		pop	{r4, r5, pc}
 5227              	.LVL424:
 5228              	.L478:
 5229              		.cfi_def_cfa_offset 0
 5230              		.cfi_restore 4
 5231              		.cfi_restore 5
 5232              		.cfi_restore 14
 5233              		.loc 1 3099 5 is_stmt 1 view .LVU1540
 5234 0032 FFF7FEBF 		b	capture_rle8
 5235              	.LVL425:
 5236              	.L480:
 5237              		.loc 1 3099 5 is_stmt 0 view .LVU1541
 5238 0036 00BF     		.align	2
 5239              	.L479:
 5240 0038 00000000 		.word	spi_buffer
 5241              		.cfi_endproc
 5242              	.LFE289:
ARM GAS  C:\msys64\tmp\ccb7DTfv.s 			page 93


 5243              		.size	cmd_capture, .-cmd_capture
 5244              		.section	.text.i2s_lld_serve_rx_interrupt,"ax",%progbits
 5245              		.align	1
 5246              		.p2align 4,,15
 5247              		.global	i2s_lld_serve_rx_interrupt
 5248              		.syntax unified
 5249              		.thumb
 5250              		.thumb_func
 5251              		.type	i2s_lld_serve_rx_interrupt, %function
 5252              	i2s_lld_serve_rx_interrupt:
 5253              	.LVL426:
 5254              	.LFB294:
 5255              		.loc 1 3369 1 is_stmt 1 view -0
 5256              		.cfi_startproc
 5257              		@ args = 0, pretend = 0, frame = 0
 5258              		@ frame_needed = 0, uses_anonymous_args = 0
 5259              		.loc 1 3371 3 view .LVU1543
 5260              		.loc 1 3369 1 is_stmt 0 view .LVU1544
 5261 0000 70B5     		push	{r4, r5, r6, lr}
 5262              		.cfi_def_cfa_offset 16
 5263              		.cfi_offset 4, -16
 5264              		.cfi_offset 5, -12
 5265              		.cfi_offset 6, -8
 5266              		.cfi_offset 14, -4
 5267              		.loc 1 3371 12 view .LVU1545
 5268 0002 1F4D     		ldr	r5, .L497
 5269 0004 2B88     		ldrh	r3, [r5]
 5270 0006 9BB2     		uxth	r3, r3
 5271              	.LVL427:
 5272              		.loc 1 3372 3 is_stmt 1 view .LVU1546
 5273              		.loc 1 3372 6 is_stmt 0 view .LVU1547
 5274 0008 002B     		cmp	r3, #0
 5275 000a 32D0     		beq	.L481
 5276              	.LBB280:
 5277              	.LBI280:
 5278              		.loc 3 228 25 is_stmt 1 view .LVU1548
 5279              		.loc 3 233 3 view .LVU1549
 5280              	.LBB281:
 5281              	.LBI281:
 5282              		.loc 4 105 25 view .LVU1550
 5283              		.loc 4 107 3 view .LVU1551
 5284              	.LBB282:
 5285              	.LBI282:
 5286              		.loc 5 139 25 view .LVU1552
 5287              	.LBB283:
 5288              		.loc 5 141 3 view .LVU1553
 5289              	.LBE283:
 5290              	.LBE282:
 5291              	.LBE281:
 5292              	.LBE280:
 5293              		.loc 1 3372 41 is_stmt 0 discriminator 1 view .LVU1554
 5294 000c 1D49     		ldr	r1, .L497+4
 5295              	.LBB290:
 5296              	.LBB288:
 5297              	.LBB286:
 5298              	.LBB284:
 5299              		.loc 5 141 10 view .LVU1555
ARM GAS  C:\msys64\tmp\ccb7DTfv.s 			page 94


 5300 000e 4FF08042 		mov	r2, #1073741824
 5301              	.LBE284:
 5302              	.LBE286:
 5303              	.LBE288:
 5304              	.LBE290:
 5305              		.loc 1 3372 17 discriminator 1 view .LVU1556
 5306 0012 0968     		ldr	r1, [r1]
 5307              	.LBB291:
 5308              	.LBB289:
 5309              	.LBB287:
 5310              	.LBB285:
 5311              		.loc 5 141 10 view .LVU1557
 5312 0014 526A     		ldr	r2, [r2, #36]
 5313              	.LBE285:
 5314              	.LBE287:
 5315              	.LBE289:
 5316              	.LBE291:
 5317              		.loc 1 3372 17 discriminator 1 view .LVU1558
 5318 0016 9142     		cmp	r1, r2
 5319 0018 2BD8     		bhi	.L481
 5320              		.loc 1 3374 3 is_stmt 1 view .LVU1559
 5321              	.LVL428:
 5322              		.loc 1 3375 3 view .LVU1560
 5323              		.loc 1 3375 83 is_stmt 0 view .LVU1561
 5324 001a 8207     		lsls	r2, r0, #30
 5325              		.loc 1 3376 21 view .LVU1562
 5326 001c 1A4A     		ldr	r2, .L497+8
 5327              		.loc 1 3375 83 discriminator 1 view .LVU1563
 5328 001e 48BF     		it	mi
 5329 0020 1A4E     		ldrmi	r6, .L497+12
 5330              		.loc 1 3376 21 view .LVU1564
 5331 0022 528B     		ldrh	r2, [r2, #26]
 5332              		.loc 1 3375 83 discriminator 2 view .LVU1565
 5333 0024 58BF     		it	pl
 5334 0026 1A4E     		ldrpl	r6, .L497+16
 5335              	.LVL429:
 5336              		.loc 1 3376 3 is_stmt 1 view .LVU1566
 5337              		.loc 1 3376 12 is_stmt 0 view .LVU1567
 5338 0028 0132     		adds	r2, r2, #1
 5339              		.loc 1 3376 6 view .LVU1568
 5340 002a 9A42     		cmp	r2, r3
 5341 002c 22DA     		bge	.L484
 5342              		.loc 1 3377 5 is_stmt 1 view .LVU1569
 5343 002e FFF7FEFF 		bl	reset_dsp_accumerator
 5344              	.LVL430:
 5345              	.L485:
 5346              		.loc 1 3381 3 view .LVU1570
 5347              	.LBB292:
 5348              	.LBI292:
 5349              		.loc 1 3346 1 view .LVU1571
 5350              	.LBB293:
 5351              		.loc 1 3348 3 view .LVU1572
 5352              		.loc 1 3348 5 is_stmt 0 view .LVU1573
 5353 0032 184B     		ldr	r3, .L497+20
 5354 0034 1849     		ldr	r1, .L497+24
 5355 0036 B3F90030 		ldrsh	r3, [r3]
 5356              		.loc 1 3354 17 view .LVU1574
ARM GAS  C:\msys64\tmp\ccb7DTfv.s 			page 95


 5357 003a 184C     		ldr	r4, .L497+28
 5358              		.loc 1 3348 5 view .LVU1575
 5359 003c 06EB430E 		add	lr, r6, r3, lsl #1
 5360              	.LVL431:
 5361              		.loc 1 3349 3 is_stmt 1 view .LVU1576
 5362              		.loc 1 3349 10 view .LVU1577
 5363 0040 0EF10402 		add	r2, lr, #4
 5364 0044 0EF1C40E 		add	lr, lr, #196
 5365              	.LVL432:
 5366              	.L487:
 5367              		.loc 1 3351 5 view .LVU1578
 5368              		.loc 1 3353 5 view .LVU1579
 5369              		.loc 1 3351 18 is_stmt 0 view .LVU1580
 5370 0048 0B88     		ldrh	r3, [r1]
 5371 004a 1BB2     		sxth	r3, r3
 5372              		.loc 1 3351 8 view .LVU1581
 5373 004c 6BB1     		cbz	r3, .L486
 5374              		.loc 1 3353 13 view .LVU1582
 5375 004e 0B88     		ldrh	r3, [r1]
 5376              		.loc 1 3354 17 view .LVU1583
 5377 0050 2068     		ldr	r0, [r4]
 5378              		.loc 1 3354 22 view .LVU1584
 5379 0052 32F904CC 		ldrsh	ip, [r2, #-4]
 5380              		.loc 1 3353 13 view .LVU1585
 5381 0056 013B     		subs	r3, r3, #1
 5382              		.loc 1 3349 10 view .LVU1586
 5383 0058 0432     		adds	r2, r2, #4
 5384              	.LVL433:
 5385              		.loc 1 3353 13 view .LVU1587
 5386 005a 1BB2     		sxth	r3, r3
 5387              		.loc 1 3354 17 view .LVU1588
 5388 005c 861C     		adds	r6, r0, #2
 5389              		.loc 1 3349 10 view .LVU1589
 5390 005e 9645     		cmp	lr, r2
 5391              		.loc 1 3353 13 view .LVU1590
 5392 0060 0B80     		strh	r3, [r1]	@ movhi
 5393              		.loc 1 3354 5 is_stmt 1 view .LVU1591
 5394              		.loc 1 3354 17 is_stmt 0 view .LVU1592
 5395 0062 2660     		str	r6, [r4]
 5396              		.loc 1 3354 20 view .LVU1593
 5397 0064 A0F800C0 		strh	ip, [r0]	@ movhi
 5398              		.loc 1 3355 5 is_stmt 1 view .LVU1594
 5399              	.LVL434:
 5400              		.loc 1 3356 5 view .LVU1595
 5401              		.loc 1 3349 10 view .LVU1596
 5402 0068 EED1     		bne	.L487
 5403              	.LVL435:
 5404              	.L486:
 5405              		.loc 1 3349 10 is_stmt 0 view .LVU1597
 5406              	.LBE293:
 5407              	.LBE292:
 5408              		.loc 1 3383 3 is_stmt 1 view .LVU1598
 5409 006a 2B88     		ldrh	r3, [r5]
 5410 006c 013B     		subs	r3, r3, #1
 5411 006e 9BB2     		uxth	r3, r3
 5412 0070 2B80     		strh	r3, [r5]	@ movhi
 5413              	.LVL436:
ARM GAS  C:\msys64\tmp\ccb7DTfv.s 			page 96


 5414              	.L481:
 5415              		.loc 1 3384 1 is_stmt 0 view .LVU1599
 5416 0072 70BD     		pop	{r4, r5, r6, pc}
 5417              	.LVL437:
 5418              	.L484:
 5419              		.loc 1 3379 5 is_stmt 1 view .LVU1600
 5420 0074 6021     		movs	r1, #96
 5421 0076 3046     		mov	r0, r6
 5422              	.LVL438:
 5423              		.loc 1 3379 5 is_stmt 0 view .LVU1601
 5424 0078 FFF7FEFF 		bl	dsp_process
 5425              	.LVL439:
 5426              		.loc 1 3379 5 view .LVU1602
 5427 007c D9E7     		b	.L485
 5428              	.L498:
 5429 007e 00BF     		.align	2
 5430              	.L497:
 5431 0080 00000000 		.word	wait_count
 5432 0084 00000000 		.word	ready_time
 5433 0088 00000000 		.word	config
 5434 008c C0000000 		.word	rx_buffer+192
 5435 0090 00000000 		.word	rx_buffer
 5436 0094 00000000 		.word	dump_selection
 5437 0098 00000000 		.word	dump_len
 5438 009c 00000000 		.word	dump_buffer
 5439              		.cfi_endproc
 5440              	.LFE294:
 5441              		.size	i2s_lld_serve_rx_interrupt, .-i2s_lld_serve_rx_interrupt
 5442              		.section	.text.set_bandwidth,"ax",%progbits
 5443              		.align	1
 5444              		.p2align 4,,15
 5445              		.global	set_bandwidth
 5446              		.syntax unified
 5447              		.thumb
 5448              		.thumb_func
 5449              		.type	set_bandwidth, %function
 5450              	set_bandwidth:
 5451              	.LVL440:
 5452              	.LFB301:
 5453              		.loc 1 3639 1 is_stmt 1 view -0
 5454              		.cfi_startproc
 5455              		@ args = 0, pretend = 0, frame = 0
 5456              		@ frame_needed = 0, uses_anonymous_args = 0
 5457              		@ link register save eliminated.
 5458              		.loc 1 3640 3 view .LVU1604
 5459              		.loc 1 3640 21 is_stmt 0 view .LVU1605
 5460 0000 034A     		ldr	r2, .L500
 5461              		.loc 1 3640 32 view .LVU1606
 5462 0002 C0F30803 		ubfx	r3, r0, #0, #9
 5463              		.loc 1 3641 3 view .LVU1607
 5464 0006 4FF48160 		mov	r0, #1032
 5465              	.LVL441:
 5466              		.loc 1 3640 21 view .LVU1608
 5467 000a 5383     		strh	r3, [r2, #26]	@ movhi
 5468              		.loc 1 3641 3 is_stmt 1 view .LVU1609
 5469 000c FFF7FEBF 		b	request_to_redraw
 5470              	.LVL442:
ARM GAS  C:\msys64\tmp\ccb7DTfv.s 			page 97


 5471              	.L501:
 5472              		.align	2
 5473              	.L500:
 5474 0010 00000000 		.word	config
 5475              		.cfi_endproc
 5476              	.LFE301:
 5477              		.size	set_bandwidth, .-set_bandwidth
 5478              		.section	.text.cmd_bandwidth,"ax",%progbits
 5479              		.align	1
 5480              		.p2align 4,,15
 5481              		.syntax unified
 5482              		.thumb
 5483              		.thumb_func
 5484              		.type	cmd_bandwidth, %function
 5485              	cmd_bandwidth:
 5486              	.LVL443:
 5487              	.LFB303:
 5488              		.loc 1 3653 1 view -0
 5489              		.cfi_startproc
 5490              		@ args = 0, pretend = 0, frame = 0
 5491              		@ frame_needed = 0, uses_anonymous_args = 0
 5492              		.loc 1 3654 3 view .LVU1611
 5493              		.loc 1 3655 3 view .LVU1612
 5494              		.loc 1 3655 6 is_stmt 0 view .LVU1613
 5495 0000 0128     		cmp	r0, #1
 5496              		.loc 1 3653 1 view .LVU1614
 5497 0002 08B5     		push	{r3, lr}
 5498              		.cfi_def_cfa_offset 8
 5499              		.cfi_offset 3, -8
 5500              		.cfi_offset 14, -4
 5501              		.loc 1 3655 6 view .LVU1615
 5502 0004 12D0     		beq	.L509
 5503              		.loc 1 3657 8 is_stmt 1 view .LVU1616
 5504              		.loc 1 3657 11 is_stmt 0 view .LVU1617
 5505 0006 0228     		cmp	r0, #2
 5506 0008 00D0     		beq	.L510
 5507              	.L505:
 5508              		.loc 1 3677 1 view .LVU1618
 5509 000a 08BD     		pop	{r3, pc}
 5510              	.L510:
 5511              	.LBB294:
 5512              		.loc 1 3659 5 is_stmt 1 view .LVU1619
 5513              		.loc 1 3659 18 is_stmt 0 view .LVU1620
 5514 000c 0868     		ldr	r0, [r1]
 5515              	.LVL444:
 5516              		.loc 1 3659 18 view .LVU1621
 5517 000e FFF7FEFF 		bl	my_atoui
 5518              	.LVL445:
 5519              		.loc 1 3659 14 discriminator 1 view .LVU1622
 5520 0012 83B2     		uxth	r3, r0
 5521              	.LVL446:
 5522              		.loc 1 3660 5 is_stmt 1 view .LVU1623
 5523              		.loc 1 3660 8 is_stmt 0 view .LVU1624
 5524 0014 B3F57A6F 		cmp	r3, #4000
 5525 0018 10D8     		bhi	.L506
 5526              		.loc 1 3662 10 is_stmt 1 view .LVU1625
 5527              		.loc 1 3662 13 is_stmt 0 view .LVU1626
ARM GAS  C:\msys64\tmp\ccb7DTfv.s 			page 98


 5528 001a 072B     		cmp	r3, #7
 5529 001c 13D9     		bls	.L507
 5530              		.loc 1 3665 7 is_stmt 1 view .LVU1627
 5531              		.loc 1 3665 84 is_stmt 0 view .LVU1628
 5532 001e 4FF47A60 		mov	r0, #4000
 5533 0022 B0FBF3F0 		udiv	r0, r0, r3
 5534              		.loc 1 3665 15 view .LVU1629
 5535 0026 0138     		subs	r0, r0, #1
 5536 0028 80B2     		uxth	r0, r0
 5537              	.LVL447:
 5538              		.loc 1 3665 15 view .LVU1630
 5539 002a 03E0     		b	.L504
 5540              	.LVL448:
 5541              	.L509:
 5542              		.loc 1 3665 15 view .LVU1631
 5543              	.LBE294:
 5544              		.loc 1 3656 5 is_stmt 1 view .LVU1632
 5545              		.loc 1 3656 15 is_stmt 0 view .LVU1633
 5546 002c 0868     		ldr	r0, [r1]
 5547              	.LVL449:
 5548              		.loc 1 3656 15 view .LVU1634
 5549 002e FFF7FEFF 		bl	my_atoui
 5550              	.LVL450:
 5551              		.loc 1 3656 13 discriminator 1 view .LVU1635
 5552 0032 80B2     		uxth	r0, r0
 5553              	.LVL451:
 5554              	.L504:
 5555              		.loc 1 3669 3 is_stmt 1 view .LVU1636
 5556              		.loc 1 3677 1 is_stmt 0 view .LVU1637
 5557 0034 BDE80840 		pop	{r3, lr}
 5558              		.cfi_remember_state
 5559              		.cfi_restore 14
 5560              		.cfi_restore 3
 5561              		.cfi_def_cfa_offset 0
 5562              		.loc 1 3669 3 view .LVU1638
 5563 0038 FFF7FEBF 		b	set_bandwidth
 5564              	.LVL452:
 5565              	.L506:
 5566              		.cfi_restore_state
 5567              		.loc 1 3677 1 view .LVU1639
 5568 003c BDE80840 		pop	{r3, lr}
 5569              		.cfi_remember_state
 5570              		.cfi_restore 14
 5571              		.cfi_restore 3
 5572              		.cfi_def_cfa_offset 0
 5573              	.LVL453:
 5574              	.LBB295:
 5575              		.loc 1 3661 15 view .LVU1640
 5576 0040 0020     		movs	r0, #0
 5577              	.LVL454:
 5578              		.loc 1 3661 15 view .LVU1641
 5579              	.LBE295:
 5580              		.loc 1 3669 3 is_stmt 1 view .LVU1642
 5581 0042 FFF7FEBF 		b	set_bandwidth
 5582              	.LVL455:
 5583              	.L507:
 5584              		.cfi_restore_state
ARM GAS  C:\msys64\tmp\ccb7DTfv.s 			page 99


 5585              	.LBB296:
 5586              		.loc 1 3663 15 is_stmt 0 view .LVU1643
 5587 0046 40F2FF10 		movw	r0, #511
 5588 004a F3E7     		b	.L504
 5589              	.LBE296:
 5590              		.cfi_endproc
 5591              	.LFE303:
 5592              		.size	cmd_bandwidth, .-cmd_bandwidth
 5593              		.section	.text.get_bandwidth_frequency,"ax",%progbits
 5594              		.align	1
 5595              		.p2align 4,,15
 5596              		.global	get_bandwidth_frequency
 5597              		.syntax unified
 5598              		.thumb
 5599              		.thumb_func
 5600              		.type	get_bandwidth_frequency, %function
 5601              	get_bandwidth_frequency:
 5602              	.LVL456:
 5603              	.LFB302:
 5604              		.loc 1 3645 1 is_stmt 1 view -0
 5605              		.cfi_startproc
 5606              		@ args = 0, pretend = 0, frame = 0
 5607              		@ frame_needed = 0, uses_anonymous_args = 0
 5608              		@ link register save eliminated.
 5609              		.loc 1 3646 3 view .LVU1645
 5610              		.loc 1 3646 49 is_stmt 0 view .LVU1646
 5611 0000 4FF47A63 		mov	r3, #4000
 5612              		.loc 1 3646 60 view .LVU1647
 5613 0004 0130     		adds	r0, r0, #1
 5614              	.LVL457:
 5615              		.loc 1 3647 1 view .LVU1648
 5616 0006 B3FBF0F0 		udiv	r0, r3, r0
 5617              	.LVL458:
 5618              		.loc 1 3647 1 view .LVU1649
 5619 000a 7047     		bx	lr
 5620              		.cfi_endproc
 5621              	.LFE302:
 5622              		.size	get_bandwidth_frequency, .-get_bandwidth_frequency
 5623              		.section	.text.getFrequency,"ax",%progbits
 5624              		.align	1
 5625              		.p2align 4,,15
 5626              		.global	getFrequency
 5627              		.syntax unified
 5628              		.thumb
 5629              		.thumb_func
 5630              		.type	getFrequency, %function
 5631              	getFrequency:
 5632              	.LVL459:
 5633              	.LFB306:
 5634              		.loc 1 3738 35 is_stmt 1 view -0
 5635              		.cfi_startproc
 5636              		@ args = 0, pretend = 0, frame = 0
 5637              		@ frame_needed = 0, uses_anonymous_args = 0
 5638              		@ link register save eliminated.
 5639              		.loc 1 3738 37 view .LVU1651
 5640              		.loc 1 3738 83 is_stmt 0 view .LVU1652
 5641 0000 0949     		ldr	r1, .L514
ARM GAS  C:\msys64\tmp\ccb7DTfv.s 			page 100


 5642              		.loc 1 3738 64 view .LVU1653
 5643 0002 0A4A     		ldr	r2, .L514+4
 5644              		.loc 1 3738 53 view .LVU1654
 5645 0004 0A4B     		ldr	r3, .L514+8
 5646              		.loc 1 3738 83 view .LVU1655
 5647 0006 0988     		ldrh	r1, [r1]
 5648              		.loc 1 3738 53 view .LVU1656
 5649 0008 1B68     		ldr	r3, [r3]
 5650              		.loc 1 3738 64 view .LVU1657
 5651 000a 1268     		ldr	r2, [r2]
 5652              		.loc 1 3738 35 view .LVU1658
 5653 000c 10B4     		push	{r4}
 5654              		.cfi_def_cfa_offset 4
 5655              		.cfi_offset 4, -4
 5656              		.loc 1 3738 98 view .LVU1659
 5657 000e 094C     		ldr	r4, .L514+12
 5658 0010 2468     		ldr	r4, [r4]
 5659              		.loc 1 3738 53 view .LVU1660
 5660 0012 02FB0032 		mla	r2, r2, r0, r3
 5661              		.loc 1 3738 83 view .LVU1661
 5662 0016 4B08     		lsrs	r3, r1, #1
 5663              		.loc 1 3738 87 view .LVU1662
 5664 0018 04FB0033 		mla	r3, r4, r0, r3
 5665              		.loc 1 3738 118 view .LVU1663
 5666 001c 5DF8044B 		ldr	r4, [sp], #4
 5667              		.cfi_restore 4
 5668              		.cfi_def_cfa_offset 0
 5669              		.loc 1 3738 105 view .LVU1664
 5670 0020 B3FBF1F3 		udiv	r3, r3, r1
 5671              		.loc 1 3738 118 view .LVU1665
 5672 0024 9818     		adds	r0, r3, r2
 5673              	.LVL460:
 5674              		.loc 1 3738 118 view .LVU1666
 5675 0026 7047     		bx	lr
 5676              	.L515:
 5677              		.align	2
 5678              	.L514:
 5679 0028 00000000 		.word	_f_points
 5680 002c 00000000 		.word	_f_delta
 5681 0030 00000000 		.word	_f_start
 5682 0034 00000000 		.word	_f_error
 5683              		.cfi_endproc
 5684              	.LFE306:
 5685              		.size	getFrequency, .-getFrequency
 5686              		.section	.text.sweep,"ax",%progbits
 5687              		.align	1
 5688              		.p2align 4,,15
 5689              		.syntax unified
 5690              		.thumb
 5691              		.thumb_func
 5692              		.type	sweep, %function
 5693              	sweep:
 5694              	.LVL461:
 5695              	.LFB298:
 5696              		.loc 1 3478 1 is_stmt 1 view -0
 5697              		.cfi_startproc
 5698              		@ args = 0, pretend = 0, frame = 96
ARM GAS  C:\msys64\tmp\ccb7DTfv.s 			page 101


 5699              		@ frame_needed = 0, uses_anonymous_args = 0
 5700              		.loc 1 3479 3 view .LVU1668
 5701              		.loc 1 3478 1 is_stmt 0 view .LVU1669
 5702 0000 2DE9F04F 		push	{r4, r5, r6, r7, r8, r9, r10, fp, lr}
 5703              		.cfi_def_cfa_offset 36
 5704              		.cfi_offset 4, -36
 5705              		.cfi_offset 5, -32
 5706              		.cfi_offset 6, -28
 5707              		.cfi_offset 7, -24
 5708              		.cfi_offset 8, -20
 5709              		.cfi_offset 9, -16
 5710              		.cfi_offset 10, -12
 5711              		.cfi_offset 11, -8
 5712              		.cfi_offset 14, -4
 5713              		.loc 1 3479 18 view .LVU1670
 5714 0004 8F4D     		ldr	r5, .L610
 5715              		.loc 1 3479 15 view .LVU1671
 5716 0006 904C     		ldr	r4, .L610+4
 5717              		.loc 1 3479 6 view .LVU1672
 5718 0008 6A8B     		ldrh	r2, [r5, #26]
 5719 000a 2388     		ldrh	r3, [r4]
 5720              		.loc 1 3478 1 view .LVU1673
 5721 000c 2DED088B 		vpush.64	{d8, d9, d10, d11}
 5722              		.cfi_def_cfa_offset 68
 5723              		.cfi_offset 80, -68
 5724              		.cfi_offset 81, -64
 5725              		.cfi_offset 82, -60
 5726              		.cfi_offset 83, -56
 5727              		.cfi_offset 84, -52
 5728              		.cfi_offset 85, -48
 5729              		.cfi_offset 86, -44
 5730              		.cfi_offset 87, -40
 5731 0010 99B0     		sub	sp, sp, #100
 5732              		.cfi_def_cfa_offset 168
 5733              		.loc 1 3479 6 view .LVU1674
 5734 0012 9A42     		cmp	r2, r3
 5735              		.loc 1 3478 1 view .LVU1675
 5736 0014 0290     		str	r0, [sp, #8]
 5737 0016 0F46     		mov	r7, r1
 5738              		.loc 1 3479 6 view .LVU1676
 5739 0018 66D9     		bls	.L517
 5740              		.loc 1 3479 31 discriminator 1 view .LVU1677
 5741 001a 0028     		cmp	r0, #0
 5742 001c 64D0     		beq	.L517
 5743              	.L518:
 5744              		.loc 1 3483 3 is_stmt 1 view .LVU1678
 5745              		.loc 1 3484 3 view .LVU1679
 5746              		.loc 1 3486 3 view .LVU1680
 5747 001e 8B4B     		ldr	r3, .L610+8
 5748              		.loc 1 3488 18 is_stmt 0 view .LVU1681
 5749 0020 95ED2A0A 		vldr.32	s0, [r5, #168]
 5750 0024 DFED8A7A 		vldr.32	s15, .L610+12
 5751              		.loc 1 3486 3 view .LVU1682
 5752 0028 4FF00052 		mov	r2, #536870912
 5753 002c 9A61     		str	r2, [r3, #24]
 5754              		.loc 1 3487 3 is_stmt 1 view .LVU1683
 5755              	.LVL462:
ARM GAS  C:\msys64\tmp\ccb7DTfv.s 			page 102


 5756              		.loc 1 3488 3 view .LVU1684
 5757              		.loc 1 3488 18 is_stmt 0 view .LVU1685
 5758 002e 20EE270A 		vmul.f32	s0, s0, s15
 5759 0032 FFF7FEFF 		bl	vna_expf
 5760              	.LVL463:
 5761              		.loc 1 3490 3 view .LVU1686
 5762 0036 1120     		movs	r0, #17
 5763              		.loc 1 3488 18 view .LVU1687
 5764 0038 B0EE409A 		vmov.f32	s18, s0
 5765              	.LVL464:
 5766              		.loc 1 3490 3 is_stmt 1 view .LVU1688
 5767 003c FFF7FEFF 		bl	lcd_set_background
 5768              	.LVL465:
 5769              		.loc 1 3492 3 view .LVU1689
 5770              		.loc 1 3493 3 view .LVU1690
 5771              		.loc 1 3494 3 view .LVU1691
 5772              		.loc 1 3496 3 view .LVU1692
 5773              		.loc 1 3496 18 discriminator 1 view .LVU1693
 5774              		.loc 1 3496 20 is_stmt 0 discriminator 1 view .LVU1694
 5775 0040 6B8B     		ldrh	r3, [r5, #26]
 5776              		.loc 1 3496 18 discriminator 1 view .LVU1695
 5777 0042 2088     		ldrh	r0, [r4]
 5778 0044 8342     		cmp	r3, r0
 5779 0046 42D9     		bls	.L519
 5780 0048 07F00303 		and	r3, r7, #3
 5781              	.LBB324:
 5782              		.loc 1 3503 63 view .LVU1696
 5783 004c 07F04002 		and	r2, r7, #64
 5784 0050 DFF80CA2 		ldr	r10, .L610+28
 5785 0054 0392     		str	r2, [sp, #12]
 5786              	.LBE324:
 5787              		.loc 1 3493 7 view .LVU1697
 5788 0056 4FF0000B 		mov	fp, #0
 5789              		.loc 1 3492 7 view .LVU1698
 5790 005a 4FF0C809 		mov	r9, #200
 5791              	.LBB416:
 5792              		.loc 1 3503 63 view .LVU1699
 5793 005e 9846     		mov	r8, r3
 5794              	.LVL466:
 5795              	.L555:
 5796              		.loc 1 3498 5 is_stmt 1 view .LVU1700
 5797              		.loc 1 3500 5 view .LVU1701
 5798              		.loc 1 3500 8 is_stmt 0 view .LVU1702
 5799 0060 B8F1000F 		cmp	r8, #0
 5800 0064 43D1     		bne	.L601
 5801              	.LVL467:
 5802              	.L521:
 5803              		.loc 1 3561 5 is_stmt 1 view .LVU1703
 5804              		.loc 1 3561 8 is_stmt 0 view .LVU1704
 5805 0066 9AF80030 		ldrb	r3, [r10]	@ zero_extendqisi2
 5806 006a 0BB1     		cbz	r3, .L552
 5807              		.loc 1 3561 29 discriminator 1 view .LVU1705
 5808 006c 029B     		ldr	r3, [sp, #8]
 5809 006e 03BB     		cbnz	r3, .L553
 5810              	.L552:
 5811              		.loc 1 3563 5 is_stmt 1 view .LVU1706
 5812              	.LVL468:
ARM GAS  C:\msys64\tmp\ccb7DTfv.s 			page 103


 5813              		.loc 1 3565 5 view .LVU1707
 5814              		.loc 1 3565 15 is_stmt 0 view .LVU1708
 5815 0070 784B     		ldr	r3, .L610+16
 5816              	.LBB325:
 5817              		.loc 1 3567 34 view .LVU1709
 5818 0072 2088     		ldrh	r0, [r4]
 5819              	.LBE325:
 5820              		.loc 1 3565 8 view .LVU1710
 5821 0074 5A8B     		ldrh	r2, [r3, #26]
 5822              	.LBB326:
 5823              		.loc 1 3567 46 view .LVU1711
 5824 0076 6B8B     		ldrh	r3, [r5, #26]
 5825              	.LBE326:
 5826              		.loc 1 3565 8 view .LVU1712
 5827 0078 262A     		cmp	r2, #38
 5828 007a 13D9     		bls	.L554
 5829              	.LBB327:
 5830              		.loc 1 3567 7 is_stmt 1 view .LVU1713
 5831              		.loc 1 3567 34 is_stmt 0 view .LVU1714
 5832 007c C0EBC006 		rsb	r6, r0, r0, lsl #3
 5833              		.loc 1 3567 59 view .LVU1715
 5834 0080 5A1E     		subs	r2, r3, #1
 5835              		.loc 1 3567 34 view .LVU1716
 5836 0082 06EB8616 		add	r6, r6, r6, lsl #6
 5837              		.loc 1 3567 11 view .LVU1717
 5838 0086 96FBF2F6 		sdiv	r6, r6, r2
 5839              	.LVL469:
 5840              		.loc 1 3568 7 is_stmt 1 view .LVU1718
 5841              		.loc 1 3568 23 is_stmt 0 view .LVU1719
 5842 008a A6EB0B02 		sub	r2, r6, fp
 5843              		.loc 1 3568 10 view .LVU1720
 5844 008e 002A     		cmp	r2, #0
 5845 0090 08DD     		ble	.L554
 5846              		.loc 1 3570 9 is_stmt 1 view .LVU1721
 5847 0092 0BF11400 		add	r0, fp, #20
 5848 0096 0123     		movs	r3, #1
 5849 0098 0021     		movs	r1, #0
 5850 009a FFF7FEFF 		bl	lcd_fill
 5851              	.LVL470:
 5852              		.loc 1 3571 9 view .LVU1722
 5853              		.loc 1 3571 9 is_stmt 0 view .LVU1723
 5854              	.LBE327:
 5855              	.LBE416:
 5856              		.loc 1 3496 41 view .LVU1724
 5857 009e 2088     		ldrh	r0, [r4]
 5858              		.loc 1 3496 20 discriminator 1 view .LVU1725
 5859 00a0 6B8B     		ldrh	r3, [r5, #26]
 5860              	.LBB417:
 5861              	.LBB328:
 5862              		.loc 1 3571 19 view .LVU1726
 5863 00a2 B346     		mov	fp, r6
 5864              	.LVL471:
 5865              	.L554:
 5866              		.loc 1 3571 19 view .LVU1727
 5867              	.LBE328:
 5868              	.LBE417:
 5869              		.loc 1 3496 41 is_stmt 1 view .LVU1728
ARM GAS  C:\msys64\tmp\ccb7DTfv.s 			page 104


 5870 00a4 0130     		adds	r0, r0, #1
 5871 00a6 80B2     		uxth	r0, r0
 5872              		.loc 1 3496 18 is_stmt 0 discriminator 1 view .LVU1729
 5873 00a8 9842     		cmp	r0, r3
 5874              		.loc 1 3496 41 view .LVU1730
 5875 00aa 2080     		strh	r0, [r4]	@ movhi
 5876              		.loc 1 3496 18 is_stmt 1 discriminator 1 view .LVU1731
 5877 00ac 4FF00009 		mov	r9, #0
 5878 00b0 D6D3     		bcc	.L555
 5879              	.LVL472:
 5880              	.L553:
 5881              		.loc 1 3575 3 view .LVU1732
 5882              		.loc 1 3575 6 is_stmt 0 view .LVU1733
 5883 00b2 BBF1000F 		cmp	fp, #0
 5884 00b6 08D0     		beq	.L600
 5885              		.loc 1 3577 5 is_stmt 1 view .LVU1734
 5886 00b8 0220     		movs	r0, #2
 5887 00ba FFF7FEFF 		bl	lcd_set_background
 5888              	.LVL473:
 5889              		.loc 1 3578 5 view .LVU1735
 5890 00be 0123     		movs	r3, #1
 5891 00c0 0021     		movs	r1, #0
 5892 00c2 5A46     		mov	r2, fp
 5893 00c4 1420     		movs	r0, #20
 5894 00c6 FFF7FEFF 		bl	lcd_fill
 5895              	.LVL474:
 5896              	.L600:
 5897              		.loc 1 3584 21 is_stmt 0 view .LVU1736
 5898 00ca 6B8B     		ldrh	r3, [r5, #26]
