ARM GAS  C:\msys64\tmp\ccHkZB39.s 			page 1


   1              		.cpu cortex-m4
   2              		.arch armv7e-m
   3              		.fpu fpv4-sp-d16
   4              		.eabi_attribute 27, 1
   5              		.eabi_attribute 28, 1
   6              		.eabi_attribute 23, 1
   7              		.eabi_attribute 24, 1
   8              		.eabi_attribute 25, 1
   9              		.eabi_attribute 26, 1
  10              		.eabi_attribute 30, 2
  11              		.eabi_attribute 34, 1
  12              		.eabi_attribute 18, 4
  13              		.file	"memstreams.c"
  14              		.text
  15              	.Ltext0:
  16              		.cfi_sections	.debug_frame
  17              		.file 1 "ChibiOS/os/hal/lib/streams/memstreams.c"
  18              		.section	.text.put,"ax",%progbits
  19              		.align	1
  20              		.p2align 4,,15
  21              		.syntax unified
  22              		.thumb
  23              		.thumb_func
  24              		.type	put, %function
  25              	put:
  26              	.LVL0:
  27              	.LFB235:
  28              		.loc 1 66 39 view -0
  29              		.cfi_startproc
  30              		@ args = 0, pretend = 0, frame = 0
  31              		@ frame_needed = 0, uses_anonymous_args = 0
  32              		@ link register save eliminated.
  33              		.loc 1 67 3 view .LVU1
  34              		.loc 1 66 39 is_stmt 0 view .LVU2
  35 0000 0346     		mov	r3, r0
  36              	.LVL1:
  37              		.loc 1 69 3 is_stmt 1 view .LVU3
  38              		.loc 1 69 6 is_stmt 0 view .LVU4
  39 0002 D0E90202 		ldrd	r0, r2, [r0, #8]
  40              	.LVL2:
  41              		.loc 1 69 6 view .LVU5
  42 0006 9042     		cmp	r0, r2
  43 0008 09D0     		beq	.L3
  44              		.loc 1 71 3 is_stmt 1 view .LVU6
  45              		.loc 1 66 39 is_stmt 0 view .LVU7
  46 000a 10B4     		push	{r4}
  47              		.cfi_def_cfa_offset 4
  48              		.cfi_offset 4, -4
  49              		.loc 1 71 29 view .LVU8
  50 000c 5C68     		ldr	r4, [r3, #4]
  51 000e A154     		strb	r1, [r4, r2]
  52              		.loc 1 72 3 is_stmt 1 view .LVU9
  53              		.loc 1 72 12 is_stmt 0 view .LVU10
  54 0010 DA68     		ldr	r2, [r3, #12]
  55              		.loc 1 74 1 view .LVU11
  56 0012 5DF8044B 		ldr	r4, [sp], #4
  57              		.cfi_restore 4
ARM GAS  C:\msys64\tmp\ccHkZB39.s 			page 2


  58              		.cfi_def_cfa_offset 0
  59              		.loc 1 72 12 view .LVU12
  60 0016 0132     		adds	r2, r2, #1
  61              		.loc 1 73 10 view .LVU13
  62 0018 0020     		movs	r0, #0
  63              		.loc 1 72 12 view .LVU14
  64 001a DA60     		str	r2, [r3, #12]
  65              		.loc 1 73 3 is_stmt 1 view .LVU15
  66              		.loc 1 74 1 is_stmt 0 view .LVU16
  67 001c 7047     		bx	lr
  68              	.L3:
  69              		.loc 1 70 12 view .LVU17
  70 001e 6FF00100 		mvn	r0, #1
  71              		.loc 1 74 1 view .LVU18
  72 0022 7047     		bx	lr
  73              		.cfi_endproc
  74              	.LFE235:
  75              		.size	put, .-put
  76              		.section	.text.get,"ax",%progbits
  77              		.align	1
  78              		.p2align 4,,15
  79              		.syntax unified
  80              		.thumb
  81              		.thumb_func
  82              		.type	get, %function
  83              	get:
  84              	.LVL3:
  85              	.LFB236:
  86              		.loc 1 76 28 is_stmt 1 view -0
  87              		.cfi_startproc
  88              		@ args = 0, pretend = 0, frame = 0
  89              		@ frame_needed = 0, uses_anonymous_args = 0
  90              		@ link register save eliminated.
  91              		.loc 1 77 3 view .LVU20
  92              		.loc 1 78 3 view .LVU21
  93              		.loc 1 80 6 is_stmt 0 view .LVU22
  94 0000 D0E90312 		ldrd	r1, r2, [r0, #12]
  95 0004 9142     		cmp	r1, r2
  96              		.loc 1 76 28 view .LVU23
  97 0006 0346     		mov	r3, r0
  98              	.LVL4:
  99              		.loc 1 80 3 is_stmt 1 view .LVU24
 100              		.loc 1 80 6 is_stmt 0 view .LVU25
 101 0008 04D0     		beq	.L11
 102              		.loc 1 82 3 is_stmt 1 view .LVU26
 103              		.loc 1 82 5 is_stmt 0 view .LVU27
 104 000a 4068     		ldr	r0, [r0, #4]
 105              	.LVL5:
 106              		.loc 1 83 15 view .LVU28
 107 000c 511C     		adds	r1, r2, #1
 108              		.loc 1 82 5 view .LVU29
 109 000e 805C     		ldrb	r0, [r0, r2]	@ zero_extendqisi2
 110              	.LVL6:
 111              		.loc 1 83 3 is_stmt 1 view .LVU30
 112              		.loc 1 83 15 is_stmt 0 view .LVU31
 113 0010 1961     		str	r1, [r3, #16]
 114              	.LVL7:
ARM GAS  C:\msys64\tmp\ccHkZB39.s 			page 3


 115              		.loc 1 84 3 is_stmt 1 view .LVU32
 116              		.loc 1 84 10 is_stmt 0 view .LVU33
 117 0012 7047     		bx	lr
 118              	.LVL8:
 119              	.L11:
 120              		.loc 1 81 12 view .LVU34
 121 0014 6FF00100 		mvn	r0, #1
 122              	.LVL9:
 123              		.loc 1 85 1 view .LVU35
 124 0018 7047     		bx	lr
 125              		.cfi_endproc
 126              	.LFE236:
 127              		.size	get, .-get
 128 001a 00BF     		.section	.text.reads,"ax",%progbits
 129              		.align	1
 130              		.p2align 4,,15
 131              		.syntax unified
 132              		.thumb
 133              		.thumb_func
 134              		.type	reads, %function
 135              	reads:
 136              	.LVL10:
 137              	.LFB234:
 138              		.loc 1 56 54 is_stmt 1 view -0
 139              		.cfi_startproc
 140              		@ args = 0, pretend = 0, frame = 0
 141              		@ frame_needed = 0, uses_anonymous_args = 0
 142              		.loc 1 57 3 view .LVU37
 143              		.loc 1 56 54 is_stmt 0 view .LVU38
 144 0000 38B5     		push	{r3, r4, r5, lr}
 145              		.cfi_def_cfa_offset 16
 146              		.cfi_offset 3, -16
 147              		.cfi_offset 4, -12
 148              		.cfi_offset 5, -8
 149              		.cfi_offset 14, -4
 150              		.loc 1 59 16 view .LVU39
 151 0002 D0E90353 		ldrd	r5, r3, [r0, #12]
 152              		.loc 1 56 54 view .LVU40
 153 0006 0446     		mov	r4, r0
 154              	.LVL11:
 155              		.loc 1 59 3 is_stmt 1 view .LVU41
 156              		.loc 1 59 16 is_stmt 0 view .LVU42
 157 0008 ED1A     		subs	r5, r5, r3
 158              		.loc 1 59 6 view .LVU43
 159 000a 9542     		cmp	r5, r2
 160              		.loc 1 56 54 view .LVU44
 161 000c 0846     		mov	r0, r1
 162              	.LVL12:
 163              		.loc 1 61 26 view .LVU45
 164 000e 6168     		ldr	r1, [r4, #4]
 165              	.LVL13:
 166              		.loc 1 59 6 view .LVU46
 167 0010 28BF     		it	cs
 168 0012 1546     		movcs	r5, r2
 169              	.LVL14:
 170              		.loc 1 61 3 is_stmt 1 view .LVU47
 171 0014 1944     		add	r1, r1, r3
ARM GAS  C:\msys64\tmp\ccHkZB39.s 			page 4


 172 0016 2A46     		mov	r2, r5
 173 0018 FFF7FEFF 		bl	memcpy
 174              	.LVL15:
 175              		.loc 1 62 3 view .LVU48
 176              		.loc 1 62 15 is_stmt 0 view .LVU49
 177 001c 2369     		ldr	r3, [r4, #16]
 178 001e 2B44     		add	r3, r3, r5
 179              		.loc 1 64 1 view .LVU50
 180 0020 2846     		mov	r0, r5
 181              		.loc 1 62 15 view .LVU51
 182 0022 2361     		str	r3, [r4, #16]
 183              		.loc 1 63 3 is_stmt 1 view .LVU52
 184              		.loc 1 64 1 is_stmt 0 view .LVU53
 185 0024 38BD     		pop	{r3, r4, r5, pc}
 186              		.loc 1 64 1 view .LVU54
 187              		.cfi_endproc
 188              	.LFE234:
 189              		.size	reads, .-reads
 190 0026 00BF     		.section	.text.writes,"ax",%progbits
 191              		.align	1
 192              		.p2align 4,,15
 193              		.syntax unified
 194              		.thumb
 195              		.thumb_func
 196              		.type	writes, %function
 197              	writes:
 198              	.LVL16:
 199              	.LFB233:
 200              		.loc 1 46 61 is_stmt 1 view -0
 201              		.cfi_startproc
 202              		@ args = 0, pretend = 0, frame = 0
 203              		@ frame_needed = 0, uses_anonymous_args = 0
 204              		.loc 1 47 3 view .LVU56
 205              		.loc 1 46 61 is_stmt 0 view .LVU57
 206 0000 38B5     		push	{r3, r4, r5, lr}
 207              		.cfi_def_cfa_offset 16
 208              		.cfi_offset 3, -16
 209              		.cfi_offset 4, -12
 210              		.cfi_offset 5, -8
 211              		.cfi_offset 14, -4
 212              		.loc 1 49 17 view .LVU58
 213 0002 D0E90253 		ldrd	r5, r3, [r0, #8]
 214 0006 ED1A     		subs	r5, r5, r3
 215              		.loc 1 46 61 view .LVU59
 216 0008 0446     		mov	r4, r0
 217              	.LVL17:
 218              		.loc 1 49 3 is_stmt 1 view .LVU60
 219              		.loc 1 49 6 is_stmt 0 view .LVU61
 220 000a 9542     		cmp	r5, r2
 221              		.loc 1 51 22 view .LVU62
 222 000c 4068     		ldr	r0, [r0, #4]
 223              	.LVL18:
 224              		.loc 1 49 6 view .LVU63
 225 000e 28BF     		it	cs
 226 0010 1546     		movcs	r5, r2
 227              	.LVL19:
 228              		.loc 1 51 3 is_stmt 1 view .LVU64
ARM GAS  C:\msys64\tmp\ccHkZB39.s 			page 5


 229 0012 1844     		add	r0, r0, r3
 230 0014 2A46     		mov	r2, r5
 231 0016 FFF7FEFF 		bl	memcpy
 232              	.LVL20:
 233              		.loc 1 52 3 view .LVU65
 234              		.loc 1 52 12 is_stmt 0 view .LVU66
 235 001a E368     		ldr	r3, [r4, #12]
 236 001c 2B44     		add	r3, r3, r5
 237              		.loc 1 54 1 view .LVU67
 238 001e 2846     		mov	r0, r5
 239              		.loc 1 52 12 view .LVU68
 240 0020 E360     		str	r3, [r4, #12]
 241              		.loc 1 53 3 is_stmt 1 view .LVU69
 242              		.loc 1 54 1 is_stmt 0 view .LVU70
 243 0022 38BD     		pop	{r3, r4, r5, pc}
 244              		.loc 1 54 1 view .LVU71
 245              		.cfi_endproc
 246              	.LFE233:
 247              		.size	writes, .-writes
 248              		.section	.text.msObjectInit,"ax",%progbits
 249              		.align	1
 250              		.p2align 4,,15
 251              		.global	msObjectInit
 252              		.syntax unified
 253              		.thumb
 254              		.thumb_func
 255              		.type	msObjectInit, %function
 256              	msObjectInit:
 257              	.LVL21:
 258              	.LFB237:
 259              		.loc 1 104 44 is_stmt 1 view -0
 260              		.cfi_startproc
 261              		@ args = 0, pretend = 0, frame = 0
 262              		@ frame_needed = 0, uses_anonymous_args = 0
 263              		@ link register save eliminated.
 264              		.loc 1 106 3 view .LVU73
 265              		.loc 1 104 44 is_stmt 0 view .LVU74
 266 0000 10B4     		push	{r4}
 267              		.cfi_def_cfa_offset 4
 268              		.cfi_offset 4, -4
 269              		.loc 1 106 15 view .LVU75
 270 0002 054C     		ldr	r4, .L18
 271 0004 0460     		str	r4, [r0]
 272              		.loc 1 107 3 is_stmt 1 view .LVU76
 273              		.loc 1 110 15 is_stmt 0 view .LVU77
 274 0006 0024     		movs	r4, #0
 275 0008 C0E90334 		strd	r3, r4, [r0, #12]
 276              		.loc 1 108 15 view .LVU78
 277 000c C0E90112 		strd	r1, r2, [r0, #4]
 278              		.loc 1 109 3 is_stmt 1 view .LVU79
 279              		.loc 1 111 1 is_stmt 0 view .LVU80
 280 0010 5DF8044B 		ldr	r4, [sp], #4
 281              		.cfi_restore 4
 282              		.cfi_def_cfa_offset 0
 283 0014 7047     		bx	lr
 284              	.L19:
 285 0016 00BF     		.align	2
ARM GAS  C:\msys64\tmp\ccHkZB39.s 			page 6


 286              	.L18:
 287 0018 00000000 		.word	vmt
 288              		.cfi_endproc
 289              	.LFE237:
 290              		.size	msObjectInit, .-msObjectInit
 291              		.section	.rodata.vmt,"a"
 292              		.align	2
 293              		.type	vmt, %object
 294              		.size	vmt, 16
 295              	vmt:
 296 0000 00000000 		.word	writes
 297 0004 00000000 		.word	reads
 298 0008 00000000 		.word	put
 299 000c 00000000 		.word	get
 300              		.text
 301              	.Letext0:
 302              		.file 2 "C:/Program Files (x86)/Arm GNU Toolchain arm-none-eabi/14.3 rel1/lib/gcc/arm-none-eabi/14
 303              		.file 3 "C:/Program Files (x86)/Arm GNU Toolchain arm-none-eabi/14.3 rel1/arm-none-eabi/include/ma
 304              		.file 4 "C:/Program Files (x86)/Arm GNU Toolchain arm-none-eabi/14.3 rel1/arm-none-eabi/include/sy
 305              		.file 5 "ChibiOS/os/common/ports/ARMCMx/compilers/GCC/chtypes.h"
 306              		.file 6 "ChibiOS/os/hal/lib/streams/memstreams.h"
 307              		.file 7 "C:/Program Files (x86)/Arm GNU Toolchain arm-none-eabi/14.3 rel1/arm-none-eabi/include/st
 308              		.file 8 "<built-in>"