ARM GAS  C:\msys64\tmp\cce3pWuj.s 			page 1


   1              		.cpu cortex-m4
   2              		.arch armv7e-m
   3              		.fpu fpv4-sp-d16
   4              		.eabi_attribute 27, 1
   5              		.eabi_attribute 28, 1
   6              		.eabi_attribute 23, 1
   7              		.eabi_attribute 24, 1
   8              		.eabi_attribute 25, 1
   9              		.eabi_attribute 26, 1
  10              		.eabi_attribute 30, 2
  11              		.eabi_attribute 34, 1
  12              		.eabi_attribute 18, 4
  13              		.file	"nullstreams.c"
  14              		.text
  15              	.Ltext0:
  16              		.cfi_sections	.debug_frame
  17              		.file 1 "ChibiOS/os/hal/lib/streams/nullstreams.c"
  18              		.section	.text.writes,"ax",%progbits
  19              		.align	1
  20              		.p2align 4,,15
  21              		.syntax unified
  22              		.thumb
  23              		.thumb_func
  24              		.type	writes, %function
  25              	writes:
  26              	.LVL0:
  27              	.LFB233:
  28              		.loc 1 44 61 view -0
  29              		.cfi_startproc
  30              		@ args = 0, pretend = 0, frame = 0
  31              		@ frame_needed = 0, uses_anonymous_args = 0
  32              		@ link register save eliminated.
  33              		.loc 1 46 3 view .LVU1
  34              		.loc 1 47 3 view .LVU2
  35              		.loc 1 49 3 view .LVU3
  36              		.loc 1 50 1 is_stmt 0 view .LVU4
  37 0000 1046     		mov	r0, r2
  38              	.LVL1:
  39              		.loc 1 50 1 view .LVU5
  40 0002 7047     		bx	lr
  41              		.cfi_endproc
  42              	.LFE233:
  43              		.size	writes, .-writes
  44              		.section	.text.reads,"ax",%progbits
  45              		.align	1
  46              		.p2align 4,,15
  47              		.syntax unified
  48              		.thumb
  49              		.thumb_func
  50              		.type	reads, %function
  51              	reads:
  52              	.LVL2:
  53              	.LFB234:
  54              		.loc 1 52 54 is_stmt 1 view -0
  55              		.cfi_startproc
  56              		@ args = 0, pretend = 0, frame = 0
  57              		@ frame_needed = 0, uses_anonymous_args = 0
ARM GAS  C:\msys64\tmp\cce3pWuj.s 			page 2


  58              		@ link register save eliminated.
  59              		.loc 1 54 3 view .LVU7
  60              		.loc 1 55 3 view .LVU8
  61              		.loc 1 56 3 view .LVU9
  62              		.loc 1 58 3 view .LVU10
  63              		.loc 1 59 1 is_stmt 0 view .LVU11
  64 0000 0020     		movs	r0, #0
  65              	.LVL3:
  66              		.loc 1 59 1 view .LVU12
  67 0002 7047     		bx	lr
  68              		.cfi_endproc
  69              	.LFE234:
  70              		.size	reads, .-reads
  71              		.section	.text.put,"ax",%progbits
  72              		.align	1
  73              		.p2align 4,,15
  74              		.syntax unified
  75              		.thumb
  76              		.thumb_func
  77              		.type	put, %function
  78              	put:
  79              	.LVL4:
  80              	.LFB235:
  81              		.loc 1 61 39 is_stmt 1 view -0
  82              		.cfi_startproc
  83              		@ args = 0, pretend = 0, frame = 0
  84              		@ frame_needed = 0, uses_anonymous_args = 0
  85              		@ link register save eliminated.
  86              		.loc 1 63 3 view .LVU14
  87              		.loc 1 64 3 view .LVU15
  88              		.loc 1 66 3 view .LVU16
  89              		.loc 1 67 1 is_stmt 0 view .LVU17
  90 0000 0020     		movs	r0, #0
  91              	.LVL5:
  92              		.loc 1 67 1 view .LVU18
  93 0002 7047     		bx	lr
  94              		.cfi_endproc
  95              	.LFE235:
  96              		.size	put, .-put
  97              		.section	.text.get,"ax",%progbits
  98              		.align	1
  99              		.p2align 4,,15
 100              		.syntax unified
 101              		.thumb
 102              		.thumb_func
 103              		.type	get, %function
 104              	get:
 105              	.LVL6:
 106              	.LFB236:
 107              		.loc 1 69 28 is_stmt 1 view -0
 108              		.cfi_startproc
 109              		@ args = 0, pretend = 0, frame = 0
 110              		@ frame_needed = 0, uses_anonymous_args = 0
 111              		@ link register save eliminated.
 112              		.loc 1 71 3 view .LVU20
 113              		.loc 1 73 3 view .LVU21
 114              		.loc 1 74 1 is_stmt 0 view .LVU22
ARM GAS  C:\msys64\tmp\cce3pWuj.s 			page 3


 115 0000 0420     		movs	r0, #4
 116              	.LVL7:
 117              		.loc 1 74 1 view .LVU23
 118 0002 7047     		bx	lr
 119              		.cfi_endproc
 120              	.LFE236:
 121              		.size	get, .-get
 122              		.section	.text.nullObjectInit,"ax",%progbits
 123              		.align	1
 124              		.p2align 4,,15
 125              		.global	nullObjectInit
 126              		.syntax unified
 127              		.thumb
 128              		.thumb_func
 129              		.type	nullObjectInit, %function
 130              	nullObjectInit:
 131              	.LVL8:
 132              	.LFB237:
 133              		.loc 1 87 38 is_stmt 1 view -0
 134              		.cfi_startproc
 135              		@ args = 0, pretend = 0, frame = 0
 136              		@ frame_needed = 0, uses_anonymous_args = 0
 137              		@ link register save eliminated.
 138              		.loc 1 89 3 view .LVU25
 139              		.loc 1 89 12 is_stmt 0 view .LVU26
 140 0000 014B     		ldr	r3, .L7
 141 0002 0360     		str	r3, [r0]
 142              		.loc 1 90 1 view .LVU27
 143 0004 7047     		bx	lr
 144              	.L8:
 145 0006 00BF     		.align	2
 146              	.L7:
 147 0008 00000000 		.word	vmt
 148              		.cfi_endproc
 149              	.LFE237:
 150              		.size	nullObjectInit, .-nullObjectInit
 151              		.section	.rodata.vmt,"a"
 152              		.align	2
 153              		.type	vmt, %object
 154              		.size	vmt, 16
 155              	vmt:
 156 0000 00000000 		.word	writes
 157 0004 00000000 		.word	reads
 158 0008 00000000 		.word	put
 159 000c 00000000 		.word	get
 160              		.text
 161              	.Letext0:
 162              		.file 2 "C:/Program Files (x86)/Arm GNU Toolchain arm-none-eabi/14.3 rel1/lib/gcc/arm-none-eabi/14
 163              		.file 3 "C:/Program Files (x86)/Arm GNU Toolchain arm-none-eabi/14.3 rel1/arm-none-eabi/include/ma
 164              		.file 4 "C:/Program Files (x86)/Arm GNU Toolchain arm-none-eabi/14.3 rel1/arm-none-eabi/include/sy
 165              		.file 5 "ChibiOS/os/common/ports/ARMCMx/compilers/GCC/chtypes.h"
 166              		.file 6 "ChibiOS/os/hal/lib/streams/nullstreams.h"