ARM GAS  C:\msys64\tmp\ccHL4dtZ.s 			page 1


   1              		.cpu cortex-m4
   2              		.arch armv7e-m
   3              		.fpu fpv4-sp-d16
   4              		.eabi_attribute 27, 1
   5              		.eabi_attribute 28, 1
   6              		.eabi_attribute 23, 1
   7              		.eabi_attribute 24, 1
   8              		.eabi_attribute 25, 1
   9              		.eabi_attribute 26, 1
  10              		.eabi_attribute 30, 2
  11              		.eabi_attribute 34, 1
  12              		.eabi_attribute 18, 4
  13              		.file	"nvic.c"
  14              		.text
  15              	.Ltext0:
  16              		.cfi_sections	.debug_frame
  17              		.file 1 "ChibiOS/os/hal/ports/common/ARMCMx/nvic.c"
  18              		.section	.text.nvicEnableVector,"ax",%progbits
  19              		.align	1
  20              		.p2align 4,,15
  21              		.global	nvicEnableVector
  22              		.syntax unified
  23              		.thumb
  24              		.thumb_func
  25              		.type	nvicEnableVector, %function
  26              	nvicEnableVector:
  27              	.LVL0:
  28              	.LFB233:
  29              		.loc 1 57 50 view -0
  30              		.cfi_startproc
  31              		@ args = 0, pretend = 0, frame = 0
  32              		@ frame_needed = 0, uses_anonymous_args = 0
  33              		@ link register save eliminated.
  34              		.loc 1 63 3 view .LVU1
  35              		.loc 1 65 16 is_stmt 0 view .LVU2
  36 0000 4309     		lsrs	r3, r0, #5
  37 0002 9B00     		lsls	r3, r3, #2
  38              		.loc 1 63 15 view .LVU3
  39 0004 00F1604C 		add	ip, r0, #-536870912
  40 0008 03F16043 		add	r3, r3, #-536870912
  41 000c 03F56143 		add	r3, r3, #57600
  42              		.loc 1 63 17 view .LVU4
  43 0010 0901     		lsls	r1, r1, #4
  44              	.LVL1:
  45              		.loc 1 63 15 view .LVU5
  46 0012 0CF5614C 		add	ip, ip, #57600
  47              		.loc 1 65 34 view .LVU6
  48 0016 00F01F00 		and	r0, r0, #31
  49              	.LVL2:
  50              		.loc 1 65 28 view .LVU7
  51 001a 0122     		movs	r2, #1
  52 001c 8240     		lsls	r2, r2, r0
  53              		.loc 1 63 17 view .LVU8
  54 001e C9B2     		uxtb	r1, r1
  55              		.loc 1 63 15 view .LVU9
  56 0020 8CF80013 		strb	r1, [ip, #768]
  57              		.loc 1 65 3 is_stmt 1 view .LVU10
ARM GAS  C:\msys64\tmp\ccHL4dtZ.s 			page 2


  58              		.loc 1 65 23 is_stmt 0 view .LVU11
  59 0024 C3F88021 		str	r2, [r3, #384]
  60              		.loc 1 66 3 is_stmt 1 view .LVU12
  61              		.loc 1 66 23 is_stmt 0 view .LVU13
  62 0028 1A60     		str	r2, [r3]
  63              		.loc 1 67 1 view .LVU14
  64 002a 7047     		bx	lr
  65              		.cfi_endproc
  66              	.LFE233:
  67              		.size	nvicEnableVector, .-nvicEnableVector
  68              		.section	.text.nvicDisableVector,"ax",%progbits
  69              		.align	1
  70              		.p2align 4,,15
  71              		.global	nvicDisableVector
  72              		.syntax unified
  73              		.thumb
  74              		.thumb_func
  75              		.type	nvicDisableVector, %function
  76              	nvicDisableVector:
  77              	.LVL3:
  78              	.LFB234:
  79              		.loc 1 74 36 is_stmt 1 view -0
  80              		.cfi_startproc
  81              		@ args = 0, pretend = 0, frame = 0
  82              		@ frame_needed = 0, uses_anonymous_args = 0
  83              		@ link register save eliminated.
  84              		.loc 1 76 3 view .LVU16
  85              		.loc 1 76 23 is_stmt 0 view .LVU17
  86 0000 0749     		ldr	r1, .L4
  87              		.loc 1 76 16 view .LVU18
  88 0002 4309     		lsrs	r3, r0, #5
  89              		.loc 1 76 34 view .LVU19
  90 0004 00F01F0C 		and	ip, r0, #31
  91              		.loc 1 76 28 view .LVU20
  92 0008 0122     		movs	r2, #1
  93              		.loc 1 76 23 view .LVU21
  94 000a 2033     		adds	r3, r3, #32
  95              		.loc 1 80 15 view .LVU22
  96 000c 0844     		add	r0, r0, r1
  97              	.LVL4:
  98              		.loc 1 76 28 view .LVU23
  99 000e 02FA0CF2 		lsl	r2, r2, ip
 100              		.loc 1 80 15 view .LVU24
 101 0012 4FF0000C 		mov	ip, #0
 102              		.loc 1 76 23 view .LVU25
 103 0016 41F82320 		str	r2, [r1, r3, lsl #2]
 104              		.loc 1 80 3 is_stmt 1 view .LVU26
 105              		.loc 1 80 15 is_stmt 0 view .LVU27
 106 001a 80F800C3 		strb	ip, [r0, #768]
 107              		.loc 1 82 1 view .LVU28
 108 001e 7047     		bx	lr
 109              	.L5:
 110              		.align	2
 111              	.L4:
 112 0020 00E100E0 		.word	-536813312
 113              		.cfi_endproc
 114              	.LFE234:
ARM GAS  C:\msys64\tmp\ccHL4dtZ.s 			page 3


 115              		.size	nvicDisableVector, .-nvicDisableVector
 116              		.section	.text.nvicSetSystemHandlerPriority,"ax",%progbits
 117              		.align	1
 118              		.p2align 4,,15
 119              		.global	nvicSetSystemHandlerPriority
 120              		.syntax unified
 121              		.thumb
 122              		.thumb_func
 123              		.type	nvicSetSystemHandlerPriority, %function
 124              	nvicSetSystemHandlerPriority:
 125              	.LVL5:
 126              	.LFB235:
 127              		.loc 1 90 68 is_stmt 1 view -0
 128              		.cfi_startproc
 129              		@ args = 0, pretend = 0, frame = 0
 130              		@ frame_needed = 0, uses_anonymous_args = 0
 131              		@ link register save eliminated.
 132              		.loc 1 92 3 view .LVU30
 133              		.loc 1 92 3 view .LVU31
 134              		.loc 1 92 3 view .LVU32
 135              		.loc 1 100 3 view .LVU33
 136              		.loc 1 100 21 is_stmt 0 view .LVU34
 137 0000 00F16040 		add	r0, r0, #-536870912
 138              	.LVL6:
 139              		.loc 1 100 23 view .LVU35
 140 0004 0901     		lsls	r1, r1, #4
 141              	.LVL7:
 142              		.loc 1 100 21 view .LVU36
 143 0006 00F56D40 		add	r0, r0, #60672
 144              	.LVL8:
 145              		.loc 1 100 23 view .LVU37
 146 000a C9B2     		uxtb	r1, r1
 147              		.loc 1 100 21 view .LVU38
 148 000c 0176     		strb	r1, [r0, #24]
 149              		.loc 1 102 1 view .LVU39
 150 000e 7047     		bx	lr
 151              		.cfi_endproc
 152              	.LFE235:
 153              		.size	nvicSetSystemHandlerPriority, .-nvicSetSystemHandlerPriority
 154              		.section	.text.nvicClearPending,"ax",%progbits
 155              		.align	1
 156              		.p2align 4,,15
 157              		.global	nvicClearPending
 158              		.syntax unified
 159              		.thumb
 160              		.thumb_func
 161              		.type	nvicClearPending, %function
 162              	nvicClearPending:
 163              	.LVL9:
 164              	.LFB236:
 165              		.loc 1 109 35 is_stmt 1 view -0
 166              		.cfi_startproc
 167              		@ args = 0, pretend = 0, frame = 0
 168              		@ frame_needed = 0, uses_anonymous_args = 0
 169              		@ link register save eliminated.
 170              		.loc 1 111 3 view .LVU41
 171              		.loc 1 111 16 is_stmt 0 view .LVU42
ARM GAS  C:\msys64\tmp\ccHL4dtZ.s 			page 4


 172 0000 4309     		lsrs	r3, r0, #5
 173              		.loc 1 111 22 view .LVU43
 174 0002 0449     		ldr	r1, .L8
 175              		.loc 1 111 32 view .LVU44
 176 0004 00F01F00 		and	r0, r0, #31
 177              	.LVL10:
 178              		.loc 1 111 26 view .LVU45
 179 0008 0122     		movs	r2, #1
 180              		.loc 1 111 22 view .LVU46
 181 000a 6033     		adds	r3, r3, #96
 182              		.loc 1 111 26 view .LVU47
 183 000c 8240     		lsls	r2, r2, r0
 184              		.loc 1 111 22 view .LVU48
 185 000e 41F82320 		str	r2, [r1, r3, lsl #2]
 186              		.loc 1 112 1 view .LVU49
 187 0012 7047     		bx	lr
 188              	.L9:
 189              		.align	2
 190              	.L8:
 191 0014 00E100E0 		.word	-536813312
 192              		.cfi_endproc
 193              	.LFE236:
 194              		.size	nvicClearPending, .-nvicClearPending
 195              		.text
 196              	.Letext0:
 197              		.file 2 "C:/Program Files (x86)/Arm GNU Toolchain arm-none-eabi/14.3 rel1/arm-none-eabi/include/ma
 198              		.file 3 "C:/Program Files (x86)/Arm GNU Toolchain arm-none-eabi/14.3 rel1/arm-none-eabi/include/sy
 199              		.file 4 "ChibiOS/os/common/ext/CMSIS/include/core_cm4.h"