ARM GAS  C:\msys64\tmp\ccGTf9yH.s 			page 1


   1              		.cpu cortex-m4
   2              		.arch armv7e-m
   3              		.fpu fpv4-sp-d16
   4              		.eabi_attribute 27, 1
   5              		.eabi_attribute 28, 1
   6              		.eabi_attribute 23, 1
   7              		.eabi_attribute 24, 1
   8              		.eabi_attribute 25, 1
   9              		.eabi_attribute 26, 1
  10              		.eabi_attribute 30, 2
  11              		.eabi_attribute 34, 1
  12              		.eabi_attribute 18, 4
  13              		.file	"plot.c"
  14              		.text
  15              	.Ltext0:
  16              		.cfi_sections	.debug_frame
  17              		.file 1 "plot.c"
  18              		.section	.text.smith_grid,"ax",%progbits
  19              		.align	1
  20              		.p2align 4,,15
  21              		.syntax unified
  22              		.thumb
  23              		.thumb_func
  24              		.type	smith_grid, %function
  25              	smith_grid:
  26              	.LVL0:
  27              	.LFB242:
  28              		.loc 1 166 1 view -0
  29              		.cfi_startproc
  30              		@ args = 0, pretend = 0, frame = 0
  31              		@ frame_needed = 0, uses_anonymous_args = 0
  32              		@ link register save eliminated.
  33              		.loc 1 167 3 view .LVU1
  34              		.loc 1 168 3 view .LVU2
  35              		.loc 1 168 27 is_stmt 0 view .LVU3
  36 0000 01FB01F3 		mul	r3, r1, r1
  37              		.loc 1 168 23 view .LVU4
  38 0004 00FB0033 		mla	r3, r0, r0, r3
  39              	.LVL1:
  40              		.loc 1 169 3 is_stmt 1 view .LVU5
  41              		.loc 1 170 3 view .LVU6
  42              		.loc 1 170 6 is_stmt 0 view .LVU7
  43 0008 45F6D822 		movw	r2, #23256
  44 000c 9342     		cmp	r3, r2
  45 000e 52DC     		bgt	.L12
  46              		.loc 1 172 3 is_stmt 1 view .LVU8
  47              		.loc 1 172 6 is_stmt 0 view .LVU9
  48 0010 45F6A812 		movw	r2, #22952
  49 0014 9342     		cmp	r3, r2
  50 0016 4CDC     		bgt	.L14
  51              		.loc 1 174 3 is_stmt 1 view .LVU10
  52              		.loc 1 174 6 is_stmt 0 view .LVU11
  53 0018 0029     		cmp	r1, #0
  54 001a 4AD0     		beq	.L14
  55              		.loc 1 176 3 is_stmt 1 view .LVU12
  56              	.LVL2:
  57              		.loc 1 178 3 view .LVU13
ARM GAS  C:\msys64\tmp\ccGTf9yH.s 			page 2


  58              		.loc 1 176 6 is_stmt 0 view .LVU14
  59 001c 0029     		cmp	r1, #0
  60 001e B8BF     		it	lt
  61 0020 4942     		rsblt	r1, r1, #0
  62              	.LVL3:
  63              		.loc 1 178 20 view .LVU15
  64 0022 4FF0980C 		mov	ip, #152
  65              		.loc 1 183 22 view .LVU16
  66 0026 4FF49872 		mov	r2, #304
  67              		.loc 1 179 6 view .LVU17
  68 002a 0028     		cmp	r0, #0
  69              		.loc 1 178 20 view .LVU18
  70 002c 0CFB01F1 		mul	r1, ip, r1
  71              	.LVL4:
  72              		.loc 1 179 3 is_stmt 1 view .LVU19
  73              		.loc 1 183 14 is_stmt 0 view .LVU20
  74 0030 02FB1032 		mls	r2, r2, r0, r3
  75              		.loc 1 179 6 view .LVU21
  76 0034 2ADB     		blt	.L3
  77              		.loc 1 181 5 is_stmt 1 view .LVU22
  78              		.loc 1 181 8 is_stmt 0 view .LVU23
  79 0036 4B28     		cmp	r0, #75
  80 0038 15DD     		ble	.L4
  81              		.loc 1 183 7 is_stmt 1 view .LVU24
  82              	.LVL5:
  83              		.loc 1 184 7 view .LVU25
  84              		.loc 1 183 40 is_stmt 0 view .LVU26
  85 003a C1F5B54C 		rsb	ip, r1, #23168
  86 003e 0CF10C0C 		add	ip, ip, #12
  87 0042 9444     		add	ip, ip, r2
  88              		.loc 1 184 10 view .LVU27
  89 0044 BCF1980F 		cmp	ip, #152
  90 0048 33D9     		bls	.L14
  91              		.loc 1 186 7 is_stmt 1 view .LVU28
  92              		.loc 1 186 28 is_stmt 0 view .LVU29
  93 004a 4FF0E40C 		mov	ip, #228
  94              		.loc 1 186 14 view .LVU30
  95 004e 0CFB103C 		mls	ip, ip, r0, r3
  96              		.loc 1 186 44 view .LVU31
  97 0052 0CF5355C 		add	ip, ip, #11584
  98 0056 0CF1060C 		add	ip, ip, #6
  99              	.LVL6:
 100              		.loc 1 187 7 is_stmt 1 view .LVU32
 101              		.loc 1 187 10 is_stmt 0 view .LVU33
 102 005a BCF1000F 		cmp	ip, #0
 103 005e 2ADB     		blt	.L12
 104              		.loc 1 189 7 is_stmt 1 view .LVU34
 105              		.loc 1 189 10 is_stmt 0 view .LVU35
 106 0060 BCF14C0F 		cmp	ip, #76
 107 0064 25DD     		ble	.L14
 108              	.LVL7:
 109              	.L4:
 110              		.loc 1 192 5 is_stmt 1 view .LVU36
 111              		.loc 1 193 5 view .LVU37
 112              		.loc 1 192 42 is_stmt 0 view .LVU38
 113 0066 A2EB410C 		sub	ip, r2, r1, lsl #1
 114 006a 0CF5B54C 		add	ip, ip, #23168
ARM GAS  C:\msys64\tmp\ccGTf9yH.s 			page 3


 115 006e 0CF1580C 		add	ip, ip, #88
 116              		.loc 1 193 8 view .LVU39
 117 0072 BCF5987F 		cmp	ip, #304
 118 0076 1CD9     		bls	.L14
 119              		.loc 1 195 5 is_stmt 1 view .LVU40
 120              		.loc 1 195 16 is_stmt 0 view .LVU41
 121 0078 4FF0980C 		mov	ip, #152
 122              		.loc 1 195 12 view .LVU42
 123 007c 0CFB103C 		mls	ip, ip, r0, r3
 124              	.LVL8:
 125              		.loc 1 196 5 is_stmt 1 view .LVU43
 126              		.loc 1 196 8 is_stmt 0 view .LVU44
 127 0080 1CF14C0C 		adds	ip, ip, #76
 128              	.LVL9:
 129              		.loc 1 196 8 view .LVU45
 130 0084 17D4     		bmi	.L12
 131              		.loc 1 198 5 is_stmt 1 view .LVU46
 132              		.loc 1 198 8 is_stmt 0 view .LVU47
 133 0086 BCF1980F 		cmp	ip, #152
 134 008a 12DD     		ble	.L14
 135              	.LVL10:
 136              	.L3:
 137              		.loc 1 201 3 is_stmt 1 view .LVU48
 138              		.loc 1 202 3 view .LVU49
 139              		.loc 1 201 40 is_stmt 0 view .LVU50
 140 008c A2EB8102 		sub	r2, r2, r1, lsl #2
 141              	.LVL11:
 142              		.loc 1 201 40 view .LVU51
 143 0090 02F5B642 		add	r2, r2, #23296
 144 0094 7032     		adds	r2, r2, #112
 145              		.loc 1 202 6 view .LVU52
 146 0096 B2F5187F 		cmp	r2, #608
 147 009a 0AD9     		bls	.L14
 148              		.loc 1 204 3 is_stmt 1 view .LVU53
 149              	.LVL12:
 150              		.loc 1 205 3 view .LVU54
 151              		.loc 1 204 14 is_stmt 0 view .LVU55
 152 009c 4C22     		movs	r2, #76
 153              		.loc 1 204 10 view .LVU56
 154 009e 02FB1030 		mls	r0, r2, r0, r3
 155              	.LVL13:
 156              		.loc 1 204 36 view .LVU57
 157 00a2 A0F53250 		sub	r0, r0, #11392
 158 00a6 2E38     		subs	r0, r0, #46
 159              		.loc 1 205 6 view .LVU58
 160 00a8 E428     		cmp	r0, #228
 161 00aa 8CBF     		ite	hi
 162 00ac 0020     		movhi	r0, #0
 163 00ae 0120     		movls	r0, #1
 164 00b0 7047     		bx	lr
 165              	.LVL14:
 166              	.L14:
 167              		.loc 1 173 12 view .LVU59
 168 00b2 0120     		movs	r0, #1
 169              	.LVL15:
 170              		.loc 1 208 1 view .LVU60
 171 00b4 7047     		bx	lr
ARM GAS  C:\msys64\tmp\ccGTf9yH.s 			page 4


 172              	.LVL16:
 173              	.L12:
 174              		.loc 1 171 12 view .LVU61
 175 00b6 0020     		movs	r0, #0
 176              	.LVL17:
 177              		.loc 1 171 12 view .LVU62
 178 00b8 7047     		bx	lr
 179              		.cfi_endproc
 180              	.LFE242:
 181              		.size	smith_grid, .-smith_grid
 182 00ba 00BF     		.section	.text.cell_blit_bitmap,"ax",%progbits
 183              		.align	1
 184              		.p2align 4,,15
 185              		.syntax unified
 186              		.thumb
 187              		.thumb_func
 188              		.type	cell_blit_bitmap, %function
 189              	cell_blit_bitmap:
 190              	.LVL18:
 191              	.LFB249:
 192              		.loc 1 373 1 is_stmt 1 view -0
 193              		.cfi_startproc
 194              		@ args = 4, pretend = 0, frame = 0
 195              		@ frame_needed = 0, uses_anonymous_args = 0
 196              		.loc 1 373 1 is_stmt 0 view .LVU64
 197 0000 2DE9F041 		push	{r4, r5, r6, r7, r8, lr}
 198              		.cfi_def_cfa_offset 24
 199              		.cfi_offset 4, -24
 200              		.cfi_offset 5, -20
 201              		.cfi_offset 6, -16
 202              		.cfi_offset 7, -12
 203              		.cfi_offset 8, -8
 204              		.cfi_offset 14, -4
 205              		.loc 1 373 1 view .LVU65
 206 0004 0646     		mov	r6, r0
 207              		.loc 1 374 3 is_stmt 1 view .LVU66
 208              		.loc 1 375 3 view .LVU67
 209              		.loc 1 373 1 is_stmt 0 view .LVU68
 210 0006 1046     		mov	r0, r2
 211              	.LVL19:
 212              		.loc 1 375 15 view .LVU69
 213 0008 8419     		adds	r4, r0, r6
 214              		.loc 1 375 6 view .LVU70
 215 000a 2404     		lsls	r4, r4, #16
 216              		.loc 1 373 1 view .LVU71
 217 000c 069A     		ldr	r2, [sp, #24]
 218              	.LVL20:
 219              		.loc 1 375 6 view .LVU72
 220 000e 39D4     		bmi	.L16
 221              		.loc 1 375 35 discriminator 1 view .LVU73
 222 0010 0B44     		add	r3, r3, r1
 223              	.LVL21:
 224              		.loc 1 375 31 discriminator 1 view .LVU74
 225 0012 1BB2     		sxth	r3, r3
 226              	.LVL22:
 227              		.loc 1 375 24 discriminator 1 view .LVU75
 228 0014 002B     		cmp	r3, #0
ARM GAS  C:\msys64\tmp\ccGTf9yH.s 			page 5


 229 0016 35DB     		blt	.L16
 230              		.loc 1 377 3 is_stmt 1 view .LVU76
 231              		.loc 1 377 6 is_stmt 0 view .LVU77
 232 0018 202B     		cmp	r3, #32
 233 001a A8BF     		it	ge
 234 001c 2023     		movge	r3, #32
 235              	.LVL23:
 236              		.loc 1 379 3 is_stmt 1 view .LVU78
 237              		.loc 1 379 6 is_stmt 0 view .LVU79
 238 001e 0029     		cmp	r1, #0
 239 0020 32DB     		blt	.L25
 240              	.LVL24:
 241              	.LBB65:
 242              		.loc 1 384 28 is_stmt 1 discriminator 1 view .LVU80
 243 0022 9942     		cmp	r1, r3
 244 0024 2EDA     		bge	.L16
 245              	.LVL25:
 246              	.L26:
 247              		.loc 1 384 28 is_stmt 0 discriminator 1 view .LVU81
 248 0026 5B1A     		subs	r3, r3, r1
 249              	.LVL26:
 250              		.loc 1 384 28 discriminator 1 view .LVU82
 251 0028 11FA83F7 		uxtah	r7, r1, r3
 252              	.LBB66:
 253              		.loc 1 394 18 view .LVU83
 254 002c 1A4B     		ldr	r3, .L27
 255              		.loc 1 394 42 view .LVU84
 256 002e DFF86C80 		ldr	r8, .L27+4
 257 0032 1C68     		ldr	r4, [r3]
 258 0034 06EB4115 		add	r5, r6, r1, lsl #5
 259 0038 06EB4717 		add	r7, r6, r7, lsl #5
 260 003c 04EB4504 		add	r4, r4, r5, lsl #1
 261              	.LBE66:
 262              	.LBE65:
 263              		.loc 1 381 20 view .LVU85
 264 0040 0021     		movs	r1, #0
 265              	.LVL27:
 266              	.L19:
 267              	.LBB69:
 268              	.LBB67:
 269              		.loc 1 386 23 is_stmt 1 discriminator 1 view .LVU86
 270              	.LBE67:
 271              	.LBE69:
 272              		.loc 1 382 7 is_stmt 0 view .LVU87
 273 0042 B446     		mov	ip, r6
 274              	.LBB70:
 275              	.LBB68:
 276              		.loc 1 386 14 view .LVU88
 277 0044 0023     		movs	r3, #0
 278              	.LVL28:
 279              	.L22:
 280              		.loc 1 388 7 is_stmt 1 view .LVU89
 281              		.loc 1 389 9 view .LVU90
 282              		.loc 1 392 7 view .LVU91
 283              		.loc 1 386 31 discriminator 2 view .LVU92
 284              		.loc 1 389 20 is_stmt 0 view .LVU93
 285 0046 9646     		mov	lr, r2
ARM GAS  C:\msys64\tmp\ccGTf9yH.s 			page 6


 286              	.LVL29:
 287              		.loc 1 388 10 view .LVU94
 288 0048 13F0070F 		tst	r3, #7
 289              		.loc 1 389 14 view .LVU95
 290 004c 04BF     		itt	eq
 291 004e 1EF8011B 		ldrbeq	r1, [lr], #1	@ zero_extendqisi2
 292              		.loc 1 389 20 view .LVU96
 293 0052 7246     		moveq	r2, lr
 294              	.LVL30:
 295              		.loc 1 390 7 is_stmt 1 view .LVU97
 296              		.loc 1 386 38 is_stmt 0 discriminator 2 view .LVU98
 297 0054 4FEA410E 		lsl	lr, r1, #1
 298              		.loc 1 390 10 view .LVU99
 299 0058 11F0800F 		tst	r1, #128
 300              		.loc 1 386 38 discriminator 2 view .LVU100
 301 005c 5FFA8EF1 		uxtb	r1, lr
 302              		.loc 1 390 10 view .LVU101
 303 0060 06D0     		beq	.L21
 304              		.loc 1 394 7 is_stmt 1 view .LVU102
 305              		.loc 1 392 10 is_stmt 0 view .LVU103
 306 0062 BCF11F0F 		cmp	ip, #31
 307              		.loc 1 394 42 view .LVU104
 308 0066 9CBF     		itt	ls
 309 0068 B8F800E0 		ldrhls	lr, [r8]
 310 006c 24F813E0 		strhls	lr, [r4, r3, lsl #1]	@ movhi
 311              	.L21:
 312              		.loc 1 386 29 discriminator 2 view .LVU105
 313 0070 0133     		adds	r3, r3, #1
 314              	.LVL31:
 315              		.loc 1 386 23 is_stmt 1 discriminator 1 view .LVU106
 316 0072 8342     		cmp	r3, r0
 317 0074 0CF1010C 		add	ip, ip, #1
 318 0078 E5D1     		bne	.L22
 319              	.LBE68:
 320              		.loc 1 384 35 discriminator 2 view .LVU107
 321              		.loc 1 384 28 discriminator 1 view .LVU108
 322 007a 2035     		adds	r5, r5, #32
 323              		.loc 1 384 28 is_stmt 0 discriminator 1 view .LVU109
 324 007c BD42     		cmp	r5, r7
 325 007e 04F14004 		add	r4, r4, #64
 326 0082 DED1     		bne	.L19
 327              	.LVL32:
 328              	.L16:
 329              		.loc 1 384 28 discriminator 1 view .LVU110
 330              	.LBE70:
 331              		.loc 1 397 1 view .LVU111
 332 0084 BDE8F081 		pop	{r4, r5, r6, r7, r8, pc}
 333              	.LVL33:
 334              	.L25:
 335              		.loc 1 381 5 is_stmt 1 view .LVU112
 336              		.loc 1 381 20 is_stmt 0 view .LVU113
 337 0088 C41D     		adds	r4, r0, #7
 338              		.loc 1 381 25 view .LVU114
 339 008a E410     		asrs	r4, r4, #3
 340              		.loc 1 381 9 view .LVU115
 341 008c 04FB1122 		mls	r2, r4, r1, r2
 342              	.LVL34:
ARM GAS  C:\msys64\tmp\ccGTf9yH.s 			page 7


 343              		.loc 1 382 5 is_stmt 1 view .LVU116
 344              		.loc 1 382 7 is_stmt 0 view .LVU117
 345 0090 0021     		movs	r1, #0
 346              	.LVL35:
 347              	.LBB71:
 348              		.loc 1 384 28 is_stmt 1 discriminator 1 view .LVU118
 349 0092 9942     		cmp	r1, r3
 350 0094 C7DB     		blt	.L26
 351 0096 F5E7     		b	.L16
 352              	.L28:
 353              		.align	2
 354              	.L27:
 355 0098 00000000 		.word	cell_buffer
 356 009c 00000000 		.word	foreground_color
 357              	.LBE71:
 358              		.cfi_endproc
 359              	.LFE249:
 360              		.size	cell_blit_bitmap, .-cell_blit_bitmap
 361              		.section	.text.mark_line,"ax",%progbits
 362              		.align	1
 363              		.p2align 4,,15
 364              		.syntax unified
 365              		.thumb
 366              		.thumb_func
 367              		.type	mark_line, %function
 368              	mark_line:
 369              	.LVL36:
 370              	.LFB254:
 371              		.loc 1 516 1 view -0
 372              		.cfi_startproc
 373              		@ args = 0, pretend = 0, frame = 0
 374              		@ frame_needed = 0, uses_anonymous_args = 0
 375              		@ link register save eliminated.
 376              		.loc 1 517 3 view .LVU120
 377              		.loc 1 517 6 is_stmt 0 view .LVU121
 378 0000 4009     		lsrs	r0, r0, #5
 379              	.LVL37:
 380              		.loc 1 518 3 is_stmt 1 view .LVU122
 381              		.loc 1 518 6 is_stmt 0 view .LVU123
 382 0002 5209     		lsrs	r2, r2, #5
 383              	.LVL38:
 384              		.loc 1 519 3 is_stmt 1 view .LVU124
 385              		.loc 1 521 6 is_stmt 0 view .LVU125
 386 0004 9042     		cmp	r0, r2
 387              		.loc 1 519 6 view .LVU126
 388 0006 4FEA5111 		lsr	r1, r1, #5
 389              	.LVL39:
 390              		.loc 1 520 3 is_stmt 1 view .LVU127
 391              		.loc 1 520 6 is_stmt 0 view .LVU128
 392 000a 4FEA5313 		lsr	r3, r3, #5
 393              	.LVL40:
 394              		.loc 1 521 3 is_stmt 1 view .LVU129
 395              		.loc 1 521 6 is_stmt 0 view .LVU130
 396 000e 20D0     		beq	.L37
 397              		.loc 1 526 3 is_stmt 1 view .LVU131
 398              		.loc 1 526 6 is_stmt 0 view .LVU132
 399 0010 2BD9     		bls	.L38
ARM GAS  C:\msys64\tmp\ccGTf9yH.s 			page 8


 400              	.LVL41:
 401              	.L31:
 402              		.loc 1 527 27 is_stmt 1 view .LVU133
 403              		.loc 1 528 3 view .LVU134
 404              		.loc 1 528 30 is_stmt 0 view .LVU135
 405 0012 801A     		subs	r0, r0, r2
 406              	.LVL42:
 407              		.loc 1 528 35 view .LVU136
 408 0014 00F1010C 		add	ip, r0, #1
 409              		.loc 1 528 23 view .LVU137
 410 0018 0120     		movs	r0, #1
 411 001a 00FA0CF0 		lsl	r0, r0, ip
 412              		.loc 1 528 41 view .LVU138
 413 001e 0138     		subs	r0, r0, #1
 414              		.loc 1 529 6 view .LVU139
 415 0020 9942     		cmp	r1, r3
 416              		.loc 1 528 46 view .LVU140
 417 0022 00FA02F0 		lsl	r0, r0, r2
 418              	.LVL43:
 419              		.loc 1 529 3 is_stmt 1 view .LVU141
 420              		.loc 1 529 6 is_stmt 0 view .LVU142
 421 0026 10D9     		bls	.L39
 422              	.LVL44:
 423              	.L33:
 424              		.loc 1 531 13 is_stmt 1 discriminator 1 view .LVU143
 425              		.loc 1 531 13 is_stmt 0 discriminator 1 view .LVU144
 426 0028 124A     		ldr	r2, .L40
 427 002a C91A     		subs	r1, r1, r3
 428              	.LVL45:
 429              		.loc 1 531 13 discriminator 1 view .LVU145
 430 002c 13FA81FC 		uxtah	ip, r3, r1
 431              		.loc 1 532 17 view .LVU146
 432 0030 81B2     		uxth	r1, r0
 433 0032 901C     		adds	r0, r2, #2
 434              	.LVL46:
 435              		.loc 1 532 17 view .LVU147
 436 0034 02EB4303 		add	r3, r2, r3, lsl #1
 437              	.LVL47:
 438              		.loc 1 532 17 view .LVU148
 439 0038 00EB4C00 		add	r0, r0, ip, lsl #1
 440              	.LVL48:
 441              	.L34:
 442              		.loc 1 532 5 is_stmt 1 view .LVU149
 443              		.loc 1 532 12 is_stmt 0 view .LVU150
 444 003c 1A88     		ldrh	r2, [r3]
 445              		.loc 1 532 17 view .LVU151
 446 003e 0A43     		orrs	r2, r2, r1
 447 0040 23F8022B 		strh	r2, [r3], #2	@ movhi
 448              		.loc 1 531 22 is_stmt 1 discriminator 2 view .LVU152
 449              		.loc 1 531 13 discriminator 1 view .LVU153
 450 0044 9842     		cmp	r0, r3
 451 0046 F9D1     		bne	.L34
 452 0048 7047     		bx	lr
 453              	.LVL49:
 454              	.L39:
 455              		.loc 1 529 6 is_stmt 0 view .LVU154
 456 004a 1A46     		mov	r2, r3
ARM GAS  C:\msys64\tmp\ccGTf9yH.s 			page 9


 457              	.LVL50:
 458              		.loc 1 519 6 view .LVU155
 459 004c 0B46     		mov	r3, r1
 460              	.LVL51:
 461              		.loc 1 520 6 view .LVU156
 462 004e 1146     		mov	r1, r2
 463              	.LVL52:
 464              		.loc 1 520 6 view .LVU157
 465 0050 EAE7     		b	.L33
 466              	.LVL53:
 467              	.L37:
 468              		.loc 1 521 16 discriminator 1 view .LVU158
 469 0052 9942     		cmp	r1, r3
 470 0054 DDD1     		bne	.L31
 471              		.loc 1 523 5 is_stmt 1 view .LVU159
 472              		.loc 1 523 17 is_stmt 0 view .LVU160
 473 0056 074A     		ldr	r2, .L40
 474              	.LVL54:
 475              		.loc 1 523 22 view .LVU161
 476 0058 0123     		movs	r3, #1
 477              	.LVL55:
 478              		.loc 1 523 17 view .LVU162
 479 005a 32F811C0 		ldrh	ip, [r2, r1, lsl #1]
 480              		.loc 1 523 22 view .LVU163
 481 005e 8340     		lsls	r3, r3, r0
 482              		.loc 1 523 17 view .LVU164
 483 0060 43EA0C03 		orr	r3, r3, ip
 484 0064 22F81130 		strh	r3, [r2, r1, lsl #1]	@ movhi
 485              		.loc 1 524 5 is_stmt 1 view .LVU165
 486 0068 7047     		bx	lr
 487              	.LVL56:
 488              	.L38:
 489              		.loc 1 526 6 is_stmt 0 view .LVU166
 490 006a 9446     		mov	ip, r2
 491              		.loc 1 517 6 view .LVU167
 492 006c 0246     		mov	r2, r0
 493              	.LVL57:
 494              		.loc 1 518 6 view .LVU168
 495 006e 6046     		mov	r0, ip
 496              	.LVL58:
 497              		.loc 1 518 6 view .LVU169
 498 0070 CFE7     		b	.L31
 499              	.L41:
 500 0072 00BF     		.align	2
 501              	.L40:
 502 0074 00000000 		.word	markmap
 503              		.cfi_endproc
 504              	.LFE254:
 505              		.size	mark_line, .-mark_line
 506              		.section	.text.mark_set_index,"ax",%progbits
 507              		.align	1
 508              		.p2align 4,,15
 509              		.syntax unified
 510              		.thumb
 511              		.thumb_func
 512              		.type	mark_set_index, %function
 513              	mark_set_index:
ARM GAS  C:\msys64\tmp\ccGTf9yH.s 			page 10


 514              	.LVL59:
 515              	.LFB255:
 516              		.loc 1 536 1 is_stmt 1 view -0
 517              		.cfi_startproc
 518              		@ args = 0, pretend = 0, frame = 0
 519              		@ frame_needed = 0, uses_anonymous_args = 0
 520              		.loc 1 537 3 view .LVU171
 521              		.loc 1 538 3 view .LVU172
 522              		.loc 1 539 3 view .LVU173
 523              		.loc 1 536 1 is_stmt 0 view .LVU174
 524 0000 2DE9F047 		push	{r4, r5, r6, r7, r8, r9, r10, lr}
 525              		.cfi_def_cfa_offset 32
 526              		.cfi_offset 4, -32
 527              		.cfi_offset 5, -28
 528              		.cfi_offset 6, -24
 529              		.cfi_offset 7, -20
 530              		.cfi_offset 8, -16
 531              		.cfi_offset 9, -12
 532              		.cfi_offset 10, -8
 533              		.cfi_offset 14, -4
 534              		.loc 1 539 16 view .LVU175
 535 0004 DFF888E0 		ldr	lr, .L54
 536 0008 BEF800C0 		ldrh	ip, [lr]
 537              		.loc 1 536 1 view .LVU176
 538 000c 1646     		mov	r6, r2
 539              		.loc 1 540 15 view .LVU177
 540 000e 30F82120 		ldrh	r2, [r0, r1, lsl #2]
 541              	.LVL60:
 542              		.loc 1 539 16 view .LVU178
 543 0012 4FEA4C0C 		lsl	ip, ip, #1
 544 0016 1FFA8CFC 		uxth	ip, ip
 545              		.loc 1 540 6 view .LVU179
 546 001a B242     		cmp	r2, r6
 547              		.loc 1 536 1 view .LVU180
 548 001c 0C46     		mov	r4, r1
 549 001e 0546     		mov	r5, r0
 550 0020 1F46     		mov	r7, r3
 551              		.loc 1 539 8 view .LVU181
 552 0022 AEF800C0 		strh	ip, [lr]	@ movhi
 553              		.loc 1 540 3 is_stmt 1 view .LVU182
 554              		.loc 1 540 12 is_stmt 0 view .LVU183
 555 0026 4FEA8109 		lsl	r9, r1, #2
 556 002a 00EB8108 		add	r8, r0, r1, lsl #2
 557              		.loc 1 540 6 view .LVU184
 558 002e 10D0     		beq	.L53
 559              	.LVL61:
 560              	.L43:
 561              		.loc 1 541 5 is_stmt 1 view .LVU185
 562              		.loc 1 541 10 is_stmt 0 view .LVU186
 563 0030 4CF0010C 		orr	ip, ip, #1
 564 0034 AEF800C0 		strh	ip, [lr]	@ movhi
 565              		.loc 1 542 3 is_stmt 1 view .LVU187
 566              	.L45:
 567              		.loc 1 544 5 is_stmt 0 view .LVU188
 568 0038 DFF858A0 		ldr	r10, .L54+4
 569              		.loc 1 542 18 discriminator 1 view .LVU189
 570 003c 9CB9     		cbnz	r4, .L51
ARM GAS  C:\msys64\tmp\ccGTf9yH.s 			page 11


 571              	.LVL62:
 572              	.L46:
 573              		.loc 1 547 3 is_stmt 1 view .LVU190
 574              		.loc 1 547 14 is_stmt 0 view .LVU191
 575 003e 55F82430 		ldr	r3, [r5, r4, lsl #2]
 576 0042 CAF80030 		str	r3, [r10]
 577              		.loc 1 548 3 is_stmt 1 view .LVU192
 578              		.loc 1 548 14 is_stmt 0 view .LVU193
 579 0046 25F82460 		strh	r6, [r5, r4, lsl #2]	@ movhi
 580              		.loc 1 549 3 is_stmt 1 view .LVU194
 581              		.loc 1 549 14 is_stmt 0 view .LVU195
 582 004a A8F80270 		strh	r7, [r8, #2]	@ movhi
 583              		.loc 1 550 1 view .LVU196
 584 004e BDE8F087 		pop	{r4, r5, r6, r7, r8, r9, r10, pc}
 585              	.LVL63:
 586              	.L53:
 587              		.loc 1 540 23 discriminator 1 view .LVU197
 588 0052 B8F80230 		ldrh	r3, [r8, #2]
 589              	.LVL64:
 590              		.loc 1 540 23 discriminator 1 view .LVU198
 591 0056 BB42     		cmp	r3, r7
 592 0058 EAD1     		bne	.L43
 593              		.loc 1 542 3 is_stmt 1 view .LVU199
 594              		.loc 1 542 6 is_stmt 0 view .LVU200
 595 005a 1CF0020F 		tst	ip, #2
 596 005e EBD1     		bne	.L45
 597 0060 DFF830A0 		ldr	r10, .L54+4
 598 0064 EBE7     		b	.L46
 599              	.L51:
 600              		.loc 1 544 5 is_stmt 1 view .LVU201
 601 0066 B8F80230 		ldrh	r3, [r8, #2]
 602 006a BAF80210 		ldrh	r1, [r10, #2]
 603              	.LVL65:
 604              		.loc 1 544 5 is_stmt 0 view .LVU202
 605 006e BAF80000 		ldrh	r0, [r10]
 606              	.LVL66:
 607              		.loc 1 545 20 view .LVU203
 608 0072 A9F10409 		sub	r9, r9, #4
 609              		.loc 1 544 5 view .LVU204
 610 0076 FFF7FEFF 		bl	mark_line
 611              	.LVL67:
 612              		.loc 1 545 5 is_stmt 1 view .LVU205
 613              		.loc 1 545 20 is_stmt 0 view .LVU206
 614 007a 05EB0903 		add	r3, r5, r9
 615              		.loc 1 545 5 view .LVU207
 616 007e 35F80900 		ldrh	r0, [r5, r9]
 617 0082 5988     		ldrh	r1, [r3, #2]
 618 0084 3246     		mov	r2, r6
 619 0086 3B46     		mov	r3, r7
 620 0088 FFF7FEFF 		bl	mark_line
 621              	.LVL68:
 622 008c D7E7     		b	.L46
 623              	.L55:
 624 008e 00BF     		.align	2
 625              	.L54:
 626 0090 00000000 		.word	diff.2
 627 0094 00000000 		.word	last_erase.1
ARM GAS  C:\msys64\tmp\ccGTf9yH.s 			page 12


 628              		.cfi_endproc
 629              	.LFE255:
 630              		.size	mark_set_index, .-mark_set_index
 631              		.section	.text.invalidate_rect_func,"ax",%progbits
 632              		.align	1
 633              		.p2align 4,,15
 634              		.syntax unified
 635              		.thumb
 636              		.thumb_func
 637              		.type	invalidate_rect_func, %function
 638              	invalidate_rect_func:
 639              	.LVL69:
 640              	.LFB258:
 641              		.loc 1 577 1 is_stmt 1 view -0
 642              		.cfi_startproc
 643              		@ args = 0, pretend = 0, frame = 0
 644              		@ frame_needed = 0, uses_anonymous_args = 0
 645              		@ link register save eliminated.
 646              		.loc 1 578 3 view .LVU209
 647              		.loc 1 578 30 is_stmt 0 view .LVU210
 648 0000 121A     		subs	r2, r2, r0
 649              	.LVL70:
 650              		.loc 1 578 35 view .LVU211
 651 0002 0132     		adds	r2, r2, #1
 652              		.loc 1 578 23 view .LVU212
 653 0004 4FF0010C 		mov	ip, #1
 654 0008 0CFA02FC 		lsl	ip, ip, r2
 655              		.loc 1 578 41 view .LVU213
 656 000c 0CF1FF3C 		add	ip, ip, #-1
 657              		.loc 1 579 13 discriminator 1 view .LVU214
 658 0010 9942     		cmp	r1, r3
 659              		.loc 1 578 46 view .LVU215
 660 0012 0CFA00FC 		lsl	ip, ip, r0
 661              	.LVL71:
 662              		.loc 1 579 3 is_stmt 1 view .LVU216
 663              		.loc 1 579 13 discriminator 1 view .LVU217
 664 0016 0FDC     		bgt	.L56
 665 0018 084A     		ldr	r2, .L61
 666 001a 0133     		adds	r3, r3, #1
 667              	.LVL72:
 668              		.loc 1 579 13 is_stmt 0 discriminator 1 view .LVU218
 669 001c 02EB4102 		add	r2, r2, r1, lsl #1
 670              	.LVL73:
 671              	.L59:
 672              		.loc 1 580 5 is_stmt 1 view .LVU219
 673              		.loc 1 581 7 view .LVU220
 674              		.loc 1 579 22 view .LVU221
 675              		.loc 1 580 8 is_stmt 0 view .LVU222
 676 0020 0929     		cmp	r1, #9
 677              		.loc 1 579 22 view .LVU223
 678 0022 01F10101 		add	r1, r1, #1
 679              	.LVL74:
 680              		.loc 1 579 13 is_stmt 1 discriminator 1 view .LVU224
 681              		.loc 1 580 8 is_stmt 0 view .LVU225
 682 0026 03DC     		bgt	.L58
 683              		.loc 1 581 19 view .LVU226
 684 0028 1088     		ldrh	r0, [r2]
ARM GAS  C:\msys64\tmp\ccGTf9yH.s 			page 13


 685 002a 4CEA0000 		orr	r0, ip, r0
 686 002e 1080     		strh	r0, [r2]	@ movhi
 687              	.L58:
 688              		.loc 1 579 13 discriminator 1 view .LVU227
 689 0030 9942     		cmp	r1, r3
 690 0032 02F10202 		add	r2, r2, #2
 691 0036 F3D1     		bne	.L59
 692              	.LVL75:
 693              	.L56:
 694              		.loc 1 582 1 view .LVU228
 695 0038 7047     		bx	lr
 696              	.L62:
 697 003a 00BF     		.align	2
 698              	.L61:
 699 003c 00000000 		.word	markmap
 700              		.cfi_endproc
 701              	.LFE258:
 702              		.size	invalidate_rect_func, .-invalidate_rect_func
 703              		.section	.text.real,"ax",%progbits
 704              		.align	1
 705              		.p2align 4,,15
 706              		.syntax unified
 707              		.thumb
 708              		.thumb_func
 709              		.type	real, %function
 710              	real:
 711              	.LVL76:
 712              	.LFB269:
 713              		.loc 1 651 1 is_stmt 1 view -0
 714              		.cfi_startproc
 715              		@ args = 0, pretend = 0, frame = 0
 716              		@ frame_needed = 0, uses_anonymous_args = 0
 717              		@ link register save eliminated.
 718              		.loc 1 652 3 view .LVU230
 719              		.loc 1 653 3 view .LVU231
 720              		.loc 1 654 1 is_stmt 0 view .LVU232
 721 0000 91ED000A 		vldr.32	s0, [r1]
 722 0004 7047     		bx	lr
 723              		.cfi_endproc
 724              	.LFE269:
 725              		.size	real, .-real
 726 0006 00BF     		.section	.text.imag,"ax",%progbits
 727              		.align	1
 728              		.p2align 4,,15
 729              		.syntax unified
 730              		.thumb
 731              		.thumb_func
 732              		.type	imag, %function
 733              	imag:
 734              	.LVL77:
 735              	.LFB270:
 736              		.loc 1 660 1 is_stmt 1 view -0
 737              		.cfi_startproc
 738              		@ args = 0, pretend = 0, frame = 0
 739              		@ frame_needed = 0, uses_anonymous_args = 0
 740              		@ link register save eliminated.
 741              		.loc 1 661 3 view .LVU234
ARM GAS  C:\msys64\tmp\ccGTf9yH.s 			page 14


 742              		.loc 1 662 3 view .LVU235
 743              		.loc 1 663 1 is_stmt 0 view .LVU236
 744 0000 91ED010A 		vldr.32	s0, [r1, #4]
 745 0004 7047     		bx	lr
 746              		.cfi_endproc
 747              	.LFE270:
 748              		.size	imag, .-imag
 749 0006 00BF     		.section	.text.resistance,"ax",%progbits
 750              		.align	1
 751              		.p2align 4,,15
 752              		.syntax unified
 753              		.thumb
 754              		.thumb_func
 755              		.type	resistance, %function
 756              	resistance:
 757              	.LVL78:
 758              	.LFB272:
 759              		.loc 1 691 1 is_stmt 1 view -0
 760              		.cfi_startproc
 761              		@ args = 0, pretend = 0, frame = 0
 762              		@ frame_needed = 0, uses_anonymous_args = 0
 763              		@ link register save eliminated.
 764              		.loc 1 692 3 view .LVU238
 765              		.loc 1 693 3 view .LVU239
 766              		.loc 1 693 10 is_stmt 0 view .LVU240
 767 0000 D1ED006A 		vldr.32	s13, [r1]
 768              		.loc 1 693 35 view .LVU241
 769 0004 91ED017A 		vldr.32	s14, [r1, #4]
 770              		.loc 1 693 10 view .LVU242
 771 0008 F7EE007A 		vmov.f32	s15, #1.0e+0
 772 000c 77EEE67A 		vsub.f32	s15, s15, s13
 773              	.LVL79:
 774              	.LBB78:
 775              	.LBI78:
 776              		.loc 1 598 14 is_stmt 1 view .LVU243
 777              	.LBB79:
 778              		.loc 1 598 55 view .LVU244
 779              	.LBB80:
 780              	.LBI80:
 781              		.loc 1 596 14 view .LVU245
 782              	.LBB81:
 783              		.loc 1 596 42 view .LVU246
 784              		.loc 1 596 63 is_stmt 0 view .LVU247
 785 0010 27EE077A 		vmul.f32	s14, s14, s14
 786              	.LVL80:
 787              		.loc 1 596 63 view .LVU248
 788              	.LBE81:
 789              	.LBE80:
 790              		.loc 1 598 81 view .LVU249
 791 0014 DFED076A 		vldr.32	s13, .L66
 792              	.LBB83:
 793              	.LBB82:
 794              		.loc 1 596 58 view .LVU250
 795 0018 A7EEA77A 		vfma.f32	s14, s15, s15
 796              	.LVL81:
 797              		.loc 1 596 58 view .LVU251
 798              	.LBE82:
ARM GAS  C:\msys64\tmp\ccGTf9yH.s 			page 15


 799              	.LBE83:
 800              	.LBB84:
 801              	.LBI84:
 802              		.file 2 "vna_math.h"
 803              		.loc 2 36 54 is_stmt 1 view .LVU252
 804              	.LBB85:
 805              		.loc 2 36 73 view .LVU253
 806              	.LBE85:
 807              	.LBE84:
 808              		.loc 1 598 81 is_stmt 0 view .LVU254
 809 001c 67EEA67A 		vmul.f32	s15, s15, s13
 810              	.LVL82:
 811              		.loc 1 598 62 discriminator 1 view .LVU255
 812 0020 DFED056A 		vldr.32	s13, .L66+4
 813              		.loc 1 598 86 discriminator 1 view .LVU256
 814 0024 87EE870A 		vdiv.f32	s0, s15, s14
 815              		.loc 1 598 62 discriminator 1 view .LVU257
 816 0028 30EE660A 		vsub.f32	s0, s0, s13
 817              	.LVL83:
 818              	.LBB87:
 819              	.LBB86:
 820              		.loc 2 36 73 view .LVU258
 821              		.syntax unified
 822              	@ 36 "vna_math.h" 1
 823 002c B0EEC00A 		vabs.f32 s0, s0
 824              	@ 0 "" 2
 825              	.LVL84:
 826              		.loc 2 36 121 is_stmt 1 view .LVU259
 827              		.loc 2 36 121 is_stmt 0 view .LVU260
 828              		.thumb
 829              		.syntax unified
 830              	.LBE86:
 831              	.LBE87:
 832              	.LBE79:
 833              	.LBE78:
 834              		.loc 1 694 1 view .LVU261
 835 0030 7047     		bx	lr
 836              	.L67:
 837 0032 00BF     		.align	2
 838              	.L66:
 839 0034 0000C842 		.word	1120403456
 840 0038 00004842 		.word	1112014848
 841              		.cfi_endproc
 842              	.LFE272:
 843              		.size	resistance, .-resistance
 844              		.section	.text.time_of_index,"ax",%progbits
 845              		.align	1
 846              		.p2align 4,,15
 847              		.syntax unified
 848              		.thumb
 849              		.thumb_func
 850              		.type	time_of_index, %function
 851              	time_of_index:
 852              	.LVL85:
 853              	.LFB300:
 854              		.loc 1 1047 1 is_stmt 1 view -0
 855              		.cfi_startproc
ARM GAS  C:\msys64\tmp\ccGTf9yH.s 			page 16


 856              		@ args = 0, pretend = 0, frame = 0
 857              		@ frame_needed = 0, uses_anonymous_args = 0
 858              		@ link register save eliminated.
 859              		.loc 1 1048 3 view .LVU263
 860              	.LBB88:
 861              	.LBI88:
 862              		.file 3 "nanovna.h"
 863              		.loc 3 1402 1 view .LVU264
 864              	.LBB89:
 865              		.loc 3 1404 3 view .LVU265
 866              		.loc 3 1408 21 view .LVU266
 867              		.loc 3 1408 21 is_stmt 0 view .LVU267
 868              	.LBE89:
 869              	.LBE88:
 870              		.loc 1 1049 3 is_stmt 1 view .LVU268
 871              		.loc 1 1049 18 is_stmt 0 view .LVU269
 872 0000 0949     		ldr	r1, .L69
 873 0002 4B8B     		ldrh	r3, [r1, #26]
 874              	.LBB92:
 875              	.LBB90:
 876              		.loc 3 1408 39 view .LVU270
 877 0004 D1E90112 		ldrd	r1, r2, [r1, #4]
 878              	.LBE90:
 879              	.LBE92:
 880              		.loc 1 1049 31 view .LVU271
 881 0008 013B     		subs	r3, r3, #1
 882              		.loc 1 1049 15 view .LVU272
 883 000a 00FB03F3 		mul	r3, r0, r3
 884              	.LBB93:
 885              	.LBB91:
 886              		.loc 3 1408 39 view .LVU273
 887 000e 521A     		subs	r2, r2, r1
 888 0010 00EE102A 		vmov	s0, r2	@ int
 889              	.LBE91:
 890              	.LBE93:
 891              		.loc 1 1049 37 view .LVU274
 892 0014 07EE903A 		vmov	s15, r3	@ int
 893 0018 B8EE400A 		vcvt.f32.u32	s0, s0
 894 001c FAEEEB7A 		vcvt.f32.s32	s15, s15, #9
 895              		.loc 1 1050 1 view .LVU275
 896 0020 87EE800A 		vdiv.f32	s0, s15, s0
 897 0024 7047     		bx	lr
 898              	.L70:
 899 0026 00BF     		.align	2
 900              	.L69:
 901 0028 00000000 		.word	current_props
 902              		.cfi_endproc
 903              	.LFE300:
 904              		.size	time_of_index, .-time_of_index
 905              		.section	.text.distance_of_index,"ax",%progbits
 906              		.align	1
 907              		.p2align 4,,15
 908              		.syntax unified
 909              		.thumb
 910              		.thumb_func
 911              		.type	distance_of_index, %function
 912              	distance_of_index:
ARM GAS  C:\msys64\tmp\ccGTf9yH.s 			page 17


 913              	.LVL86:
 914              	.LFB301:
 915              		.loc 1 1053 1 is_stmt 1 view -0
 916              		.cfi_startproc
 917              		@ args = 0, pretend = 0, frame = 0
 918              		@ frame_needed = 0, uses_anonymous_args = 0
 919              		.loc 1 1054 3 view .LVU277
 920              		.loc 1 1053 1 is_stmt 0 view .LVU278
 921 0000 08B5     		push	{r3, lr}
 922              		.cfi_def_cfa_offset 8
 923              		.cfi_offset 3, -8
 924              		.cfi_offset 14, -4
 925              		.loc 1 1054 56 view .LVU279
 926 0002 FFF7FEFF 		bl	time_of_index
 927              	.LVL87:
 928              		.loc 1 1054 10 view .LVU280
 929 0006 074B     		ldr	r3, .L73
 930              		.loc 1 1054 54 discriminator 1 view .LVU281
 931 0008 9FED077A 		vldr.32	s14, .L73+4
 932              		.loc 1 1054 10 view .LVU282
 933 000c 93F89930 		ldrb	r3, [r3, #153]	@ zero_extendqisi2
 934 0010 07EE903A 		vmov	s15, r3	@ int
 935              		.loc 1 1054 54 view .LVU283
 936 0014 F8EEE77A 		vcvt.f32.s32	s15, s15
 937              		.loc 1 1054 54 discriminator 1 view .LVU284
 938 0018 67EE877A 		vmul.f32	s15, s15, s14
 939              		.loc 1 1055 1 view .LVU285
 940 001c 27EE800A 		vmul.f32	s0, s15, s0
 941 0020 08BD     		pop	{r3, pc}
 942              	.L74:
 943 0022 00BF     		.align	2
 944              	.L73:
 945 0024 00000000 		.word	current_props
 946 0028 92FAB649 		.word	1236728466
 947              		.cfi_endproc
 948              	.LFE301:
 949              		.size	distance_of_index, .-distance_of_index
 950              		.section	.text._greater,"ax",%progbits
 951              		.align	1
 952              		.p2align 4,,15
 953              		.syntax unified
 954              		.thumb
 955              		.thumb_func
 956              		.type	_greater, %function
 957              	_greater:
 958              	.LVL88:
 959              	.LFB310:
 960              		.loc 1 1199 36 is_stmt 1 view -0
 961              		.cfi_startproc
 962              		@ args = 0, pretend = 0, frame = 0
 963              		@ frame_needed = 0, uses_anonymous_args = 0
 964              		@ link register save eliminated.
 965              		.loc 1 1199 38 view .LVU287
 966              		.loc 1 1199 52 is_stmt 0 view .LVU288
 967 0000 8842     		cmp	r0, r1
 968 0002 D4BF     		ite	le
 969 0004 0020     		movle	r0, #0
ARM GAS  C:\msys64\tmp\ccGTf9yH.s 			page 18


 970              	.LVL89:
 971              		.loc 1 1199 52 view .LVU289
 972 0006 0120     		movgt	r0, #1
 973 0008 7047     		bx	lr
 974              		.cfi_endproc
 975              	.LFE310:
 976              		.size	_greater, .-_greater
 977 000a 00BF     		.section	.text._lesser,"ax",%progbits
 978              		.align	1
 979              		.p2align 4,,15
 980              		.syntax unified
 981              		.thumb
 982              		.thumb_func
 983              		.type	_lesser, %function
 984              	_lesser:
 985              	.LVL90:
 986              	.LFB311:
 987              		.loc 1 1200 35 is_stmt 1 view -0
 988              		.cfi_startproc
 989              		@ args = 0, pretend = 0, frame = 0
 990              		@ frame_needed = 0, uses_anonymous_args = 0
 991              		@ link register save eliminated.
 992              		.loc 1 1200 37 view .LVU291
 993              		.loc 1 1200 51 is_stmt 0 view .LVU292
 994 0000 8842     		cmp	r0, r1
 995 0002 ACBF     		ite	ge
 996 0004 0020     		movge	r0, #0
 997              	.LVL91:
 998              		.loc 1 1200 51 view .LVU293
 999 0006 0120     		movlt	r0, #1
 1000 0008 7047     		bx	lr
 1001              		.cfi_endproc
 1002              	.LFE311:
 1003              		.size	_lesser, .-_lesser
 1004 000a 00BF     		.section	.text.match_quadratic_equation,"ax",%progbits
 1005              		.align	1
 1006              		.syntax unified
 1007              		.thumb
 1008              		.thumb_func
 1009              		.type	match_quadratic_equation, %function
 1010              	match_quadratic_equation:
 1011              	.LVL92:
 1012              	.LFB319:
 1013              		.file 4 "measure.c"
 1014              		.loc 4 31 75 is_stmt 1 view -0
 1015              		.cfi_startproc
 1016              		@ args = 0, pretend = 0, frame = 0
 1017              		@ frame_needed = 0, uses_anonymous_args = 0
 1018              		@ link register save eliminated.
 1019              		.loc 4 32 3 view .LVU295
 1020              		.loc 4 32 15 is_stmt 0 view .LVU296
 1021 0000 30EE000A 		vadd.f32	s0, s0, s0
 1022              	.LVL93:
 1023              		.loc 4 33 3 is_stmt 1 view .LVU297
 1024              		.loc 4 33 43 is_stmt 0 view .LVU298
 1025 0004 31EE011A 		vadd.f32	s2, s2, s2
 1026              	.LVL94:
ARM GAS  C:\msys64\tmp\ccGTf9yH.s 			page 19


 1027              		.loc 4 34 6 view .LVU299
 1028 0008 0023     		movs	r3, #0
 1029              		.loc 4 33 15 view .LVU300
 1030 000a 20EE411A 		vnmul.f32	s2, s0, s2
 1031 000e A0EEA01A 		vfma.f32	s2, s1, s1
 1032              	.LVL95:
 1033              		.loc 4 34 3 is_stmt 1 view .LVU301
 1034              		.loc 4 34 6 is_stmt 0 view .LVU302
 1035 0012 B5EEC01A 		vcmpe.f32	s2, #0
 1036 0016 F1EE10FA 		vmrs	APSR_nzcv, FPSCR
 1037 001a 02D5     		bpl	.L82
 1038              		.loc 4 35 5 is_stmt 1 view .LVU303
 1039              		.loc 4 35 17 is_stmt 0 view .LVU304
 1040 001c 4360     		str	r3, [r0, #4]	@ float
 1041              		.loc 4 35 10 view .LVU305
 1042 001e 0360     		str	r3, [r0]	@ float
 1043              		.loc 4 36 5 is_stmt 1 view .LVU306
 1044 0020 7047     		bx	lr
 1045              	.L82:
 1046              		.loc 4 38 3 view .LVU307
 1047              	.LVL96:
 1048              	.LBB94:
 1049              	.LBI94:
 1050              		.loc 2 37 54 view .LVU308
 1051              	.LBB95:
 1052              		.loc 2 37 73 view .LVU309
 1053              		.syntax unified
 1054              	@ 37 "vna_math.h" 1
 1055 0022 B1EEC11A 		vsqrt.f32 s2, s2
 1056              	@ 0 "" 2
 1057              	.LVL97:
 1058              		.loc 2 37 122 view .LVU310
 1059              		.loc 2 37 122 is_stmt 0 view .LVU311
 1060              		.thumb
 1061              		.syntax unified
 1062              	.LBE95:
 1063              	.LBE94:
 1064              		.loc 4 39 3 is_stmt 1 view .LVU312
 1065              		.loc 4 39 14 is_stmt 0 view .LVU313
 1066 0026 31EE607A 		vsub.f32	s14, s2, s1
 1067              		.loc 4 40 14 view .LVU314
 1068 002a 70EE810A 		vadd.f32	s1, s1, s2
 1069              	.LVL98:
 1070              		.loc 4 39 20 view .LVU315
 1071 002e C7EE007A 		vdiv.f32	s15, s14, s0
 1072              		.loc 4 40 14 view .LVU316
 1073 0032 F1EE600A 		vneg.f32	s1, s1
 1074              		.loc 4 39 8 view .LVU317
 1075 0036 C0ED007A 		vstr.32	s15, [r0]
 1076              		.loc 4 40 3 is_stmt 1 view .LVU318
 1077              		.loc 4 40 20 is_stmt 0 view .LVU319
 1078 003a C0EE807A 		vdiv.f32	s15, s1, s0
 1079              		.loc 4 40 8 view .LVU320
 1080 003e C0ED017A 		vstr.32	s15, [r0, #4]
 1081              		.loc 4 41 1 view .LVU321
 1082 0042 7047     		bx	lr
 1083              		.cfi_endproc
ARM GAS  C:\msys64\tmp\ccGTf9yH.s 			page 20


 1084              	.LFE319:
 1085              		.size	match_quadratic_equation, .-match_quadratic_equation
 1086              		.section	.text._greaterf,"ax",%progbits
 1087              		.align	1
 1088              		.syntax unified
 1089              		.thumb
 1090              		.thumb_func
 1091              		.type	_greaterf, %function
 1092              	_greaterf:
 1093              	.LVL99:
 1094              	.LFB321:
 1095              		.loc 4 82 41 is_stmt 1 view -0
 1096              		.cfi_startproc
 1097              		@ args = 0, pretend = 0, frame = 0
 1098              		@ frame_needed = 0, uses_anonymous_args = 0
 1099              		@ link register save eliminated.
 1100              		.loc 4 82 43 view .LVU323
 1101              		.loc 4 82 52 is_stmt 0 view .LVU324
 1102 0000 B4EEE00A 		vcmpe.f32	s0, s1
 1103 0004 F1EE10FA 		vmrs	APSR_nzcv, FPSCR
 1104              		.loc 4 82 57 view .LVU325
 1105 0008 CCBF     		ite	gt
 1106 000a 0120     		movgt	r0, #1
 1107 000c 0020     		movle	r0, #0
 1108 000e 7047     		bx	lr
 1109              		.cfi_endproc
 1110              	.LFE321:
 1111              		.size	_greaterf, .-_greaterf
 1112              		.section	.text._lesserf,"ax",%progbits
 1113              		.align	1
 1114              		.syntax unified
 1115              		.thumb
 1116              		.thumb_func
 1117              		.type	_lesserf, %function
 1118              	_lesserf:
 1119              	.LVL100:
 1120              	.LFB322:
 1121              		.loc 4 83 40 is_stmt 1 view -0
 1122              		.cfi_startproc
 1123              		@ args = 0, pretend = 0, frame = 0
 1124              		@ frame_needed = 0, uses_anonymous_args = 0
 1125              		@ link register save eliminated.
 1126              		.loc 4 83 42 view .LVU327
 1127              		.loc 4 83 51 is_stmt 0 view .LVU328
 1128 0000 B4EEE00A 		vcmpe.f32	s0, s1
 1129 0004 F1EE10FA 		vmrs	APSR_nzcv, FPSCR
 1130              		.loc 4 83 56 view .LVU329
 1131 0008 4CBF     		ite	mi
 1132 000a 0120     		movmi	r0, #1
 1133 000c 0020     		movpl	r0, #0
 1134 000e 7047     		bx	lr
 1135              		.cfi_endproc
 1136              	.LFE322:
 1137              		.size	_lesserf, .-_lesserf
 1138              		.section	.text.s21pow2,"ax",%progbits
 1139              		.align	1
 1140              		.syntax unified
ARM GAS  C:\msys64\tmp\ccGTf9yH.s 			page 21


 1141              		.thumb
 1142              		.thumb_func
 1143              		.type	s21pow2, %function
 1144              	s21pow2:
 1145              	.LVL101:
 1146              	.LFB334:
 1147              		.loc 4 383 34 is_stmt 1 view -0
 1148              		.cfi_startproc
 1149              		@ args = 0, pretend = 0, frame = 0
 1150              		@ frame_needed = 0, uses_anonymous_args = 0
 1151              		@ link register save eliminated.
 1152              		.loc 4 384 3 view .LVU331
 1153              		.loc 4 384 15 is_stmt 0 view .LVU332
 1154 0000 084B     		ldr	r3, .L86
 1155 0002 00F29112 		addw	r2, r0, #401
 1156 0006 03EBC202 		add	r2, r3, r2, lsl #3
 1157              		.loc 4 385 15 view .LVU333
 1158 000a 03EBC003 		add	r3, r3, r0, lsl #3
 1159 000e 03F68C43 		addw	r3, r3, #3212
 1160 0012 93ED000A 		vldr.32	s0, [r3]
 1161              		.loc 4 384 15 view .LVU334
 1162 0016 D2ED007A 		vldr.32	s15, [r2]
 1163              	.LVL102:
 1164              		.loc 4 385 3 is_stmt 1 view .LVU335
 1165              		.loc 4 386 3 view .LVU336
 1166              		.loc 4 386 18 is_stmt 0 view .LVU337
 1167 001a 20EE000A 		vmul.f32	s0, s0, s0
 1168              	.LVL103:
 1169              		.loc 4 387 1 view .LVU338
 1170 001e A7EEA70A 		vfma.f32	s0, s15, s15
 1171 0022 7047     		bx	lr
 1172              	.L87:
 1173              		.align	2
 1174              	.L86:
 1175 0024 00000000 		.word	measured
 1176              		.cfi_endproc
 1177              	.LFE334:
 1178              		.size	s21pow2, .-s21pow2
 1179              		.section	.text.s21tan,"ax",%progbits
 1180              		.align	1
 1181              		.syntax unified
 1182              		.thumb
 1183              		.thumb_func
 1184              		.type	s21tan, %function
 1185              	s21tan:
 1186              	.LVL104:
 1187              	.LFB335:
 1188              		.loc 4 389 33 is_stmt 1 view -0
 1189              		.cfi_startproc
 1190              		@ args = 0, pretend = 0, frame = 0
 1191              		@ frame_needed = 0, uses_anonymous_args = 0
 1192              		@ link register save eliminated.
 1193              		.loc 4 390 3 view .LVU340
 1194              		.loc 4 391 3 view .LVU341
 1195              		.loc 4 392 3 view .LVU342
 1196              		.loc 4 391 15 is_stmt 0 view .LVU343
 1197 0000 074B     		ldr	r3, .L89
ARM GAS  C:\msys64\tmp\ccGTf9yH.s 			page 22


 1198 0002 03EBC002 		add	r2, r3, r0, lsl #3
 1199              		.loc 4 390 15 view .LVU344
 1200 0006 00F29110 		addw	r0, r0, #401
 1201              	.LVL105:
 1202              		.loc 4 391 15 view .LVU345
 1203 000a 02F68C42 		addw	r2, r2, #3212
 1204              		.loc 4 390 15 view .LVU346
 1205 000e 03EBC003 		add	r3, r3, r0, lsl #3
 1206              	.LVL106:
 1207              		.loc 4 392 12 view .LVU347
 1208 0012 92ED000A 		vldr.32	s0, [r2]
 1209 0016 D3ED007A 		vldr.32	s15, [r3]
 1210              		.loc 4 393 1 view .LVU348
 1211 001a 80EE270A 		vdiv.f32	s0, s0, s15
 1212 001e 7047     		bx	lr
 1213              	.L90:
 1214              		.align	2
 1215              	.L89:
 1216 0020 00000000 		.word	measured
 1217              		.cfi_endproc
 1218              	.LFE335:
 1219              		.size	s21tan, .-s21tan
 1220              		.section	.text.s11imag,"ax",%progbits
 1221              		.align	1
 1222              		.syntax unified
 1223              		.thumb
 1224              		.thumb_func
 1225              		.type	s11imag, %function
 1226              	s11imag:
 1227              	.LVL107:
 1228              	.LFB346:
 1229              		.loc 4 650 34 is_stmt 1 view -0
 1230              		.cfi_startproc
 1231              		@ args = 0, pretend = 0, frame = 0
 1232              		@ frame_needed = 0, uses_anonymous_args = 0
 1233              		@ link register save eliminated.
 1234              		.loc 4 651 3 view .LVU350
 1235              		.loc 4 651 24 is_stmt 0 view .LVU351
 1236 0000 024B     		ldr	r3, .L92
 1237 0002 03EBC003 		add	r3, r3, r0, lsl #3
 1238              		.loc 4 652 1 view .LVU352
 1239 0006 93ED010A 		vldr.32	s0, [r3, #4]
 1240 000a 7047     		bx	lr
 1241              	.L93:
 1242              		.align	2
 1243              	.L92:
 1244 000c 00000000 		.word	measured
 1245              		.cfi_endproc
 1246              	.LFE346:
 1247              		.size	s11imag, .-s11imag
 1248              		.section	.text.cell_string_width,"ax",%progbits
 1249              		.align	1
 1250              		.p2align 4,,15
 1251              		.syntax unified
 1252              		.thumb
 1253              		.thumb_func
 1254              		.type	cell_string_width, %function
ARM GAS  C:\msys64\tmp\ccGTf9yH.s 			page 23


 1255              	cell_string_width:
 1256              	.LVL108:
 1257              	.LFB367:
 1258              		.loc 1 1720 1 is_stmt 1 view -0
 1259              		.cfi_startproc
 1260              		@ args = 0, pretend = 0, frame = 0
 1261              		@ frame_needed = 0, uses_anonymous_args = 0
 1262              		@ link register save eliminated.
 1263              		.loc 1 1721 3 view .LVU354
 1264              		.loc 1 1722 3 view .LVU355
 1265              		.loc 1 1722 10 view .LVU356
 1266 0000 0378     		ldrb	r3, [r0]	@ zero_extendqisi2
 1267 0002 ABB1     		cbz	r3, .L97
 1268              		.loc 1 1720 1 is_stmt 0 view .LVU357
 1269 0004 10B4     		push	{r4}
 1270              		.cfi_def_cfa_offset 4
 1271              		.cfi_offset 4, -4
 1272 0006 0B4C     		ldr	r4, .L103
 1273 0008 0146     		mov	r1, r0
 1274              		.loc 1 1721 7 view .LVU358
 1275 000a 0020     		movs	r0, #0
 1276              	.LVL109:
 1277              	.L96:
 1278              		.loc 1 1723 5 is_stmt 1 view .LVU359
 1279              		.loc 1 1723 10 is_stmt 0 view .LVU360
 1280 000c 163B     		subs	r3, r3, #22
 1281 000e 03EB8302 		add	r2, r3, r3, lsl #2
 1282 0012 03EB4202 		add	r2, r3, r2, lsl #1
 1283              		.loc 1 1722 10 view .LVU361
 1284 0016 11F8013F 		ldrb	r3, [r1, #1]!	@ zero_extendqisi2
 1285              	.LVL110:
 1286              		.loc 1 1723 10 view .LVU362
 1287 001a A25C     		ldrb	r2, [r4, r2]	@ zero_extendqisi2
 1288 001c 02F00702 		and	r2, r2, #7
 1289 0020 C2F10802 		rsb	r2, r2, #8
 1290              		.loc 1 1723 7 view .LVU363
 1291 0024 1044     		add	r0, r0, r2
 1292              	.LVL111:
 1293              		.loc 1 1722 10 is_stmt 1 view .LVU364
 1294 0026 002B     		cmp	r3, #0
 1295 0028 F0D1     		bne	.L96
 1296              		.loc 1 1725 1 is_stmt 0 view .LVU365
 1297 002a 5DF8044B 		ldr	r4, [sp], #4
 1298              		.cfi_restore 4
 1299              		.cfi_def_cfa_offset 0
 1300 002e 7047     		bx	lr
 1301              	.LVL112:
 1302              	.L97:
 1303              		.loc 1 1721 7 view .LVU366
 1304 0030 1846     		mov	r0, r3
 1305              	.LVL113:
 1306              		.loc 1 1724 3 is_stmt 1 view .LVU367
 1307              		.loc 1 1725 1 is_stmt 0 view .LVU368
 1308 0032 7047     		bx	lr
 1309              	.L104:
 1310              		.align	2
 1311              	.L103:
ARM GAS  C:\msys64\tmp\ccGTf9yH.s 			page 24


 1312 0034 00000000 		.word	x7x11b_bits
 1313              		.cfi_endproc
 1314              	.LFE367:
 1315              		.size	cell_string_width, .-cell_string_width
 1316              		.section	.text.cell_drawstring_big,"ax",%progbits
 1317              		.align	1
 1318              		.p2align 4,,15
 1319              		.syntax unified
 1320              		.thumb
 1321              		.thumb_func
 1322              		.type	cell_drawstring_big, %function
 1323              	cell_drawstring_big:
 1324              	.LVL114:
 1325              	.LFB369:
 1326              		.loc 1 1760 1 is_stmt 1 view -0
 1327              		.cfi_startproc
 1328              		@ args = 0, pretend = 0, frame = 48
 1329              		@ frame_needed = 0, uses_anonymous_args = 0
 1330              		.loc 1 1760 1 is_stmt 0 view .LVU370
 1331 0000 2DE9F04F 		push	{r4, r5, r6, r7, r8, r9, r10, fp, lr}
 1332              		.cfi_def_cfa_offset 36
 1333              		.cfi_offset 4, -36
 1334              		.cfi_offset 5, -32
 1335              		.cfi_offset 6, -28
 1336              		.cfi_offset 7, -24
 1337              		.cfi_offset 8, -20
 1338              		.cfi_offset 9, -16
 1339              		.cfi_offset 10, -12
 1340              		.cfi_offset 11, -8
 1341              		.cfi_offset 14, -4
 1342 0004 0346     		mov	r3, r0
 1343 0006 8DB0     		sub	sp, sp, #52
 1344              		.cfi_def_cfa_offset 88
 1345              		.loc 1 1761 10 view .LVU371
 1346 0008 0078     		ldrb	r0, [r0]	@ zero_extendqisi2
 1347              	.LVL115:
 1348              		.loc 1 1761 3 is_stmt 1 view .LVU372
 1349              		.loc 1 1761 10 view .LVU373
 1350              		.loc 1 1760 1 is_stmt 0 view .LVU374
 1351 000a 0B92     		str	r2, [sp, #44]
 1352              		.loc 1 1761 10 view .LVU375
 1353 000c 0028     		cmp	r0, #0
 1354 000e 00F09580 		beq	.L105
 1355 0012 1F46     		mov	r7, r3
 1356              	.LBB103:
 1357              	.LBB104:
 1358              	.LBB105:
 1359              	.LBB106:
 1360              	.LBB107:
 1361              	.LBB108:
 1362              	.LBB109:
 1363              		.loc 1 1748 20 view .LVU376
 1364 0014 564B     		ldr	r3, .L130
 1365              	.LVL116:
 1366              		.loc 1 1748 42 view .LVU377
 1367 0016 DFF860A1 		ldr	r10, .L130+8
 1368              		.loc 1 1748 20 view .LVU378
ARM GAS  C:\msys64\tmp\ccGTf9yH.s 			page 25


 1369 001a 1C68     		ldr	r4, [r3]
 1370 001c 0194     		str	r4, [sp, #4]
 1371 001e 1346     		mov	r3, r2
 1372 0020 0133     		adds	r3, r3, #1
 1373 0022 0993     		str	r3, [sp, #36]
 1374 0024 5B01     		lsls	r3, r3, #5
 1375 0026 A3F12002 		sub	r2, r3, #32
 1376              	.LVL117:
 1377              		.loc 1 1748 20 view .LVU379
 1378 002a 03F53079 		add	r9, r3, #704
 1379 002e 0893     		str	r3, [sp, #32]
 1380 0030 C4F14003 		rsb	r3, r4, #64
 1381 0034 0393     		str	r3, [sp, #12]
 1382 0036 0A92     		str	r2, [sp, #40]
 1383              		.loc 1 1739 44 view .LVU380
 1384 0038 4FF0800B 		mov	fp, #128
 1385 003c 0346     		mov	r3, r0
 1386 003e CDF81090 		str	r9, [sp, #16]
 1387              	.LVL118:
 1388              	.L120:
 1389              		.loc 1 1739 44 view .LVU381
 1390              	.LBE109:
 1391              	.LBE108:
 1392              	.LBE107:
 1393              	.LBE106:
 1394              	.LBE105:
 1395              	.LBE104:
 1396              		.loc 1 1763 5 is_stmt 1 view .LVU382
 1397              		.loc 1 1764 5 view .LVU383
 1398              	.LBB124:
 1399              	.LBI104:
 1400              		.loc 1 1727 13 view .LVU384
 1401              	.LBB122:
 1402              		.loc 1 1729 3 view .LVU385
 1403              		.loc 1 1729 22 is_stmt 0 view .LVU386
 1404 0042 163B     		subs	r3, r3, #22
 1405              	.LVL119:
 1406              		.loc 1 1729 22 view .LVU387
 1407 0044 03EB8302 		add	r2, r3, r3, lsl #2
 1408 0048 03EB4203 		add	r3, r3, r2, lsl #1
 1409              	.LVL120:
 1410              		.loc 1 1729 22 view .LVU388
 1411 004c 0A9A     		ldr	r2, [sp, #40]
 1412 004e 0198     		ldr	r0, [sp, #4]
 1413              		.loc 1 1731 18 view .LVU389
 1414 0050 0B9D     		ldr	r5, [sp, #44]
 1415 0052 0A44     		add	r2, r2, r1
 1416 0054 00EB4208 		add	r8, r0, r2, lsl #1
 1417 0058 4648     		ldr	r0, .L130+4
 1418 005a C25C     		ldrb	r2, [r0, r3]	@ zero_extendqisi2
 1419 005c DDE908C6 		ldrd	ip, r6, [sp, #32]
 1420 0060 02F00702 		and	r2, r2, #7
 1421 0064 CDE90571 		strd	r7, r1, [sp, #20]
 1422              		.loc 1 1729 18 view .LVU390
 1423 0068 C2F10802 		rsb	r2, r2, #8
 1424 006c 01F1010E 		add	lr, r1, #1
 1425              		.loc 1 1731 18 view .LVU391
ARM GAS  C:\msys64\tmp\ccGTf9yH.s 			page 26


 1426 0070 1844     		add	r0, r0, r3
 1427              		.loc 1 1729 18 view .LVU392
 1428 0072 94B2     		uxth	r4, r2
 1429              	.LVL121:
 1430              		.loc 1 1730 3 is_stmt 1 view .LVU393
 1431              		.loc 1 1731 3 view .LVU394
 1432              		.loc 1 1732 3 view .LVU395
 1433              		.loc 1 1734 3 view .LVU396
 1434              	.LBB119:
 1435              		.loc 1 1734 8 view .LVU397
 1436              		.loc 1 1734 28 discriminator 1 view .LVU398
 1437 0074 E146     		mov	r9, ip
 1438 0076 CDF808E0 		str	lr, [sp, #8]
 1439 007a 0792     		str	r2, [sp, #28]
 1440              	.LVL122:
 1441              	.L119:
 1442              	.LBB116:
 1443              		.loc 1 1736 5 view .LVU399
 1444              		.loc 1 1737 5 view .LVU400
 1445              	.LBB113:
 1446              		.loc 1 1737 10 view .LVU401
 1447              		.loc 1 1737 30 discriminator 1 view .LVU402
 1448 007c DDE90223 		ldrd	r2, r3, [sp, #8]
 1449              	.LBE113:
 1450              	.LBE116:
 1451              	.LBE119:
 1452              		.loc 1 1731 18 is_stmt 0 view .LVU403
 1453 0080 0096     		str	r6, [sp]
 1454 0082 03EB0801 		add	r1, r3, r8
 1455 0086 0023     		movs	r3, #0
 1456 0088 18E0     		b	.L118
 1457              	.LVL123:
 1458              	.L129:
 1459              	.LBB120:
 1460              	.LBB117:
 1461              	.LBB114:
 1462              	.LBB110:
 1463              		.loc 1 1747 36 discriminator 1 view .LVU404
 1464 008a 1F2D     		cmp	r5, #31
 1465 008c 59D9     		bls	.L110
 1466              		.loc 1 1749 7 is_stmt 1 view .LVU405
 1467              		.loc 1 1749 10 is_stmt 0 view .LVU406
 1468 008e 202A     		cmp	r2, #32
 1469 0090 2FD0     		beq	.L112
 1470              		.loc 1 1751 36 discriminator 1 view .LVU407
 1471 0092 009E     		ldr	r6, [sp]
 1472 0094 1F2E     		cmp	r6, #31
 1473 0096 0AD8     		bhi	.L108
 1474              		.loc 1 1752 9 is_stmt 1 view .LVU408
 1475              		.loc 1 1752 48 is_stmt 0 view .LVU409
 1476 0098 019E     		ldr	r6, [sp, #4]
 1477 009a BAF80070 		ldrh	r7, [r10]
 1478              	.LVL124:
 1479              		.loc 1 1752 48 view .LVU410
 1480 009e 7752     		strh	r7, [r6, r1]	@ movhi
 1481              		.loc 1 1753 7 is_stmt 1 view .LVU411
 1482              		.loc 1 1752 48 is_stmt 0 view .LVU412
ARM GAS  C:\msys64\tmp\ccGTf9yH.s 			page 27


 1483 00a0 5746     		mov	r7, r10
 1484              	.L122:
 1485              		.loc 1 1754 42 view .LVU413
 1486 00a2 09EB020C 		add	ip, r9, r2
 1487              	.L117:
 1488              		.loc 1 1754 9 is_stmt 1 view .LVU414
 1489              		.loc 1 1754 54 is_stmt 0 view .LVU415
 1490 00a6 019E     		ldr	r6, [sp, #4]
 1491 00a8 3F88     		ldrh	r7, [r7]
 1492 00aa 26F81C70 		strh	r7, [r6, ip, lsl #1]	@ movhi
 1493              	.LVL125:
 1494              	.L108:
 1495              		.loc 1 1754 54 view .LVU416
 1496              	.LBE110:
 1497              		.loc 1 1737 37 is_stmt 1 discriminator 2 view .LVU417
 1498              		.loc 1 1737 30 discriminator 1 view .LVU418
 1499 00ae 0133     		adds	r3, r3, #1
 1500              	.LVL126:
 1501              		.loc 1 1737 30 is_stmt 0 discriminator 1 view .LVU419
 1502 00b0 A342     		cmp	r3, r4
 1503 00b2 02F10202 		add	r2, r2, #2
 1504 00b6 01F10401 		add	r1, r1, #4
 1505 00ba 28D0     		beq	.L128
 1506              	.LVL127:
 1507              	.L118:
 1508              	.LBB111:
 1509              		.loc 1 1739 7 is_stmt 1 view .LVU420
 1510              		.loc 1 1740 7 view .LVU421
 1511              		.loc 1 1740 33 is_stmt 0 view .LVU422
 1512 00bc 0778     		ldrb	r7, [r0]	@ zero_extendqisi2
 1513              		.loc 1 1739 44 view .LVU423
 1514 00be 2BFA03FC 		lsr	ip, fp, r3
 1515              		.loc 1 1740 10 view .LVU424
 1516 00c2 1CEA070F 		tst	ip, r7
 1517 00c6 F2D0     		beq	.L108
 1518              		.loc 1 1743 7 is_stmt 1 view .LVU425
 1519              	.LVL128:
 1520              		.loc 1 1744 7 view .LVU426
 1521              		.loc 1 1747 7 view .LVU427
 1522              		.loc 1 1747 10 is_stmt 0 view .LVU428
 1523 00c8 571E     		subs	r7, r2, #1
 1524              	.LVL129:
 1525              		.loc 1 1747 10 view .LVU429
 1526 00ca 1F2F     		cmp	r7, #31
 1527 00cc DDD9     		bls	.L129
 1528              		.loc 1 1749 7 is_stmt 1 view .LVU430
 1529              		.loc 1 1749 10 is_stmt 0 view .LVU431
 1530 00ce 1F2A     		cmp	r2, #31
 1531 00d0 EDD8     		bhi	.L108
 1532              		.loc 1 1749 42 discriminator 1 view .LVU432
 1533 00d2 1F2D     		cmp	r5, #31
 1534 00d4 07D8     		bhi	.L116
 1535              		.loc 1 1750 9 is_stmt 1 view .LVU433
 1536              		.loc 1 1750 48 is_stmt 0 view .LVU434
 1537 00d6 264E     		ldr	r6, .L130
 1538 00d8 BAF800E0 		ldrh	lr, [r10]
 1539 00dc 3768     		ldr	r7, [r6]
ARM GAS  C:\msys64\tmp\ccGTf9yH.s 			page 28


 1540              	.LVL130:
 1541              		.loc 1 1750 48 view .LVU435
 1542 00de 4FEA851C 		lsl	ip, r5, #6
 1543 00e2 27F80CE0 		strh	lr, [r7, ip]	@ movhi
 1544              		.loc 1 1751 7 is_stmt 1 view .LVU436
 1545              	.L116:
 1546              		.loc 1 1753 42 is_stmt 0 discriminator 1 view .LVU437
 1547 00e6 009E     		ldr	r6, [sp]
 1548 00e8 1F2E     		cmp	r6, #31
 1549 00ea E0D8     		bhi	.L108
 1550 00ec CC46     		mov	ip, r9
 1551 00ee 5746     		mov	r7, r10
 1552 00f0 D9E7     		b	.L117
 1553              	.L112:
 1554              		.loc 1 1751 36 discriminator 1 view .LVU438
 1555 00f2 009E     		ldr	r6, [sp]
 1556 00f4 1F2E     		cmp	r6, #31
 1557 00f6 DAD8     		bhi	.L108
 1558              		.loc 1 1752 9 is_stmt 1 view .LVU439
 1559              		.loc 1 1752 48 is_stmt 0 view .LVU440
 1560 00f8 019E     		ldr	r6, [sp, #4]
 1561 00fa BAF80070 		ldrh	r7, [r10]
 1562 00fe 7752     		strh	r7, [r6, r1]	@ movhi
 1563              		.loc 1 1753 7 is_stmt 1 view .LVU441
 1564              	.LBE111:
 1565              		.loc 1 1737 37 discriminator 2 view .LVU442
 1566              	.LVL131:
 1567              		.loc 1 1737 30 discriminator 1 view .LVU443
 1568 0100 0133     		adds	r3, r3, #1
 1569              	.LVL132:
 1570              		.loc 1 1737 30 is_stmt 0 discriminator 1 view .LVU444
 1571 0102 A342     		cmp	r3, r4
 1572 0104 02F10202 		add	r2, r2, #2
 1573              	.LVL133:
 1574              		.loc 1 1737 30 discriminator 1 view .LVU445
 1575 0108 01F10401 		add	r1, r1, #4
 1576 010c D6D1     		bne	.L118
 1577              	.LVL134:
 1578              	.L128:
 1579              		.loc 1 1737 30 discriminator 1 view .LVU446
 1580              	.LBE114:
 1581              	.LBE117:
 1582              		.loc 1 1734 28 discriminator 1 view .LVU447
 1583 010e 049B     		ldr	r3, [sp, #16]
 1584 0110 009E     		ldr	r6, [sp]
 1585              		.loc 1 1734 35 is_stmt 1 discriminator 2 view .LVU448
 1586              		.loc 1 1734 28 discriminator 1 view .LVU449
 1587 0112 09F14009 		add	r9, r9, #64
 1588 0116 9945     		cmp	r9, r3
 1589 0118 06F10206 		add	r6, r6, #2
 1590 011c 05F10205 		add	r5, r5, #2
 1591 0120 08F18008 		add	r8, r8, #128
 1592 0124 00F10100 		add	r0, r0, #1
 1593              		.loc 1 1734 28 is_stmt 0 discriminator 1 view .LVU450
 1594 0128 A8D1     		bne	.L119
 1595              	.LVL135:
 1596              		.loc 1 1734 28 discriminator 1 view .LVU451
ARM GAS  C:\msys64\tmp\ccGTf9yH.s 			page 29


 1597              	.LBE120:
 1598              	.LBE122:
 1599              	.LBE124:
 1600              		.loc 1 1765 5 is_stmt 1 view .LVU452
 1601              		.loc 1 1765 7 is_stmt 0 view .LVU453
 1602 012a DDE90571 		ldrd	r7, r1, [sp, #20]
 1603 012e 079A     		ldr	r2, [sp, #28]
 1604              	.LBE103:
 1605              		.loc 1 1761 10 view .LVU454
 1606 0130 17F8013F 		ldrb	r3, [r7, #1]!	@ zero_extendqisi2
 1607              	.LBB126:
 1608              		.loc 1 1765 7 view .LVU455
 1609 0134 01EB4201 		add	r1, r1, r2, lsl #1
 1610              	.LVL136:
 1611              		.loc 1 1765 7 view .LVU456
 1612              	.LBE126:
 1613              		.loc 1 1761 10 is_stmt 1 view .LVU457
 1614 0138 002B     		cmp	r3, #0
 1615 013a 82D1     		bne	.L120
 1616              	.LVL137:
 1617              	.L105:
 1618              		.loc 1 1767 1 is_stmt 0 view .LVU458
 1619 013c 0DB0     		add	sp, sp, #52
 1620              		.cfi_remember_state
 1621              		.cfi_def_cfa_offset 36
 1622              		@ sp needed
 1623 013e BDE8F08F 		pop	{r4, r5, r6, r7, r8, r9, r10, fp, pc}
 1624              	.LVL138:
 1625              	.L110:
 1626              		.cfi_restore_state
 1627              	.LBB127:
 1628              	.LBB125:
 1629              	.LBB123:
 1630              	.LBB121:
 1631              	.LBB118:
 1632              	.LBB115:
 1633              	.LBB112:
 1634              		.loc 1 1748 9 is_stmt 1 view .LVU459
 1635              		.loc 1 1748 42 is_stmt 0 view .LVU460
 1636 0142 BAF800C0 		ldrh	ip, [r10]
 1637 0146 28F823C0 		strh	ip, [r8, r3, lsl #2]	@ movhi
 1638              		.loc 1 1749 7 is_stmt 1 view .LVU461
 1639              		.loc 1 1749 10 is_stmt 0 view .LVU462
 1640 014a 202A     		cmp	r2, #32
 1641              		.loc 1 1748 42 view .LVU463
 1642 014c 5746     		mov	r7, r10
 1643              	.LVL139:
 1644              		.loc 1 1749 10 view .LVU464
 1645 014e D0D0     		beq	.L112
 1646              		.loc 1 1750 9 is_stmt 1 view .LVU465
 1647              		.loc 1 1750 20 is_stmt 0 view .LVU466
 1648 0150 074E     		ldr	r6, .L130
 1649 0152 D6F800E0 		ldr	lr, [r6]
 1650              		.loc 1 1750 48 view .LVU467
 1651 0156 0EEB0106 		add	r6, lr, r1
 1652 015a 26F83ECC 		strh	ip, [r6, #-62]	@ movhi
 1653              		.loc 1 1751 7 is_stmt 1 view .LVU468
ARM GAS  C:\msys64\tmp\ccGTf9yH.s 			page 30


 1654              		.loc 1 1751 36 is_stmt 0 discriminator 1 view .LVU469
 1655 015e 009E     		ldr	r6, [sp]
 1656 0160 1F2E     		cmp	r6, #31
 1657 0162 A4D8     		bhi	.L108
 1658              		.loc 1 1752 9 is_stmt 1 view .LVU470
 1659              		.loc 1 1752 48 is_stmt 0 view .LVU471
 1660 0164 BAF800C0 		ldrh	ip, [r10]
 1661 0168 2EF801C0 		strh	ip, [lr, r1]	@ movhi
 1662              		.loc 1 1753 7 is_stmt 1 view .LVU472
 1663 016c 99E7     		b	.L122
 1664              	.L131:
 1665 016e 00BF     		.align	2
 1666              	.L130:
 1667 0170 00000000 		.word	cell_buffer
 1668 0174 00000000 		.word	x7x11b_bits
 1669 0178 00000000 		.word	foreground_color
 1670              	.LBE112:
 1671              	.LBE115:
 1672              	.LBE118:
 1673              	.LBE121:
 1674              	.LBE123:
 1675              	.LBE125:
 1676              	.LBE127:
 1677              		.cfi_endproc
 1678              	.LFE369:
 1679              		.size	cell_drawstring_big, .-cell_drawstring_big
 1680              		.section	.text.groupdelay_from_array,"ax",%progbits
 1681              		.align	1
 1682              		.p2align 4,,15
 1683              		.global	groupdelay_from_array
 1684              		.syntax unified
 1685              		.thumb
 1686              		.thumb_func
 1687              		.type	groupdelay_from_array, %function
 1688              	groupdelay_from_array:
 1689              	.LVL140:
 1690              	.LFB293:
 1691              		.loc 1 885 1 view -0
 1692              		.cfi_startproc
 1693              		@ args = 0, pretend = 0, frame = 0
 1694              		@ frame_needed = 0, uses_anonymous_args = 0
 1695              		.loc 1 886 3 view .LVU474
 1696              		.loc 1 885 1 is_stmt 0 view .LVU475
 1697 0000 10B5     		push	{r4, lr}
 1698              		.cfi_def_cfa_offset 8
 1699              		.cfi_offset 4, -8
 1700              		.cfi_offset 14, -4
 1701              		.loc 1 887 19 view .LVU476
 1702 0002 1B4C     		ldr	r4, .L134
 1703 0004 638B     		ldrh	r3, [r4, #26]
 1704              	.LVL141:
 1705              		.loc 1 887 3 is_stmt 1 view .LVU477
 1706              		.loc 1 887 32 is_stmt 0 view .LVU478
 1707 0006 013B     		subs	r3, r3, #1
 1708              		.loc 1 887 41 view .LVU479
 1709 0008 1A1A     		subs	r2, r3, r0
 1710 000a 18BF     		it	ne
ARM GAS  C:\msys64\tmp\ccGTf9yH.s 			page 31


 1711 000c 0122     		movne	r2, #1
 1712              	.LVL142:
 1713              		.loc 1 888 3 is_stmt 1 view .LVU480
 1714              	.LBB132:
 1715              	.LBI132:
 1716              		.loc 3 1402 1 view .LVU481
 1717              	.LBB133:
 1718              		.loc 3 1404 3 view .LVU482
 1719              		.loc 3 1408 21 view .LVU483
 1720              		.loc 3 1408 21 is_stmt 0 view .LVU484
 1721              	.LBE133:
 1722              	.LBE132:
 1723              		.loc 1 886 29 view .LVU485
 1724 000e 0028     		cmp	r0, #0
 1725 0010 14BF     		ite	ne
 1726 0012 0120     		movne	r0, #1
 1727              	.LVL143:
 1728              		.loc 1 886 29 view .LVU486
 1729 0014 0020     		moveq	r0, #0
 1730              		.loc 1 888 77 discriminator 1 view .LVU487
 1731 0016 1044     		add	r0, r0, r2
 1732              		.loc 1 889 10 view .LVU488
 1733 0018 01EBC202 		add	r2, r1, r2, lsl #3
 1734              	.LVL144:
 1735              	.LBB136:
 1736              	.LBB137:
 1737              		.loc 1 639 14 view .LVU489
 1738 001c 92ED007A 		vldr.32	s14, [r2]
 1739              		.loc 1 639 28 view .LVU490
 1740 0020 D2ED010A 		vldr.32	s1, [r2, #4]
 1741              	.LBE137:
 1742              	.LBE136:
 1743              		.loc 1 888 70 discriminator 1 view .LVU491
 1744 0024 93FBF0F2 		sdiv	r2, r3, r0
 1745              		.loc 1 889 23 view .LVU492
 1746 0028 14BF     		ite	ne
 1747 002a 6FF00703 		mvnne	r3, #7
 1748              	.LVL145:
 1749              		.loc 1 889 23 view .LVU493
 1750 002e 0023     		moveq	r3, #0
 1751              		.loc 1 889 10 view .LVU494
 1752 0030 1944     		add	r1, r1, r3
 1753              	.LVL146:
 1754              	.LBB141:
 1755              	.LBB138:
 1756              		.loc 1 639 21 view .LVU495
 1757 0032 D1ED007A 		vldr.32	s15, [r1]
 1758              		.loc 1 639 35 view .LVU496
 1759 0036 D1ED016A 		vldr.32	s13, [r1, #4]
 1760              		.loc 1 640 9 view .LVU497
 1761 003a 20EEE70A 		vnmul.f32	s0, s1, s15
 1762              	.LBE138:
 1763              	.LBE141:
 1764              	.LBB142:
 1765              	.LBB134:
 1766              		.loc 3 1408 39 view .LVU498
 1767 003e D4E90113 		ldrd	r1, r3, [r4, #4]
ARM GAS  C:\msys64\tmp\ccGTf9yH.s 			page 32


 1768              	.LBE134:
 1769              	.LBE142:
 1770              	.LBB143:
 1771              	.LBB139:
 1772              		.loc 1 639 32 view .LVU499
 1773 0042 60EEA60A 		vmul.f32	s1, s1, s13
 1774              		.loc 1 641 10 view .LVU500
 1775 0046 A7EE260A 		vfma.f32	s0, s14, s13
 1776              	.LBE139:
 1777              	.LBE143:
 1778              	.LBB144:
 1779              	.LBB135:
 1780              		.loc 3 1408 39 view .LVU501
 1781 004a 5B1A     		subs	r3, r3, r1
 1782              	.LBE135:
 1783              	.LBE144:
 1784              		.loc 1 888 10 discriminator 1 view .LVU502
 1785 004c B3FBF2F4 		udiv	r4, r3, r2
 1786              	.LVL147:
 1787              		.loc 1 889 3 is_stmt 1 view .LVU503
 1788              	.LBB145:
 1789              	.LBI136:
 1790              		.loc 1 635 14 view .LVU504
 1791              	.LBB140:
 1792              		.loc 1 639 3 view .LVU505
 1793              		.loc 1 640 3 view .LVU506
 1794              		.loc 1 641 3 view .LVU507
 1795              		.loc 1 641 10 is_stmt 0 view .LVU508
 1796 0050 E7EE270A 		vfma.f32	s1, s14, s15
 1797              	.LVL148:
 1798              		.loc 1 641 10 view .LVU509
 1799 0054 FFF7FEFF 		bl	vna_atan2f
 1800              	.LVL149:
 1801              		.loc 1 641 27 discriminator 1 view .LVU510
 1802 0058 9FED067A 		vldr.32	s14, .L134+4
 1803 005c 07EE904A 		vmov	s15, r4	@ int
 1804 0060 20EE070A 		vmul.f32	s0, s0, s14
 1805 0064 F8EE677A 		vcvt.f32.u32	s15, s15
 1806              	.LBE140:
 1807              	.LBE145:
 1808              		.loc 1 890 1 view .LVU511
 1809 0068 80EE270A 		vdiv.f32	s0, s0, s15
 1810 006c 10BD     		pop	{r4, pc}
 1811              	.LVL150:
 1812              	.L135:
 1813              		.loc 1 890 1 view .LVU512
 1814 006e 00BF     		.align	2
 1815              	.L134:
 1816 0070 00000000 		.word	current_props
 1817 0074 83F9223E 		.word	1042479491
 1818              		.cfi_endproc
 1819              	.LFE293:
 1820              		.size	groupdelay_from_array, .-groupdelay_from_array
 1821              		.section	.text.phase,"ax",%progbits
 1822              		.align	1
 1823              		.p2align 4,,15
 1824              		.syntax unified
ARM GAS  C:\msys64\tmp\ccGTf9yH.s 			page 33


 1825              		.thumb
 1826              		.thumb_func
 1827              		.type	phase, %function
 1828              	phase:
 1829              	.LVL151:
 1830              	.LFB267:
 1831              		.loc 1 627 1 is_stmt 1 view -0
 1832              		.cfi_startproc
 1833              		@ args = 0, pretend = 0, frame = 0
 1834              		@ frame_needed = 0, uses_anonymous_args = 0
 1835              		.loc 1 628 3 view .LVU514
 1836              		.loc 1 629 3 view .LVU515
 1837              		.loc 1 627 1 is_stmt 0 view .LVU516
 1838 0000 08B5     		push	{r3, lr}
 1839              		.cfi_def_cfa_offset 8
 1840              		.cfi_offset 3, -8
 1841              		.cfi_offset 14, -4
 1842              		.loc 1 629 30 view .LVU517
 1843 0002 D1ED000A 		vldr.32	s1, [r1]
 1844 0006 91ED010A 		vldr.32	s0, [r1, #4]
 1845 000a FFF7FEFF 		bl	vna_atan2f
 1846              	.LVL152:
 1847              		.loc 1 629 28 discriminator 1 view .LVU518
 1848 000e DFED027A 		vldr.32	s15, .L138
 1849              		.loc 1 630 1 view .LVU519
 1850 0012 20EE270A 		vmul.f32	s0, s0, s15
 1851 0016 08BD     		pop	{r3, pc}
 1852              	.L139:
 1853              		.align	2
 1854              	.L138:
 1855 0018 E02E6542 		.word	1113927392
 1856              		.cfi_endproc
 1857              	.LFE267:
 1858              		.size	phase, .-phase
 1859              		.section	.text.get_w,"ax",%progbits
 1860              		.align	1
 1861              		.p2align 4,,15
 1862              		.syntax unified
 1863              		.thumb
 1864              		.thumb_func
 1865              		.type	get_w, %function
 1866              	get_w:
 1867              	.LVL153:
 1868              	.LFB260:
 1869              		.loc 1 597 27 is_stmt 1 view -0
 1870              		.cfi_startproc
 1871              		@ args = 0, pretend = 0, frame = 0
 1872              		@ frame_needed = 0, uses_anonymous_args = 0
 1873              		.loc 1 597 29 view .LVU521
 1874              		.loc 1 597 27 is_stmt 0 view .LVU522
 1875 0000 08B5     		push	{r3, lr}
 1876              		.cfi_def_cfa_offset 8
 1877              		.cfi_offset 3, -8
 1878              		.cfi_offset 14, -4
 1879              		.loc 1 597 49 view .LVU523
 1880 0002 80B2     		uxth	r0, r0
 1881              	.LVL154:
ARM GAS  C:\msys64\tmp\ccGTf9yH.s 			page 34


 1882              		.loc 1 597 49 view .LVU524
 1883 0004 FFF7FEFF 		bl	getFrequency
 1884              	.LVL155:
 1885 0008 07EE900A 		vmov	s15, r0	@ int
 1886              		.loc 1 597 47 discriminator 1 view .LVU525
 1887 000c 9FED030A 		vldr.32	s0, .L142
 1888 0010 F8EE677A 		vcvt.f32.u32	s15, s15
 1889              		.loc 1 597 66 view .LVU526
 1890 0014 27EE800A 		vmul.f32	s0, s15, s0
 1891 0018 08BD     		pop	{r3, pc}
 1892              	.L143:
 1893 001a 00BF     		.align	2
 1894              	.L142:
 1895 001c DB0FC940 		.word	1086918619
 1896              		.cfi_endproc
 1897              	.LFE260:
 1898              		.size	get_w, .-get_w
 1899              		.section	.text.s11index,"ax",%progbits
 1900              		.align	1
 1901              		.syntax unified
 1902              		.thumb
 1903              		.thumb_func
 1904              		.type	s11index, %function
 1905              	s11index:
 1906              	.LVL156:
 1907              	.LFB348:
 1908              		.loc 4 658 35 is_stmt 1 view -0
 1909              		.cfi_startproc
 1910              		@ args = 0, pretend = 0, frame = 0
 1911              		@ frame_needed = 0, uses_anonymous_args = 0
 1912              		.loc 4 659 3 view .LVU528
 1913              		.loc 4 658 35 is_stmt 0 view .LVU529
 1914 0000 08B5     		push	{r3, lr}
 1915              		.cfi_def_cfa_offset 8
 1916              		.cfi_offset 3, -8
 1917              		.cfi_offset 14, -4
 1918              		.loc 4 659 20 view .LVU530
 1919 0002 FFF7FEFF 		bl	getFrequency
 1920              	.LVL157:
 1921              		.loc 4 659 20 view .LVU531
 1922 0006 00EE100A 		vmov	s0, r0	@ int
 1923              	.LVL158:
 1924              	.LBB146:
 1925              	.LBI146:
 1926              		.loc 2 37 54 is_stmt 1 view .LVU532
 1927              	.LBB147:
 1928              		.loc 2 37 73 view .LVU533
 1929              	.LBE147:
 1930              	.LBE146:
 1931              		.loc 4 659 10 is_stmt 0 discriminator 1 view .LVU534
 1932 000a DFED047A 		vldr.32	s15, .L146
 1933 000e B8EE400A 		vcvt.f32.u32	s0, s0
 1934 0012 20EE270A 		vmul.f32	s0, s0, s15
 1935              	.LVL159:
 1936              	.LBB149:
 1937              	.LBB148:
 1938              		.loc 2 37 73 view .LVU535
ARM GAS  C:\msys64\tmp\ccGTf9yH.s 			page 35


 1939              		.syntax unified
 1940              	@ 37 "vna_math.h" 1
 1941 0016 B1EEC00A 		vsqrt.f32 s0, s0
 1942              	@ 0 "" 2
 1943              	.LVL160:
 1944              		.loc 2 37 122 is_stmt 1 view .LVU536
 1945              		.loc 2 37 122 is_stmt 0 view .LVU537
 1946              		.thumb
 1947              		.syntax unified
 1948              	.LBE148:
 1949              	.LBE149:
 1950              		.loc 4 660 1 view .LVU538
 1951 001a 08BD     		pop	{r3, pc}
 1952              	.L147:
 1953              		.align	2
 1954              	.L146:
 1955 001c 5F708930 		.word	814313567
 1956              		.cfi_endproc
 1957              	.LFE348:
 1958              		.size	s11index, .-s11index
 1959              		.section	.text.measure_search_value,"ax",%progbits
 1960              		.align	1
 1961              		.syntax unified
 1962              		.thumb
 1963              		.thumb_func
 1964              		.type	measure_search_value, %function
 1965              	measure_search_value:
 1966              	.LVL161:
 1967              	.LFB320:
 1968              		.loc 4 51 110 is_stmt 1 view -0
 1969              		.cfi_startproc
 1970              		@ args = 0, pretend = 0, frame = 8
 1971              		@ frame_needed = 0, uses_anonymous_args = 0
 1972              		.loc 4 52 3 view .LVU540
 1973              		.loc 4 51 110 is_stmt 0 view .LVU541
 1974 0000 2DE9F047 		push	{r4, r5, r6, r7, r8, r9, r10, lr}
 1975              		.cfi_def_cfa_offset 32
 1976              		.cfi_offset 4, -32
 1977              		.cfi_offset 5, -28
 1978              		.cfi_offset 6, -24
 1979              		.cfi_offset 7, -20
 1980              		.cfi_offset 8, -16
 1981              		.cfi_offset 9, -12
 1982              		.cfi_offset 10, -8
 1983              		.cfi_offset 14, -4
 1984 0004 2DED048B 		vpush.64	{d8, d9}
 1985              		.cfi_def_cfa_offset 48
 1986              		.cfi_offset 80, -48
 1987              		.cfi_offset 81, -44
 1988              		.cfi_offset 82, -40
 1989              		.cfi_offset 83, -36
 1990              		.loc 4 52 12 view .LVU542
 1991 0008 0488     		ldrh	r4, [r0]
 1992              	.LVL162:
 1993              		.loc 4 53 3 is_stmt 1 view .LVU543
 1994              		.loc 4 54 3 view .LVU544
 1995              		.loc 4 56 13 is_stmt 0 discriminator 1 view .LVU545
ARM GAS  C:\msys64\tmp\ccGTf9yH.s 			page 36


 1996 000a DFF8F090 		ldr	r9, .L161+4
 1997              		.loc 4 51 110 view .LVU546
 1998 000e 82B0     		sub	sp, sp, #8
 1999              		.cfi_def_cfa_offset 56
 2000              		.loc 4 51 110 view .LVU547
 2001 0010 0646     		mov	r6, r0
 2002              		.loc 4 54 18 view .LVU548
 2003 0012 2046     		mov	r0, r4
 2004              	.LVL163:
 2005              		.loc 4 51 110 view .LVU549
 2006 0014 B0EE409A 		vmov.f32	s18, s0
 2007 0018 0F46     		mov	r7, r1
 2008 001a 1546     		mov	r5, r2
 2009 001c 9846     		mov	r8, r3
 2010              		.loc 4 54 18 view .LVU550
 2011 001e 8847     		blx	r1
 2012              	.LVL164:
 2013              		.loc 4 55 8 view .LVU551
 2014 0020 B4EEC90A 		vcmpe.f32	s0, s18
 2015 0024 F1EE10FA 		vmrs	APSR_nzcv, FPSCR
 2016              		.loc 4 54 18 view .LVU552
 2017 0028 F0EE408A 		vmov.f32	s17, s0
 2018              	.LVL165:
 2019              		.loc 4 55 3 is_stmt 1 view .LVU553
 2020              		.loc 4 55 8 is_stmt 0 view .LVU554
 2021 002c CCBF     		ite	gt
 2022 002e 4FF0010A 		movgt	r10, #1
 2023 0032 4FF0000A 		movle	r10, #0
 2024              	.LVL166:
 2025              		.loc 4 56 3 is_stmt 1 view .LVU555
 2026              		.loc 4 54 11 is_stmt 0 discriminator 1 view .LVU556
 2027 0036 F0EE409A 		vmov.f32	s19, s0
 2028              	.LVL167:
 2029              	.L149:
 2030              		.loc 4 56 11 is_stmt 1 discriminator 1 view .LVU557
 2031 003a B9F81A30 		ldrh	r3, [r9, #26]
 2032 003e A342     		cmp	r3, r4
 2033 0040 17D9     		bls	.L152
 2034              		.loc 4 57 5 view .LVU558
 2035              		.loc 4 57 10 is_stmt 0 view .LVU559
 2036 0042 2046     		mov	r0, r4
 2037 0044 B847     		blx	r7
 2038              	.LVL168:
 2039              		.loc 4 58 22 view .LVU560
 2040 0046 B4EEC09A 		vcmpe.f32	s18, s0
 2041 004a F1EE10FA 		vmrs	APSR_nzcv, FPSCR
 2042              		.loc 4 58 7 view .LVU561
 2043 004e 4CBF     		ite	mi
 2044 0050 0123     		movmi	r3, #1
 2045 0052 0023     		movpl	r3, #0
 2046 0054 5345     		cmp	r3, r10
 2047              		.loc 4 57 10 view .LVU562
 2048 0056 B0EE408A 		vmov.f32	s16, s0
 2049              	.LVL169:
 2050              		.loc 4 58 5 is_stmt 1 view .LVU563
 2051              		.loc 4 58 7 is_stmt 0 view .LVU564
 2052 005a 06D1     		bne	.L150
ARM GAS  C:\msys64\tmp\ccGTf9yH.s 			page 37


 2053              		.loc 4 59 5 is_stmt 1 view .LVU565
 2054              	.LVL170:
 2055              		.loc 4 60 5 view .LVU566
 2056              		.loc 4 56 28 view .LVU567
 2057 005c 2C44     		add	r4, r4, r5
 2058              	.LVL171:
 2059              		.loc 4 59 8 is_stmt 0 view .LVU568
 2060 005e F0EE698A 		vmov.f32	s17, s19
 2061              		.loc 4 56 28 view .LVU569
 2062 0062 A4B2     		uxth	r4, r4
 2063              	.LVL172:
 2064              		.loc 4 60 8 view .LVU570
 2065 0064 F0EE409A 		vmov.f32	s19, s0
 2066              	.LVL173:
 2067              		.loc 4 60 8 view .LVU571
 2068 0068 E7E7     		b	.L149
 2069              	.LVL174:
 2070              	.L150:
 2071              		.loc 4 62 3 is_stmt 1 view .LVU572
 2072              		.loc 4 62 6 is_stmt 0 view .LVU573
 2073 006a B9F81A30 		ldrh	r3, [r9, #26]
 2074 006e A342     		cmp	r3, r4
 2075 0070 02D8     		bhi	.L153
 2076              	.L152:
 2077              		.loc 4 62 33 discriminator 1 view .LVU574
 2078 0072 9FED210A 		vldr.32	s0, .L161
 2079              	.LVL175:
 2080              		.loc 4 62 33 discriminator 1 view .LVU575
 2081 0076 3AE0     		b	.L148
 2082              	.LVL176:
 2083              	.L153:
 2084              		.loc 4 63 3 is_stmt 1 view .LVU576
 2085              		.loc 4 63 4 is_stmt 0 view .LVU577
 2086 0078 641B     		subs	r4, r4, r5
 2087              	.LVL177:
 2088              		.loc 4 63 4 view .LVU578
 2089 007a A4B2     		uxth	r4, r4
 2090              	.LVL178:
 2091              		.loc 4 64 3 is_stmt 1 view .LVU579
 2092              		.loc 4 65 3 is_stmt 0 view .LVU580
 2093 007c 4046     		mov	r0, r8
 2094              		.loc 4 64 8 view .LVU581
 2095 007e 3480     		strh	r4, [r6]	@ movhi
 2096              		.loc 4 65 3 is_stmt 1 view .LVU582
 2097 0080 2146     		mov	r1, r4
 2098 0082 FFF7FEFF 		bl	set_marker_index
 2099              	.LVL179:
 2100              		.loc 4 67 3 view .LVU583
 2101              		.loc 4 67 30 is_stmt 0 view .LVU584
 2102 0086 38EE887A 		vadd.f32	s14, s17, s16
 2103              		.loc 4 68 30 view .LVU585
 2104 008a 78EE680A 		vsub.f32	s1, s16, s17
 2105              		.loc 4 67 15 view .LVU586
 2106 008e F6EE007A 		vmov.f32	s15, #5.0e-1
 2107              	.LVL180:
 2108              		.loc 4 68 3 is_stmt 1 view .LVU587
 2109              		.loc 4 69 3 view .LVU588
ARM GAS  C:\msys64\tmp\ccGTf9yH.s 			page 38


 2110              		.loc 4 70 3 view .LVU589
 2111              		.loc 4 71 3 view .LVU590
 2112 0092 B0EE690A 		vmov.f32	s0, s19
 2113 0096 97EE270A 		vfnms.f32	s0, s14, s15
 2114              	.LVL181:
 2115              		.loc 4 71 3 is_stmt 0 view .LVU591
 2116 009a 6846     		mov	r0, sp
 2117 009c 39EEC91A 		vsub.f32	s2, s19, s18
 2118              	.LVL182:
 2119              		.loc 4 71 3 view .LVU592
 2120 00a0 60EEA70A 		vmul.f32	s1, s1, s15
 2121              	.LVL183:
 2122              		.loc 4 71 3 view .LVU593
 2123 00a4 FFF7FEFF 		bl	match_quadratic_equation
 2124              	.LVL184:
 2125              		.loc 4 73 3 is_stmt 1 view .LVU594
 2126              		.loc 4 73 17 is_stmt 0 view .LVU595
 2127 00a8 DDED008A 		vldr.32	s17, [sp]
 2128              	.LVL185:
 2129              		.loc 4 73 47 view .LVU596
 2130 00ac F5EEC08A 		vcmpe.f32	s17, #0
 2131 00b0 F1EE10FA 		vmrs	APSR_nzcv, FPSCR
 2132 00b4 06DD     		ble	.L155
 2133              		.loc 4 73 25 discriminator 1 view .LVU597
 2134 00b6 F7EE007A 		vmov.f32	s15, #1.0e+0
 2135 00ba F4EEE78A 		vcmpe.f32	s17, s15
 2136 00be F1EE10FA 		vmrs	APSR_nzcv, FPSCR
 2137 00c2 01D4     		bmi	.L157
 2138              	.L155:
 2139              		.loc 4 73 47 discriminator 4 view .LVU598
 2140 00c4 DDED018A 		vldr.32	s17, [sp, #4]
 2141              	.L157:
 2142              	.LVL186:
 2143              		.loc 4 75 3 is_stmt 1 view .LVU599
 2144              		.loc 4 75 6 is_stmt 0 view .LVU600
 2145 00c8 0135     		adds	r5, r5, #1
 2146              	.LVL187:
 2147              		.loc 4 75 17 is_stmt 1 discriminator 1 view .LVU601
 2148              		.loc 4 76 10 is_stmt 0 view .LVU602
 2149 00ca 2046     		mov	r0, r4
 2150              		.loc 4 75 20 discriminator 1 view .LVU603
 2151 00cc 08BF     		it	eq
 2152 00ce F1EE688A 		vnegeq.f32	s17, s17
 2153              	.LVL188:
 2154              		.loc 4 76 3 is_stmt 1 view .LVU604
 2155              		.loc 4 76 10 is_stmt 0 view .LVU605
 2156 00d2 FFF7FEFF 		bl	getFrequency
 2157              	.LVL189:
 2158 00d6 08EE100A 		vmov	s16, r0	@ int
 2159              	.LVL190:
 2160              		.loc 4 76 28 discriminator 1 view .LVU606
 2161 00da FFF7FEFF 		bl	getFrequencyStep
 2162              	.LVL191:
 2163 00de 07EE900A 		vmov	s15, r0	@ int
 2164              		.loc 4 76 26 discriminator 1 view .LVU607
 2165 00e2 B8EE480A 		vcvt.f32.u32	s0, s16
 2166              		.loc 4 76 47 discriminator 2 view .LVU608
ARM GAS  C:\msys64\tmp\ccGTf9yH.s 			page 39


 2167 00e6 F8EE677A 		vcvt.f32.u32	s15, s15
 2168              		.loc 4 76 26 discriminator 2 view .LVU609
 2169 00ea A7EEA80A 		vfma.f32	s0, s15, s17
 2170              	.LVL192:
 2171              	.L148:
 2172              		.loc 4 77 1 view .LVU610
 2173 00ee 02B0     		add	sp, sp, #8
 2174              		.cfi_def_cfa_offset 48
 2175              		@ sp needed
 2176 00f0 BDEC048B 		vldm	sp!, {d8-d9}
 2177              		.cfi_restore 82
 2178              		.cfi_restore 83
 2179              		.cfi_restore 80
 2180              		.cfi_restore 81
 2181              		.cfi_def_cfa_offset 32
 2182              	.LVL193:
 2183              		.loc 4 77 1 view .LVU611
 2184 00f4 BDE8F087 		pop	{r4, r5, r6, r7, r8, r9, r10, pc}
 2185              	.LVL194:
 2186              	.L162:
 2187              		.loc 4 77 1 view .LVU612
 2188              		.align	2
 2189              	.L161:
 2190 00f8 00000000 		.word	0
 2191 00fc 00000000 		.word	current_props
 2192              		.cfi_endproc
 2193              	.LFE320:
 2194              		.size	measure_search_value, .-measure_search_value
 2195              		.section	.text.cell_printf,"ax",%progbits
 2196              		.align	1
 2197              		.p2align 4,,15
 2198              		.syntax unified
 2199              		.thumb
 2200              		.thumb_func
 2201              		.type	cell_printf, %function
 2202              	cell_printf:
 2203              	.LVL195:
 2204              	.LFB253:
 2205              		.loc 1 493 1 is_stmt 1 view -0
 2206              		.cfi_startproc
 2207              		@ args = 4, pretend = 8, frame = 16
 2208              		@ frame_needed = 0, uses_anonymous_args = 1
 2209              		.loc 1 494 3 view .LVU614
 2210              		.loc 1 499 3 view .LVU615
 2211              		.loc 1 493 1 is_stmt 0 view .LVU616
 2212 0000 0CB4     		push	{r2, r3}
 2213              		.cfi_def_cfa_offset 8
 2214              		.cfi_offset 2, -8
 2215              		.cfi_offset 3, -4
 2216 0002 00B5     		push	{lr}
 2217              		.cfi_def_cfa_offset 12
 2218              		.cfi_offset 14, -12
 2219              		.loc 1 499 20 view .LVU617
 2220 0004 01F10B02 		add	r2, r1, #11
 2221              		.loc 1 499 6 view .LVU618
 2222 0008 2A2A     		cmp	r2, #42
 2223              		.loc 1 493 1 view .LVU619
ARM GAS  C:\msys64\tmp\ccGTf9yH.s 			page 40


 2224 000a 85B0     		sub	sp, sp, #20
 2225              		.cfi_def_cfa_offset 32
 2226              		.loc 1 499 6 view .LVU620
 2227 000c 01D8     		bhi	.L166
 2228              		.loc 1 499 71 discriminator 1 view .LVU621
 2229 000e 1F28     		cmp	r0, #31
 2230 0010 05DD     		ble	.L168
 2231              	.L166:
 2232              		.loc 1 500 12 view .LVU622
 2233 0012 0020     		movs	r0, #0
 2234              	.LVL196:
 2235              		.loc 1 510 1 view .LVU623
 2236 0014 05B0     		add	sp, sp, #20
 2237              		.cfi_remember_state
 2238              		.cfi_def_cfa_offset 12
 2239              		@ sp needed
 2240 0016 5DF804EB 		ldr	lr, [sp], #4
 2241              		.cfi_restore 14
 2242              		.cfi_def_cfa_offset 8
 2243 001a 02B0     		add	sp, sp, #8
 2244              		.cfi_restore 3
 2245              		.cfi_restore 2
 2246              		.cfi_def_cfa_offset 0
 2247 001c 7047     		bx	lr
 2248              	.LVL197:
 2249              	.L168:
 2250              		.cfi_restore_state
 2251              		.loc 1 501 3 is_stmt 1 view .LVU624
 2252              		.loc 1 503 3 view .LVU625
 2253 001e 0B46     		mov	r3, r1
 2254              		.loc 1 503 19 is_stmt 0 view .LVU626
 2255 0020 0849     		ldr	r1, .L169
 2256              	.LVL198:
 2257              		.loc 1 503 19 view .LVU627
 2258 0022 0291     		str	r1, [sp, #8]
 2259              		.loc 1 505 3 view .LVU628
 2260 0024 07AA     		add	r2, sp, #28
 2261              	.LVL199:
 2262              		.loc 1 503 19 view .LVU629
 2263 0026 ADF80C00 		strh	r0, [sp, #12]	@ movhi
 2264              		.loc 1 506 16 view .LVU630
 2265 002a 0699     		ldr	r1, [sp, #24]
 2266              		.loc 1 503 19 view .LVU631
 2267 002c ADF80E30 		strh	r3, [sp, #14]	@ movhi
 2268              		.loc 1 505 3 is_stmt 1 view .LVU632
 2269              		.loc 1 506 16 is_stmt 0 view .LVU633
 2270 0030 02A8     		add	r0, sp, #8
 2271              	.LVL200:
 2272              		.loc 1 505 3 view .LVU634
 2273 0032 0192     		str	r2, [sp, #4]
 2274              		.loc 1 506 3 is_stmt 1 view .LVU635
 2275              		.loc 1 506 16 is_stmt 0 view .LVU636
 2276 0034 FFF7FEFF 		bl	chvprintf
 2277              	.LVL201:
 2278              		.loc 1 507 3 is_stmt 1 view .LVU637
 2279              		.loc 1 509 3 view .LVU638
 2280              		.loc 1 510 1 is_stmt 0 view .LVU639
ARM GAS  C:\msys64\tmp\ccGTf9yH.s 			page 41


 2281 0038 05B0     		add	sp, sp, #20
 2282              		.cfi_def_cfa_offset 12
 2283              		@ sp needed
 2284 003a 5DF804EB 		ldr	lr, [sp], #4
 2285              		.cfi_restore 14
 2286              		.cfi_def_cfa_offset 8
 2287 003e 02B0     		add	sp, sp, #8
 2288              		.cfi_restore 3
 2289              		.cfi_restore 2
 2290              		.cfi_def_cfa_offset 0
 2291 0040 7047     		bx	lr
 2292              	.L170:
 2293 0042 00BF     		.align	2
 2294              	.L169:
 2295 0044 00000000 		.word	cell_vmt.3
 2296              		.cfi_endproc
 2297              	.LFE253:
 2298              		.size	cell_printf, .-cell_printf
 2299              		.section	.rodata.draw_s11_resonance.str1.1,"aMS",%progbits,1
 2300              	.LC1:
 2301 0000 53313120 		.ascii	"S11 RESONANCE\000"
 2301      5245534F 
 2301      4E414E43 
 2301      4500
 2302              	.LC2:
 2303 000e 4E6F7420 		.ascii	"Not found\000"
 2303      666F756E 
 2303      6400
 2304              	.LC3:
 2305 0018 2571487A 		.ascii	"%qHz, %F%+jF\036\000"
 2305      2C202546 
 2305      252B6A46 
 2305      1E00
 2306              		.section	.text.draw_s11_resonance,"ax",%progbits
 2307              		.align	1
 2308              		.syntax unified
 2309              		.thumb
 2310              		.thumb_func
 2311              		.type	draw_s11_resonance, %function
 2312              	draw_s11_resonance:
 2313              	.LVL202:
 2314              	.LFB353:
 2315              		.loc 4 739 48 is_stmt 1 view -0
 2316              		.cfi_startproc
 2317              		@ args = 0, pretend = 0, frame = 0
 2318              		@ frame_needed = 0, uses_anonymous_args = 0
 2319              		.loc 4 740 3 view .LVU641
 2320              		.loc 4 739 48 is_stmt 0 view .LVU642
 2321 0000 2DE9F043 		push	{r4, r5, r6, r7, r8, r9, lr}
 2322              		.cfi_def_cfa_offset 28
 2323              		.cfi_offset 4, -28
 2324              		.cfi_offset 5, -24
 2325              		.cfi_offset 6, -20
 2326              		.cfi_offset 7, -16
 2327              		.cfi_offset 8, -12
 2328              		.cfi_offset 9, -8
 2329              		.cfi_offset 14, -4
ARM GAS  C:\msys64\tmp\ccGTf9yH.s 			page 42


 2330              		.loc 4 741 20 view .LVU643
 2331 0004 DFF88080 		ldr	r8, .L177+12
 2332              		.loc 4 740 3 view .LVU644
 2333 0008 1C4A     		ldr	r2, .L177
 2334 000a 05B2     		sxth	r5, r0
 2335              		.loc 4 739 48 view .LVU645
 2336 000c 85B0     		sub	sp, sp, #20
 2337              		.cfi_def_cfa_offset 48
 2338              		.loc 4 739 48 view .LVU646
 2339 000e 0C46     		mov	r4, r1
 2340              		.loc 4 740 3 view .LVU647
 2341 0010 2846     		mov	r0, r5
 2342              	.LVL203:
 2343              		.loc 4 740 3 view .LVU648
 2344 0012 09B2     		sxth	r1, r1
 2345              	.LVL204:
 2346              		.loc 4 740 3 view .LVU649
 2347 0014 FFF7FEFF 		bl	cell_printf
 2348              	.LVL205:
 2349              		.loc 4 741 3 is_stmt 1 view .LVU650
 2350              		.loc 4 741 6 is_stmt 0 view .LVU651
 2351 0018 98F84830 		ldrb	r3, [r8, #72]	@ zero_extendqisi2
 2352 001c 13B1     		cbz	r3, .L172
 2353 001e 4646     		mov	r6, r8
 2354              	.LBB150:
 2355              		.loc 4 745 12 view .LVU652
 2356 0020 0027     		movs	r7, #0
 2357 0022 09E0     		b	.L173
 2358              	.L172:
 2359              	.LBE150:
 2360              		.loc 4 742 5 is_stmt 1 view .LVU653
 2361              	.LVL206:
 2362              		.loc 4 742 23 is_stmt 0 view .LVU654
 2363 0024 04F10C01 		add	r1, r4, #12
 2364              	.LVL207:
 2365              		.loc 4 742 5 view .LVU655
 2366 0028 154A     		ldr	r2, .L177+4
 2367 002a 09B2     		sxth	r1, r1
 2368              	.LVL208:
 2369              		.loc 4 742 5 view .LVU656
 2370 002c 2846     		mov	r0, r5
 2371              		.loc 4 747 1 view .LVU657
 2372 002e 05B0     		add	sp, sp, #20
 2373              		.cfi_remember_state
 2374              		.cfi_def_cfa_offset 28
 2375              		@ sp needed
 2376 0030 BDE8F043 		pop	{r4, r5, r6, r7, r8, r9, lr}
 2377              		.cfi_restore 14
 2378              		.cfi_restore 9
 2379              		.cfi_restore 8
 2380              		.cfi_restore 7
 2381              		.cfi_restore 6
 2382              		.cfi_restore 5
 2383              		.cfi_restore 4
 2384              		.cfi_def_cfa_offset 0
 2385              	.LVL209:
 2386              		.loc 4 742 5 view .LVU658
ARM GAS  C:\msys64\tmp\ccGTf9yH.s 			page 43


 2387 0034 FFF7FEBF 		b	cell_printf
 2388              	.LVL210:
 2389              	.L173:
 2390              		.cfi_restore_state
 2391              	.LBB151:
 2392              		.loc 4 745 21 is_stmt 1 discriminator 1 view .LVU659
 2393              		.loc 4 745 36 is_stmt 0 discriminator 1 view .LVU660
 2394 0038 98F84830 		ldrb	r3, [r8, #72]	@ zero_extendqisi2
 2395              		.loc 4 745 21 discriminator 1 view .LVU661
 2396 003c BB42     		cmp	r3, r7
 2397 003e 06F10C06 		add	r6, r6, #12
 2398 0042 17DD     		ble	.L176
 2399              		.loc 4 746 5 is_stmt 1 view .LVU662
 2400 0044 56F8040C 		ldr	r0, [r6, #-4]	@ float
 2401 0048 FFF7FEFF 		bl	__aeabi_f2d
 2402              	.LVL211:
 2403 004c CDE90201 		strd	r0, [sp, #8]
 2404 0050 56F8080C 		ldr	r0, [r6, #-8]	@ float
 2405 0054 FFF7FEFF 		bl	__aeabi_f2d
 2406              	.LVL212:
 2407 0058 CDE90001 		strd	r0, [sp]
 2408              		.loc 4 746 23 is_stmt 0 view .LVU663
 2409 005c 0C34     		adds	r4, r4, #12
 2410              	.LVL213:
 2411              		.loc 4 746 5 view .LVU664
 2412 005e 0FFA84F9 		sxth	r9, r4
 2413 0062 56F80C3C 		ldr	r3, [r6, #-12]
 2414 0066 074A     		ldr	r2, .L177+8
 2415 0068 4946     		mov	r1, r9
 2416 006a 2846     		mov	r0, r5
 2417 006c FFF7FEFF 		bl	cell_printf
 2418              	.LVL214:
 2419              		.loc 4 745 46 is_stmt 1 discriminator 3 view .LVU665
 2420 0070 0137     		adds	r7, r7, #1
 2421              	.LVL215:
 2422              		.loc 4 745 46 is_stmt 0 discriminator 3 view .LVU666
 2423 0072 E1E7     		b	.L173
 2424              	.LVL216:
 2425              	.L176:
 2426              		.loc 4 745 46 discriminator 3 view .LVU667
 2427              	.LBE151:
 2428              		.loc 4 747 1 view .LVU668
 2429 0074 05B0     		add	sp, sp, #20
 2430              		.cfi_def_cfa_offset 28
 2431              		@ sp needed
 2432 0076 BDE8F083 		pop	{r4, r5, r6, r7, r8, r9, pc}
 2433              	.LVL217:
 2434              	.L178:
 2435              		.loc 4 747 1 view .LVU669
 2436 007a 00BF     		.align	2
 2437              	.L177:
 2438 007c 00000000 		.word	.LC1
 2439 0080 0E000000 		.word	.LC2
 2440 0084 18000000 		.word	.LC3
 2441 0088 00000000 		.word	measure_memory
 2442              		.cfi_endproc
 2443              	.LFE353:
ARM GAS  C:\msys64\tmp\ccGTf9yH.s 			page 44


 2444              		.size	draw_s11_resonance, .-draw_s11_resonance
 2445              		.section	.rodata.draw_s11_cable.str1.1,"aMS",%progbits,1
 2446              	.LC4:
 2447 0000 53313120 		.ascii	"S11 CABLE\000"
 2447      4341424C 
 2447      4500
 2448              	.LC5:
 2449 000a 5A30203D 		.ascii	"Z0 = %F\036\000"
 2449      2025461E 
 2449      00
 2450              	.LC6:
 2451 0013 56463D25 		.ascii	"VF=%.2f%% (Length = %Fm)\000"
 2451      2E326625 
 2451      2520284C 
 2451      656E6774 
 2451      68203D20 
 2452              	.LC7:
 2453 002c 4C656E67 		.ascii	"Length = %Fm (VF=%d%%)\000"
 2453      7468203D 
 2453      2025466D 
 2453      20285646 
 2453      3D256425 
 2454              	.LC8:
 2455 0043 4C6F7373 		.ascii	"Loss = %FdB (%.4FHz)\000"
 2455      203D2025 
 2455      46644220 
 2455      28252E34 
 2455      46487A29 
 2456              	.LC9:
 2457 0058 41747420 		.ascii	"Att (dB/100m): %FdB (%.4FHz)\000"
 2457      2864422F 
 2457      3130306D 
 2457      293A2025 
 2457      46644220 
 2458              		.section	.text.draw_s11_cable,"ax",%progbits
 2459              		.align	1
 2460              		.syntax unified
 2461              		.thumb
 2462              		.thumb_func
 2463              		.type	draw_s11_cable, %function
 2464              	draw_s11_cable:
 2465              	.LVL218:
 2466              	.LFB349:
 2467              		.loc 4 662 43 is_stmt 1 view -0
 2468              		.cfi_startproc
 2469              		@ args = 0, pretend = 0, frame = 0
 2470              		@ frame_needed = 0, uses_anonymous_args = 0
 2471              		.loc 4 663 3 view .LVU671
 2472              		.loc 4 662 43 is_stmt 0 view .LVU672
 2473 0000 2DE9F041 		push	{r4, r5, r6, r7, r8, lr}
 2474              		.cfi_def_cfa_offset 24
 2475              		.cfi_offset 4, -24
 2476              		.cfi_offset 5, -20
 2477              		.cfi_offset 6, -16
 2478              		.cfi_offset 7, -12
 2479              		.cfi_offset 8, -8
 2480              		.cfi_offset 14, -4
ARM GAS  C:\msys64\tmp\ccGTf9yH.s 			page 45


 2481 0004 2DED028B 		vpush.64	{d8}
 2482              		.cfi_def_cfa_offset 32
 2483              		.cfi_offset 80, -32
 2484              		.cfi_offset 81, -28
 2485              		.loc 4 664 16 view .LVU673
 2486 0008 444E     		ldr	r6, .L195
 2487              		.loc 4 663 3 view .LVU674
 2488 000a 454A     		ldr	r2, .L195+4
 2489 000c 05B2     		sxth	r5, r0
 2490              		.loc 4 662 43 view .LVU675
 2491 000e 84B0     		sub	sp, sp, #16
 2492              		.cfi_def_cfa_offset 48
 2493              		.loc 4 662 43 view .LVU676
 2494 0010 0C46     		mov	r4, r1
 2495              		.loc 4 663 3 view .LVU677
 2496 0012 2846     		mov	r0, r5
 2497              	.LVL219:
 2498              		.loc 4 663 3 view .LVU678
 2499 0014 09B2     		sxth	r1, r1
 2500              	.LVL220:
 2501              		.loc 4 663 3 view .LVU679
 2502 0016 FFF7FEFF 		bl	cell_printf
 2503              	.LVL221:
 2504              		.loc 4 664 3 is_stmt 1 view .LVU680
 2505              		.loc 4 664 16 is_stmt 0 view .LVU681
 2506 001a D6ED017A 		vldr.32	s15, [r6, #4]
 2507              		.loc 4 664 6 view .LVU682
 2508 001e F5EE407A 		vcmp.f32	s15, #0
 2509 0022 F1EE10FA 		vmrs	APSR_nzcv, FPSCR
 2510 0026 0CD0     		beq	.L180
 2511              		.loc 4 665 5 view .LVU683
 2512 0028 17EE900A 		vmov	r0, s15
 2513 002c FFF7FEFF 		bl	__aeabi_f2d
 2514              	.LVL222:
 2515              		.loc 4 665 23 view .LVU684
 2516 0030 0C34     		adds	r4, r4, #12
 2517              	.LVL223:
 2518              		.loc 4 665 5 is_stmt 1 view .LVU685
 2519              		.loc 4 665 5 is_stmt 0 view .LVU686
 2520 0032 27B2     		sxth	r7, r4
 2521 0034 CDE90001 		strd	r0, [sp]
 2522 0038 3A4A     		ldr	r2, .L195+8
 2523 003a 3946     		mov	r1, r7
 2524 003c 2846     		mov	r0, r5
 2525 003e FFF7FEFF 		bl	cell_printf
 2526              	.LVL224:
 2527              	.L180:
 2528              		.loc 4 668 3 is_stmt 1 view .LVU687
 2529              		.loc 4 668 16 is_stmt 0 view .LVU688
 2530 0042 96ED058A 		vldr.32	s16, [r6, #20]
 2531              		.loc 4 668 6 view .LVU689
 2532 0046 B5EE408A 		vcmp.f32	s16, #0
 2533              		.loc 4 669 23 view .LVU690
 2534 004a 04F10C08 		add	r8, r4, #12
 2535              		.loc 4 668 6 view .LVU691
 2536 004e F1EE10FA 		vmrs	APSR_nzcv, FPSCR
 2537              		.loc 4 669 5 view .LVU692
ARM GAS  C:\msys64\tmp\ccGTf9yH.s 			page 46


 2538 0052 0FFA88F7 		sxth	r7, r8
 2539              		.loc 4 668 6 view .LVU693
 2540 0056 12D0     		beq	.L181
 2541              		.loc 4 669 5 is_stmt 1 view .LVU694
 2542              	.LVL225:
 2543              		.loc 4 669 5 is_stmt 0 view .LVU695
 2544 0058 334B     		ldr	r3, .L195+12
 2545 005a 1868     		ldr	r0, [r3]	@ float
 2546 005c FFF7FEFF 		bl	__aeabi_f2d
 2547              	.LVL226:
 2548 0060 CDE90201 		strd	r0, [sp, #8]
 2549 0064 18EE100A 		vmov	r0, s16
 2550 0068 FFF7FEFF 		bl	__aeabi_f2d
 2551              	.LVL227:
 2552 006c 2F4A     		ldr	r2, .L195+16
 2553 006e CDE90001 		strd	r0, [sp]
 2554 0072 3946     		mov	r1, r7
 2555 0074 2846     		mov	r0, r5
 2556 0076 FFF7FEFF 		bl	cell_printf
 2557              	.LVL228:
 2558              	.L183:
 2559              		.loc 4 669 23 view .LVU696
 2560 007a 4446     		mov	r4, r8
 2561 007c 16E0     		b	.L182
 2562              	.LVL229:
 2563              	.L181:
 2564              		.loc 4 670 8 is_stmt 1 view .LVU697
 2565              		.loc 4 670 21 is_stmt 0 view .LVU698
 2566 007e D6ED027A 		vldr.32	s15, [r6, #8]
 2567              		.loc 4 670 11 view .LVU699
 2568 0082 F5EE407A 		vcmp.f32	s15, #0
 2569 0086 F1EE10FA 		vmrs	APSR_nzcv, FPSCR
 2570 008a 0FD0     		beq	.L182
 2571              		.loc 4 671 5 is_stmt 1 view .LVU700
 2572              	.LVL230:
 2573              		.loc 4 671 97 is_stmt 0 view .LVU701
 2574 008c 284B     		ldr	r3, .L195+20
 2575              		.loc 4 671 5 view .LVU702
 2576 008e 17EE900A 		vmov	r0, s15
 2577 0092 93F89930 		ldrb	r3, [r3, #153]	@ zero_extendqisi2
 2578 0096 0293     		str	r3, [sp, #8]
 2579 0098 FFF7FEFF 		bl	__aeabi_f2d
 2580              	.LVL231:
 2581 009c 254A     		ldr	r2, .L195+24
 2582 009e CDE90001 		strd	r0, [sp]
 2583 00a2 3946     		mov	r1, r7
 2584 00a4 2846     		mov	r0, r5
 2585 00a6 FFF7FEFF 		bl	cell_printf
 2586              	.LVL232:
 2587 00aa E6E7     		b	.L183
 2588              	.LVL233:
 2589              	.L182:
 2590              		.loc 4 673 3 is_stmt 1 view .LVU703
 2591              		.loc 4 673 3 is_stmt 0 view .LVU704
 2592 00ac 3068     		ldr	r0, [r6]	@ float
 2593 00ae FFF7FEFF 		bl	__aeabi_f2d
 2594              	.LVL234:
ARM GAS  C:\msys64\tmp\ccGTf9yH.s 			page 47


 2595 00b2 CDE90201 		strd	r0, [sp, #8]
 2596 00b6 3069     		ldr	r0, [r6, #16]	@ float
 2597 00b8 FFF7FEFF 		bl	__aeabi_f2d
 2598              	.LVL235:
 2599              		.loc 4 673 21 view .LVU705
 2600 00bc 04F10C07 		add	r7, r4, #12
 2601              		.loc 4 673 3 view .LVU706
 2602 00c0 3FB2     		sxth	r7, r7
 2603 00c2 CDE90001 		strd	r0, [sp]
 2604 00c6 1C4A     		ldr	r2, .L195+28
 2605 00c8 3946     		mov	r1, r7
 2606 00ca 2846     		mov	r0, r5
 2607 00cc FFF7FEFF 		bl	cell_printf
 2608              	.LVL236:
 2609              		.loc 4 674 3 is_stmt 1 view .LVU707
 2610              		.loc 4 674 16 is_stmt 0 view .LVU708
 2611 00d0 96ED028A 		vldr.32	s16, [r6, #8]
 2612              		.loc 4 674 6 view .LVU709
 2613 00d4 B5EE408A 		vcmp.f32	s16, #0
 2614 00d8 F1EE10FA 		vmrs	APSR_nzcv, FPSCR
 2615 00dc 19D0     		beq	.L179
 2616              	.LBB152:
 2617              		.loc 4 675 5 is_stmt 1 view .LVU710
 2618              	.LVL237:
 2619              		.loc 4 676 5 view .LVU711
 2620              		.loc 4 676 5 is_stmt 0 view .LVU712
 2621 00de 3068     		ldr	r0, [r6]	@ float
 2622 00e0 FFF7FEFF 		bl	__aeabi_f2d
 2623              	.LVL238:
 2624 00e4 CDE90201 		strd	r0, [sp, #8]
 2625              		.loc 4 676 122 view .LVU713
 2626 00e8 9FED147A 		vldr.32	s14, .L195+32
 2627 00ec D6ED047A 		vldr.32	s15, [r6, #16]
 2628 00f0 67EE877A 		vmul.f32	s15, s15, s14
 2629              		.loc 4 676 23 view .LVU714
 2630 00f4 1834     		adds	r4, r4, #24
 2631              	.LVL239:
 2632              		.loc 4 676 5 view .LVU715
 2633 00f6 C7EE887A 		vdiv.f32	s15, s15, s16
 2634 00fa 24B2     		sxth	r4, r4
 2635              	.LVL240:
 2636              		.loc 4 676 5 view .LVU716
 2637 00fc 17EE900A 		vmov	r0, s15
 2638 0100 FFF7FEFF 		bl	__aeabi_f2d
 2639              	.LVL241:
 2640 0104 0E4A     		ldr	r2, .L195+36
 2641 0106 CDE90001 		strd	r0, [sp]
 2642 010a 2146     		mov	r1, r4
 2643 010c 2846     		mov	r0, r5
 2644 010e FFF7FEFF 		bl	cell_printf
 2645              	.LVL242:
 2646              	.L179:
 2647              		.loc 4 676 5 view .LVU717
 2648              	.LBE152:
 2649              		.loc 4 679 1 view .LVU718
 2650 0112 04B0     		add	sp, sp, #16
 2651              		.cfi_def_cfa_offset 32
ARM GAS  C:\msys64\tmp\ccGTf9yH.s 			page 48


 2652              		@ sp needed
 2653 0114 BDEC028B 		vldm	sp!, {d8}
 2654              		.cfi_restore 80
 2655              		.cfi_restore 81
 2656              		.cfi_def_cfa_offset 24
 2657 0118 BDE8F081 		pop	{r4, r5, r6, r7, r8, pc}
 2658              	.L196:
 2659              		.align	2
 2660              	.L195:
 2661 011c 00000000 		.word	measure_memory
 2662 0120 00000000 		.word	.LC4
 2663 0124 0A000000 		.word	.LC5
 2664 0128 00000000 		.word	real_cable_len
 2665 012c 13000000 		.word	.LC6
 2666 0130 00000000 		.word	current_props
 2667 0134 2C000000 		.word	.LC7
 2668 0138 43000000 		.word	.LC8
 2669 013c 0000C842 		.word	1120403456
 2670 0140 58000000 		.word	.LC9
 2671              		.cfi_endproc
 2672              	.LFE349:
 2673              		.size	draw_s11_cable, .-draw_s11_cable
 2674              		.section	.rodata.draw_s21_pass.str1.1,"aMS",%progbits,1
 2675              	.LC10:
 2676 0000 252E3646 		.ascii	"%.6FHz\000"
 2676      487A00
 2677              	.LC11:
 2678 0007 25466442 		.ascii	"%FdB/dec\000"
 2678      2F646563 
 2678      00
 2679              	.LC12:
 2680 0010 25466442 		.ascii	"%FdB/oct\000"
 2680      2F6F6374 
 2680      00
 2681              		.section	.text.draw_s21_pass,"ax",%progbits
 2682              		.align	1
 2683              		.syntax unified
 2684              		.thumb
 2685              		.thumb_func
 2686              		.type	draw_s21_pass, %function
 2687              	draw_s21_pass:
 2688              	.LVL243:
 2689              	.LFB342:
 2690              		.loc 4 547 74 is_stmt 1 view -0
 2691              		.cfi_startproc
 2692              		@ args = 0, pretend = 0, frame = 0
 2693              		@ frame_needed = 0, uses_anonymous_args = 0
 2694              		.loc 4 548 3 view .LVU720
 2695              		.loc 4 547 74 is_stmt 0 view .LVU721
 2696 0000 F7B5     		push	{r0, r1, r2, r4, r5, r6, r7, lr}
 2697              		.cfi_def_cfa_offset 32
 2698              		.cfi_offset 4, -20
 2699              		.cfi_offset 5, -16
 2700              		.cfi_offset 6, -12
 2701              		.cfi_offset 7, -8
 2702              		.cfi_offset 14, -4
 2703              		.loc 4 548 3 view .LVU722
ARM GAS  C:\msys64\tmp\ccGTf9yH.s 			page 49


 2704 0002 05B2     		sxth	r5, r0
 2705              		.loc 4 547 74 view .LVU723
 2706 0004 1646     		mov	r6, r2
 2707 0006 0C46     		mov	r4, r1
 2708              		.loc 4 548 3 view .LVU724
 2709 0008 1A46     		mov	r2, r3
 2710              	.LVL244:
 2711              		.loc 4 548 3 view .LVU725
 2712 000a 09B2     		sxth	r1, r1
 2713              	.LVL245:
 2714              		.loc 4 548 3 view .LVU726
 2715 000c 2846     		mov	r0, r5
 2716              	.LVL246:
 2717              		.loc 4 548 3 view .LVU727
 2718 000e FFF7FEFF 		bl	cell_printf
 2719              	.LVL247:
 2720              		.loc 4 549 3 is_stmt 1 view .LVU728
 2721              		.loc 4 549 11 is_stmt 0 view .LVU729
 2722 0012 D6ED007A 		vldr.32	s15, [r6]
 2723              		.loc 4 549 6 view .LVU730
 2724 0016 F5EE407A 		vcmp.f32	s15, #0
 2725 001a F1EE10FA 		vmrs	APSR_nzcv, FPSCR
 2726 001e 0DD0     		beq	.L198
 2727              		.loc 4 549 19 is_stmt 1 discriminator 1 view .LVU731
 2728 0020 17EE900A 		vmov	r0, s15
 2729 0024 FFF7FEFF 		bl	__aeabi_f2d
 2730              	.LVL248:
 2731              		.loc 4 549 38 is_stmt 0 discriminator 1 view .LVU732
 2732 0028 04F10C07 		add	r7, r4, #12
 2733              		.loc 4 549 19 discriminator 1 view .LVU733
 2734 002c 3FB2     		sxth	r7, r7
 2735 002e CDE90001 		strd	r0, [sp]
 2736 0032 1E4A     		ldr	r2, .L211
 2737 0034 3946     		mov	r1, r7
 2738 0036 2846     		mov	r0, r5
 2739 0038 FFF7FEFF 		bl	cell_printf
 2740              	.LVL249:
 2741              	.L198:
 2742              		.loc 4 550 3 is_stmt 1 view .LVU734
 2743              		.loc 4 550 11 is_stmt 0 view .LVU735
 2744 003c D6ED017A 		vldr.32	s15, [r6, #4]
 2745              		.loc 4 550 6 view .LVU736
 2746 0040 F5EE407A 		vcmp.f32	s15, #0
 2747 0044 F1EE10FA 		vmrs	APSR_nzcv, FPSCR
 2748 0048 0DD0     		beq	.L199
 2749              		.loc 4 550 19 is_stmt 1 discriminator 1 view .LVU737
 2750 004a 17EE900A 		vmov	r0, s15
 2751 004e FFF7FEFF 		bl	__aeabi_f2d
 2752              	.LVL250:
 2753              		.loc 4 550 38 is_stmt 0 discriminator 1 view .LVU738
 2754 0052 04F11807 		add	r7, r4, #24
 2755              		.loc 4 550 19 discriminator 1 view .LVU739
 2756 0056 3FB2     		sxth	r7, r7
 2757 0058 CDE90001 		strd	r0, [sp]
 2758 005c 134A     		ldr	r2, .L211
 2759 005e 3946     		mov	r1, r7
 2760 0060 2846     		mov	r0, r5
ARM GAS  C:\msys64\tmp\ccGTf9yH.s 			page 50


 2761 0062 FFF7FEFF 		bl	cell_printf
 2762              	.LVL251:
 2763              	.L199:
 2764              		.loc 4 551 3 is_stmt 1 view .LVU740
 2765              		.loc 4 552 3 view .LVU741
 2766              		.loc 4 552 8 is_stmt 0 view .LVU742
 2767 0066 D6ED047A 		vldr.32	s15, [r6, #16]
 2768              		.loc 4 552 6 view .LVU743
 2769 006a F5EE407A 		vcmp.f32	s15, #0
 2770 006e F1EE10FA 		vmrs	APSR_nzcv, FPSCR
 2771 0072 19D0     		beq	.L197
 2772              		.loc 4 553 5 view .LVU744
 2773 0074 17EE900A 		vmov	r0, s15
 2774 0078 FFF7FEFF 		bl	__aeabi_f2d
 2775              	.LVL252:
 2776              		.loc 4 551 5 view .LVU745
 2777 007c 04F12407 		add	r7, r4, #36
 2778              	.LVL253:
 2779              		.loc 4 553 5 is_stmt 1 view .LVU746
 2780 0080 3FB2     		sxth	r7, r7
 2781              	.LVL254:
 2782              		.loc 4 553 5 is_stmt 0 view .LVU747
 2783 0082 CDE90001 		strd	r0, [sp]
 2784 0086 0A4A     		ldr	r2, .L211+4
 2785 0088 3946     		mov	r1, r7
 2786 008a 2846     		mov	r0, r5
 2787 008c FFF7FEFF 		bl	cell_printf
 2788              	.LVL255:
 2789              		.loc 4 554 5 is_stmt 1 view .LVU748
 2790 0090 7069     		ldr	r0, [r6, #20]	@ float
 2791 0092 FFF7FEFF 		bl	__aeabi_f2d
 2792              	.LVL256:
 2793              		.loc 4 554 24 is_stmt 0 view .LVU749
 2794 0096 3034     		adds	r4, r4, #48
 2795              	.LVL257:
 2796              		.loc 4 554 5 view .LVU750
 2797 0098 24B2     		sxth	r4, r4
 2798              	.LVL258:
 2799              		.loc 4 554 5 view .LVU751
 2800 009a CDE90001 		strd	r0, [sp]
 2801 009e 054A     		ldr	r2, .L211+8
 2802 00a0 2146     		mov	r1, r4
 2803 00a2 2846     		mov	r0, r5
 2804 00a4 FFF7FEFF 		bl	cell_printf
 2805              	.LVL259:
 2806              	.L197:
 2807              		.loc 4 556 1 view .LVU752
 2808 00a8 03B0     		add	sp, sp, #12
 2809              		.cfi_def_cfa_offset 20
 2810              		@ sp needed
 2811 00aa F0BD     		pop	{r4, r5, r6, r7, pc}
 2812              	.LVL260:
 2813              	.L212:
 2814              		.loc 4 556 1 view .LVU753
 2815              		.align	2
 2816              	.L211:
 2817 00ac 00000000 		.word	.LC10
ARM GAS  C:\msys64\tmp\ccGTf9yH.s 			page 51


 2818 00b0 07000000 		.word	.LC11
 2819 00b4 10000000 		.word	.LC12
 2820              		.cfi_endproc
 2821              	.LFE342:
 2822              		.size	draw_s21_pass, .-draw_s21_pass
 2823              		.section	.rodata.draw_filter_result.str1.1,"aMS",%progbits,1
 2824              	.LC13:
 2825 0000 4C6F772D 		.ascii	"Low-side\000"
 2825      73696465 
 2825      00
 2826              	.LC14:
 2827 0009 48696768 		.ascii	"High-pass\000"
 2827      2D706173 
 2827      7300
 2828              	.LC15:
 2829 0013 48696768 		.ascii	"High-side\000"
 2829      2D736964 
 2829      6500
 2830              	.LC16:
 2831 001d 4C6F772D 		.ascii	"Low-pass\000"
 2831      70617373 
 2831      00
 2832              	.LC17:
 2833 0026 53323120 		.ascii	"S21 FILTER\000"
 2833      46494C54 
 2833      455200
 2834              	.LC18:
 2835 0031 663A2025 		.ascii	"f: %.6FHz (%FdB)\000"
 2835      2E364648 
 2835      7A202825 
 2835      46644229 
 2835      00
 2836              	.LC19:
 2837 0042 42772028 		.ascii	"Bw (-%ddB): %.6FHz\000"
 2837      2D256464 
 2837      42293A20 
 2837      252E3646 
 2837      487A00
 2838              	.LC20:
 2839 0055 513A2025 		.ascii	"Q: %F\000"
 2839      4600
 2840              	.LC21:
 2841 005b 66282D25 		.ascii	"f(-%d):\000"
 2841      64293A00 
 2842              	.LC22:
 2843 0063 526F6C6C 		.ascii	"Roll:\000"
 2843      3A00
 2844              		.section	.text.draw_filter_result,"ax",%progbits
 2845              		.align	1
 2846              		.syntax unified
 2847              		.thumb
 2848              		.thumb_func
 2849              		.type	draw_filter_result, %function
 2850              	draw_filter_result:
 2851              	.LVL261:
 2852              	.LFB343:
 2853              		.loc 4 559 47 is_stmt 1 view -0
ARM GAS  C:\msys64\tmp\ccGTf9yH.s 			page 52


 2854              		.cfi_startproc
 2855              		@ args = 0, pretend = 0, frame = 0
 2856              		@ frame_needed = 0, uses_anonymous_args = 0
 2857              		.loc 4 560 3 view .LVU755
 2858              		.loc 4 559 47 is_stmt 0 view .LVU756
 2859 0000 2DE9F043 		push	{r4, r5, r6, r7, r8, r9, lr}
 2860              		.cfi_def_cfa_offset 28
 2861              		.cfi_offset 4, -28
 2862              		.cfi_offset 5, -24
 2863              		.cfi_offset 6, -20
 2864              		.cfi_offset 7, -16
 2865              		.cfi_offset 8, -12
 2866              		.cfi_offset 9, -8
 2867              		.cfi_offset 14, -4
 2868 0004 2DED028B 		vpush.64	{d8}
 2869              		.cfi_def_cfa_offset 36
 2870              		.cfi_offset 80, -36
 2871              		.cfi_offset 81, -32
 2872              		.loc 4 561 17 view .LVU757
 2873 0008 604C     		ldr	r4, .L236
 2874              		.loc 4 560 3 view .LVU758
 2875 000a 614A     		ldr	r2, .L236+4
 2876 000c 05B2     		sxth	r5, r0
 2877              		.loc 4 559 47 view .LVU759
 2878 000e 85B0     		sub	sp, sp, #20
 2879              		.cfi_def_cfa_offset 56
 2880              		.loc 4 559 47 view .LVU760
 2881 0010 8046     		mov	r8, r0
 2882 0012 0F46     		mov	r7, r1
 2883              		.loc 4 560 3 view .LVU761
 2884 0014 2846     		mov	r0, r5
 2885              	.LVL262:
 2886              		.loc 4 560 3 view .LVU762
 2887 0016 09B2     		sxth	r1, r1
 2888              	.LVL263:
 2889              		.loc 4 560 3 view .LVU763
 2890 0018 FFF7FEFF 		bl	cell_printf
 2891              	.LVL264:
 2892              		.loc 4 561 3 is_stmt 1 view .LVU764
 2893              		.loc 4 561 17 is_stmt 0 view .LVU765
 2894 001c D4ED017A 		vldr.32	s15, [r4, #4]
 2895              		.loc 4 561 6 view .LVU766
 2896 0020 9FED5C7A 		vldr.32	s14, .L236+8
 2897 0024 F4EEC77A 		vcmpe.f32	s15, s14
 2898 0028 F1EE10FA 		vmrs	APSR_nzcv, FPSCR
 2899 002c 00F1A880 		bmi	.L213
 2900              		.loc 4 562 3 is_stmt 1 view .LVU767
 2901              		.loc 4 567 17 is_stmt 0 view .LVU768
 2902 0030 94ED0E8A 		vldr.32	s16, [r4, #56]
 2903              		.loc 4 568 5 view .LVU769
 2904 0034 17EE900A 		vmov	r0, s15
 2905 0038 FFF7FEFF 		bl	__aeabi_f2d
 2906              	.LVL265:
 2907              		.loc 4 567 6 view .LVU770
 2908 003c B5EE408A 		vcmp.f32	s16, #0
 2909              		.loc 4 562 5 view .LVU771
 2910 0040 07F10C06 		add	r6, r7, #12
ARM GAS  C:\msys64\tmp\ccGTf9yH.s 			page 53


 2911              	.LVL266:
 2912              		.loc 4 567 3 is_stmt 1 view .LVU772
 2913              		.loc 4 567 6 is_stmt 0 view .LVU773
 2914 0044 F1EE10FA 		vmrs	APSR_nzcv, FPSCR
 2915              		.loc 4 568 5 view .LVU774
 2916 0048 CDE90201 		strd	r0, [sp, #8]
 2917 004c 0FFA86F9 		sxth	r9, r6
 2918              		.loc 4 567 6 view .LVU775
 2919 0050 34D0     		beq	.L217
 2920              		.loc 4 568 5 is_stmt 1 view .LVU776
 2921 0052 18EE100A 		vmov	r0, s16
 2922 0056 FFF7FEFF 		bl	__aeabi_f2d
 2923              	.LVL267:
 2924 005a 4F4A     		ldr	r2, .L236+12
 2925 005c CDE90001 		strd	r0, [sp]
 2926 0060 4946     		mov	r1, r9
 2927 0062 2846     		mov	r0, r5
 2928 0064 FFF7FEFF 		bl	cell_printf
 2929              	.LVL268:
 2930              		.loc 4 569 5 view .LVU777
 2931              		.loc 4 569 5 is_stmt 0 view .LVU778
 2932 0068 E06B     		ldr	r0, [r4, #60]	@ float
 2933 006a FFF7FEFF 		bl	__aeabi_f2d
 2934              	.LVL269:
 2935              		.loc 4 569 23 view .LVU779
 2936 006e 07F11806 		add	r6, r7, #24
 2937              	.LVL270:
 2938              		.loc 4 569 5 view .LVU780
 2939 0072 36B2     		sxth	r6, r6
 2940              	.LVL271:
 2941              		.loc 4 569 5 view .LVU781
 2942 0074 CDE90001 		strd	r0, [sp]
 2943 0078 484A     		ldr	r2, .L236+16
 2944 007a 0323     		movs	r3, #3
 2945 007c 3146     		mov	r1, r6
 2946 007e 2846     		mov	r0, r5
 2947 0080 FFF7FEFF 		bl	cell_printf
 2948              	.LVL272:
 2949              		.loc 4 570 5 is_stmt 1 view .LVU782
 2950              		.loc 4 570 5 is_stmt 0 view .LVU783
 2951 0084 206C     		ldr	r0, [r4, #64]	@ float
 2952 0086 FFF7FEFF 		bl	__aeabi_f2d
 2953              	.LVL273:
 2954              		.loc 4 570 23 view .LVU784
 2955 008a 07F12406 		add	r6, r7, #36
 2956              	.LVL274:
 2957              		.loc 4 570 5 view .LVU785
 2958 008e 36B2     		sxth	r6, r6
 2959              	.LVL275:
 2960              		.loc 4 570 5 view .LVU786
 2961 0090 CDE90001 		strd	r0, [sp]
 2962 0094 414A     		ldr	r2, .L236+16
 2963 0096 0623     		movs	r3, #6
 2964 0098 3146     		mov	r1, r6
 2965 009a 2846     		mov	r0, r5
 2966 009c FFF7FEFF 		bl	cell_printf
 2967              	.LVL276:
ARM GAS  C:\msys64\tmp\ccGTf9yH.s 			page 54


 2968              		.loc 4 571 5 is_stmt 1 view .LVU787
 2969 00a0 606C     		ldr	r0, [r4, #68]	@ float
 2970 00a2 FFF7FEFF 		bl	__aeabi_f2d
 2971              	.LVL277:
 2972              		.loc 4 571 23 is_stmt 0 view .LVU788
 2973 00a6 07F13006 		add	r6, r7, #48
 2974              	.LVL278:
 2975              		.loc 4 571 5 view .LVU789
 2976 00aa 37B2     		sxth	r7, r6
 2977 00ac CDE90001 		strd	r0, [sp]
 2978 00b0 3B4A     		ldr	r2, .L236+20
 2979 00b2 3946     		mov	r1, r7
 2980 00b4 2846     		mov	r0, r5
 2981 00b6 FFF7FEFF 		bl	cell_printf
 2982              	.LVL279:
 2983 00ba 09E0     		b	.L218
 2984              	.L217:
 2985              		.loc 4 573 5 is_stmt 1 view .LVU790
 2986 00bc 2068     		ldr	r0, [r4]	@ float
 2987 00be FFF7FEFF 		bl	__aeabi_f2d
 2988              	.LVL280:
 2989 00c2 354A     		ldr	r2, .L236+12
 2990 00c4 CDE90001 		strd	r0, [sp]
 2991 00c8 4946     		mov	r1, r9
 2992 00ca 2846     		mov	r0, r5
 2993 00cc FFF7FEFF 		bl	cell_printf
 2994              	.LVL281:
 2995              	.L218:
 2996              		.loc 4 576 3 view .LVU791
 2997              		.loc 4 577 3 view .LVU792
 2998              		.loc 4 584 3 view .LVU793
 2999              		.loc 4 584 6 is_stmt 0 view .LVU794
 3000 00d0 D4ED027A 		vldr.32	s15, [r4, #8]
 3001 00d4 F5EE407A 		vcmp.f32	s15, #0
 3002 00d8 F1EE10FA 		vmrs	APSR_nzcv, FPSCR
 3003 00dc 06D1     		bne	.L219
 3004              		.loc 4 584 35 discriminator 1 view .LVU795
 3005 00de D4ED087A 		vldr.32	s15, [r4, #32]
 3006 00e2 F5EE407A 		vcmp.f32	s15, #0
 3007 00e6 F1EE10FA 		vmrs	APSR_nzcv, FPSCR
 3008 00ea 49D0     		beq	.L213
 3009              	.L219:
 3010              		.loc 4 585 5 is_stmt 1 view .LVU796
 3011              		.loc 4 585 7 is_stmt 0 view .LVU797
 3012 00ec 0C36     		adds	r6, r6, #12
 3013              	.LVL282:
 3014              		.loc 4 586 5 is_stmt 1 view .LVU798
 3015              		.loc 4 586 24 is_stmt 0 view .LVU799
 3016 00ee B7B2     		uxth	r7, r6
 3017 00f0 07F10C01 		add	r1, r7, #12
 3018              		.loc 4 586 5 view .LVU800
 3019 00f4 2B4A     		ldr	r2, .L236+24
 3020 00f6 0323     		movs	r3, #3
 3021 00f8 09B2     		sxth	r1, r1
 3022 00fa 2846     		mov	r0, r5
 3023 00fc FFF7FEFF 		bl	cell_printf
 3024              	.LVL283:
ARM GAS  C:\msys64\tmp\ccGTf9yH.s 			page 55


 3025              		.loc 4 587 5 is_stmt 1 view .LVU801
 3026              		.loc 4 587 24 is_stmt 0 view .LVU802
 3027 0100 07F11801 		add	r1, r7, #24
 3028              		.loc 4 587 5 view .LVU803
 3029 0104 274A     		ldr	r2, .L236+24
 3030 0106 0623     		movs	r3, #6
 3031 0108 09B2     		sxth	r1, r1
 3032 010a 2846     		mov	r0, r5
 3033 010c FFF7FEFF 		bl	cell_printf
 3034              	.LVL284:
 3035              		.loc 4 588 5 is_stmt 1 view .LVU804
 3036              		.loc 4 588 24 is_stmt 0 view .LVU805
 3037 0110 07F12401 		add	r1, r7, #36
 3038              		.loc 4 588 5 view .LVU806
 3039 0114 244A     		ldr	r2, .L236+28
 3040 0116 09B2     		sxth	r1, r1
 3041 0118 2846     		mov	r0, r5
 3042 011a FFF7FEFF 		bl	cell_printf
 3043              	.LVL285:
 3044              		.loc 4 589 5 is_stmt 1 view .LVU807
 3045              		.loc 4 590 8 is_stmt 0 view .LVU808
 3046 011e D4ED087A 		vldr.32	s15, [r4, #32]
 3047 0122 F5EE407A 		vcmp.f32	s15, #0
 3048 0126 F1EE10FA 		vmrs	APSR_nzcv, FPSCR
 3049              		.loc 4 589 7 view .LVU809
 3050 012a 08F12A00 		add	r0, r8, #42
 3051              	.LVL286:
 3052              		.loc 4 590 5 is_stmt 1 view .LVU810
 3053              		.loc 4 590 8 is_stmt 0 view .LVU811
 3054 012e 0ED0     		beq	.L221
 3055              		.loc 4 590 39 is_stmt 1 discriminator 1 view .LVU812
 3056 0130 D4ED0E7A 		vldr.32	s15, [r4, #56]
 3057              		.loc 4 590 39 is_stmt 0 discriminator 5 view .LVU813
 3058 0134 1D4A     		ldr	r2, .L236+32
 3059              		.loc 4 590 39 discriminator 1 view .LVU814
 3060 0136 F5EE407A 		vcmp.f32	s15, #0
 3061 013a F1EE10FA 		vmrs	APSR_nzcv, FPSCR
 3062              		.loc 4 590 39 discriminator 2 view .LVU815
 3063 013e 14BF     		ite	ne
 3064 0140 1B4B     		ldrne	r3, .L236+36
 3065              		.loc 4 590 39 discriminator 3 view .LVU816
 3066 0142 1C4B     		ldreq	r3, .L236+40
 3067              		.loc 4 590 39 discriminator 5 view .LVU817
 3068 0144 3146     		mov	r1, r6
 3069 0146 FFF7FEFF 		bl	draw_s21_pass
 3070              	.LVL287:
 3071              		.loc 4 590 134 is_stmt 1 discriminator 1 view .LVU818
 3072              		.loc 4 590 136 is_stmt 0 discriminator 1 view .LVU819
 3073 014a 08F17E00 		add	r0, r8, #126
 3074              	.L221:
 3075              	.LVL288:
 3076              		.loc 4 591 5 is_stmt 1 view .LVU820
 3077              		.loc 4 591 8 is_stmt 0 view .LVU821
 3078 014e D4ED027A 		vldr.32	s15, [r4, #8]
 3079 0152 F5EE407A 		vcmp.f32	s15, #0
 3080 0156 F1EE10FA 		vmrs	APSR_nzcv, FPSCR
 3081 015a 11D0     		beq	.L213
ARM GAS  C:\msys64\tmp\ccGTf9yH.s 			page 56


 3082              		.loc 4 591 39 is_stmt 1 discriminator 1 view .LVU822
 3083 015c D4ED0E7A 		vldr.32	s15, [r4, #56]
 3084              		.loc 4 591 39 is_stmt 0 discriminator 5 view .LVU823
 3085 0160 154A     		ldr	r2, .L236+44
 3086              		.loc 4 591 39 discriminator 1 view .LVU824
 3087 0162 F5EE407A 		vcmp.f32	s15, #0
 3088 0166 F1EE10FA 		vmrs	APSR_nzcv, FPSCR
 3089              		.loc 4 591 39 discriminator 2 view .LVU825
 3090 016a 14BF     		ite	ne
 3091 016c 134B     		ldrne	r3, .L236+48
 3092              		.loc 4 591 39 discriminator 3 view .LVU826
 3093 016e 144B     		ldreq	r3, .L236+52
 3094              		.loc 4 591 39 discriminator 5 view .LVU827
 3095 0170 3146     		mov	r1, r6
 3096              		.loc 4 593 1 view .LVU828
 3097 0172 05B0     		add	sp, sp, #20
 3098              		.cfi_remember_state
 3099              		.cfi_def_cfa_offset 36
 3100              		@ sp needed
 3101 0174 BDEC028B 		vldm	sp!, {d8}
 3102              		.cfi_restore 80
 3103              		.cfi_restore 81
 3104              		.cfi_def_cfa_offset 28
 3105 0178 BDE8F043 		pop	{r4, r5, r6, r7, r8, r9, lr}
 3106              		.cfi_restore 14
 3107              		.cfi_restore 9
 3108              		.cfi_restore 8
 3109              		.cfi_restore 7
 3110              		.cfi_restore 6
 3111              		.cfi_restore 5
 3112              		.cfi_restore 4
 3113              		.cfi_def_cfa_offset 0
 3114              	.LVL289:
 3115              		.loc 4 591 39 discriminator 5 view .LVU829
 3116 017c FFF7FEBF 		b	draw_s21_pass
 3117              	.LVL290:
 3118              	.L213:
 3119              		.cfi_restore_state
 3120              		.loc 4 593 1 view .LVU830
 3121 0180 05B0     		add	sp, sp, #20
 3122              		.cfi_def_cfa_offset 36
 3123              		@ sp needed
 3124 0182 BDEC028B 		vldm	sp!, {d8}
 3125              		.cfi_restore 80
 3126              		.cfi_restore 81
 3127              		.cfi_def_cfa_offset 28
 3128 0186 BDE8F083 		pop	{r4, r5, r6, r7, r8, r9, pc}
 3129              	.L237:
 3130 018a 00BF     		.align	2
 3131              	.L236:
 3132 018c 00000000 		.word	measure_memory
 3133 0190 26000000 		.word	.LC17
 3134 0194 000048C2 		.word	-1035468800
 3135 0198 31000000 		.word	.LC18
 3136 019c 42000000 		.word	.LC19
 3137 01a0 55000000 		.word	.LC20
 3138 01a4 5B000000 		.word	.LC21
ARM GAS  C:\msys64\tmp\ccGTf9yH.s 			page 57


 3139 01a8 63000000 		.word	.LC22
 3140 01ac 20000000 		.word	measure_memory+32
 3141 01b0 00000000 		.word	.LC13
 3142 01b4 09000000 		.word	.LC14
 3143 01b8 08000000 		.word	measure_memory+8
 3144 01bc 13000000 		.word	.LC15
 3145 01c0 1D000000 		.word	.LC16
 3146              		.cfi_endproc
 3147              	.LFE343:
 3148              		.size	draw_filter_result, .-draw_filter_result
 3149              		.section	.rodata.draw_serial_result.str1.1,"aMS",%progbits,1
 3150              	.LC23:
 3151 0000 46733D25 		.ascii	"Fs=%qHz\000"
 3151      71487A00 
 3152              	.LC24:
 3153 0008 4C6D3D25 		.ascii	"Lm=%FH  Cm=%FF  Rm=%F\036\000"
 3153      46482020 
 3153      436D3D25 
 3153      46462020 
 3153      526D3D25 
 3154              	.LC25:
 3155 001f 513D252E 		.ascii	"Q=%.3f\000"
 3155      336600
 3156              	.LC26:
 3157 0026 46703D25 		.ascii	"Fp=%qHz  \027F=%d\000"
 3157      71487A20 
 3157      2017463D 
 3157      256400
 3158              	.LC27:
 3159 0035 43703D25 		.ascii	"Cp=%FF\000"
 3159      464600
 3160              		.section	.text.draw_serial_result,"ax",%progbits
 3161              		.align	1
 3162              		.syntax unified
 3163              		.thumb
 3164              		.thumb_func
 3165              		.type	draw_serial_result, %function
 3166              	draw_serial_result:
 3167              	.LVL291:
 3168              	.LFB340:
 3169              		.loc 4 487 48 is_stmt 1 view -0
 3170              		.cfi_startproc
 3171              		@ args = 0, pretend = 0, frame = 0
 3172              		@ frame_needed = 0, uses_anonymous_args = 0
 3173              		.loc 4 488 3 view .LVU832
 3174              		.loc 4 487 48 is_stmt 0 view .LVU833
 3175 0000 F0B5     		push	{r4, r5, r6, r7, lr}
 3176              		.cfi_def_cfa_offset 20
 3177              		.cfi_offset 4, -20
 3178              		.cfi_offset 5, -16
 3179              		.cfi_offset 6, -12
 3180              		.cfi_offset 7, -8
 3181              		.cfi_offset 14, -4
 3182              		.loc 4 488 3 view .LVU834
 3183 0002 2D4D     		ldr	r5, .L246
 3184 0004 06B2     		sxth	r6, r0
 3185              		.loc 4 487 48 view .LVU835
ARM GAS  C:\msys64\tmp\ccGTf9yH.s 			page 58


 3186 0006 0F46     		mov	r7, r1
 3187              		.loc 4 488 3 view .LVU836
 3188 0008 2A68     		ldr	r2, [r5]
 3189              		.loc 4 487 48 view .LVU837
 3190 000a 87B0     		sub	sp, sp, #28
 3191              		.cfi_def_cfa_offset 48
 3192              		.loc 4 488 3 view .LVU838
 3193 000c 09B2     		sxth	r1, r1
 3194              	.LVL292:
 3195              		.loc 4 488 3 view .LVU839
 3196 000e 3046     		mov	r0, r6
 3197              	.LVL293:
 3198              		.loc 4 488 3 view .LVU840
 3199 0010 FFF7FEFF 		bl	cell_printf
 3200              	.LVL294:
 3201              		.loc 4 489 3 is_stmt 1 view .LVU841
 3202              		.loc 4 490 18 is_stmt 0 view .LVU842
 3203 0014 6B68     		ldr	r3, [r5, #4]
 3204              		.loc 4 489 5 view .LVU843
 3205 0016 07F10C04 		add	r4, r7, #12
 3206              	.LVL295:
 3207              		.loc 4 490 3 is_stmt 1 view .LVU844
 3208              		.loc 4 490 6 is_stmt 0 view .LVU845
 3209 001a 53B9     		cbnz	r3, .L239
 3210              		.loc 4 490 30 discriminator 1 view .LVU846
 3211 001c AB68     		ldr	r3, [r5, #8]
 3212 001e 002B     		cmp	r3, #0
 3213 0020 30D1     		bne	.L240
 3214              		.loc 4 491 5 is_stmt 1 view .LVU847
 3215 0022 264A     		ldr	r2, .L246+4
 3216 0024 21B2     		sxth	r1, r4
 3217 0026 3046     		mov	r0, r6
 3218              		.loc 4 506 1 is_stmt 0 view .LVU848
 3219 0028 07B0     		add	sp, sp, #28
 3220              		.cfi_remember_state
 3221              		.cfi_def_cfa_offset 20
 3222              		@ sp needed
 3223 002a BDE8F040 		pop	{r4, r5, r6, r7, lr}
 3224              		.cfi_restore 14
 3225              		.cfi_restore 7
 3226              		.cfi_restore 6
 3227              		.cfi_restore 5
 3228              		.cfi_restore 4
 3229              		.cfi_def_cfa_offset 0
 3230              	.LVL296:
 3231              		.loc 4 491 5 view .LVU849
 3232 002e FFF7FEBF 		b	cell_printf
 3233              	.LVL297:
 3234              	.L239:
 3235              		.cfi_restore_state
 3236              		.loc 4 494 3 is_stmt 1 view .LVU850
 3237              		.loc 4 496 5 view .LVU851
 3238 0032 234A     		ldr	r2, .L246+8
 3239 0034 21B2     		sxth	r1, r4
 3240 0036 3046     		mov	r0, r6
 3241 0038 FFF7FEFF 		bl	cell_printf
 3242              	.LVL298:
ARM GAS  C:\msys64\tmp\ccGTf9yH.s 			page 59


 3243              		.loc 4 497 5 view .LVU852
 3244              		.loc 4 497 5 is_stmt 0 view .LVU853
 3245 003c E869     		ldr	r0, [r5, #28]	@ float
 3246 003e FFF7FEFF 		bl	__aeabi_f2d
 3247              	.LVL299:
 3248 0042 CDE90401 		strd	r0, [sp, #16]
 3249 0046 6869     		ldr	r0, [r5, #20]	@ float
 3250 0048 FFF7FEFF 		bl	__aeabi_f2d
 3251              	.LVL300:
 3252 004c CDE90201 		strd	r0, [sp, #8]
 3253 0050 2869     		ldr	r0, [r5, #16]	@ float
 3254 0052 FFF7FEFF 		bl	__aeabi_f2d
 3255              	.LVL301:
 3256              		.loc 4 497 23 view .LVU854
 3257 0056 07F11804 		add	r4, r7, #24
 3258              	.LVL302:
 3259              		.loc 4 497 5 view .LVU855
 3260 005a 24B2     		sxth	r4, r4
 3261              	.LVL303:
 3262              		.loc 4 497 5 view .LVU856
 3263 005c CDE90001 		strd	r0, [sp]
 3264 0060 184A     		ldr	r2, .L246+12
 3265 0062 2146     		mov	r1, r4
 3266 0064 3046     		mov	r0, r6
 3267 0066 FFF7FEFF 		bl	cell_printf
 3268              	.LVL304:
 3269              		.loc 4 498 5 is_stmt 1 view .LVU857
 3270 006a 286A     		ldr	r0, [r5, #32]	@ float
 3271 006c FFF7FEFF 		bl	__aeabi_f2d
 3272              	.LVL305:
 3273              		.loc 4 498 23 is_stmt 0 view .LVU858
 3274 0070 07F12404 		add	r4, r7, #36
 3275              	.LVL306:
 3276              		.loc 4 498 5 view .LVU859
 3277 0074 27B2     		sxth	r7, r4
 3278 0076 CDE90001 		strd	r0, [sp]
 3279 007a 134A     		ldr	r2, .L246+16
 3280 007c 3946     		mov	r1, r7
 3281 007e 3046     		mov	r0, r6
 3282 0080 FFF7FEFF 		bl	cell_printf
 3283              	.LVL307:
 3284              	.L240:
 3285              		.loc 4 502 3 is_stmt 1 view .LVU860
 3286              		.loc 4 502 18 is_stmt 0 view .LVU861
 3287 0084 AB68     		ldr	r3, [r5, #8]
 3288              		.loc 4 502 6 view .LVU862
 3289 0086 A3B1     		cbz	r3, .L238
 3290              		.loc 4 503 5 is_stmt 1 view .LVU863
 3291              	.LVL308:
 3292              		.loc 4 503 5 is_stmt 0 view .LVU864
 3293 0088 EA68     		ldr	r2, [r5, #12]
 3294 008a 0092     		str	r2, [sp]
 3295              		.loc 4 503 23 view .LVU865
 3296 008c 04F10C01 		add	r1, r4, #12
 3297              	.LVL309:
 3298              		.loc 4 503 5 view .LVU866
 3299 0090 0E4A     		ldr	r2, .L246+20
ARM GAS  C:\msys64\tmp\ccGTf9yH.s 			page 60


 3300 0092 09B2     		sxth	r1, r1
 3301              	.LVL310:
 3302              		.loc 4 503 5 view .LVU867
 3303 0094 3046     		mov	r0, r6
 3304 0096 FFF7FEFF 		bl	cell_printf
 3305              	.LVL311:
 3306              		.loc 4 504 5 is_stmt 1 view .LVU868
 3307              		.loc 4 504 5 is_stmt 0 view .LVU869
 3308 009a A869     		ldr	r0, [r5, #24]	@ float
 3309 009c FFF7FEFF 		bl	__aeabi_f2d
 3310              	.LVL312:
 3311              		.loc 4 504 23 view .LVU870
 3312 00a0 1834     		adds	r4, r4, #24
 3313              	.LVL313:
 3314              		.loc 4 504 5 view .LVU871
 3315 00a2 24B2     		sxth	r4, r4
 3316              	.LVL314:
 3317              		.loc 4 504 5 view .LVU872
 3318 00a4 CDE90001 		strd	r0, [sp]
 3319 00a8 094A     		ldr	r2, .L246+24
 3320 00aa 2146     		mov	r1, r4
 3321 00ac 3046     		mov	r0, r6
 3322 00ae FFF7FEFF 		bl	cell_printf
 3323              	.LVL315:
 3324              	.L238:
 3325              		.loc 4 506 1 view .LVU873
 3326 00b2 07B0     		add	sp, sp, #28
 3327              		.cfi_def_cfa_offset 20
 3328              		@ sp needed
 3329 00b4 F0BD     		pop	{r4, r5, r6, r7, pc}
 3330              	.L247:
 3331 00b6 00BF     		.align	2
 3332              	.L246:
 3333 00b8 00000000 		.word	measure_memory
 3334 00bc 0E000000 		.word	.LC2
 3335 00c0 00000000 		.word	.LC23
 3336 00c4 08000000 		.word	.LC24
 3337 00c8 1F000000 		.word	.LC25
 3338 00cc 26000000 		.word	.LC26
 3339 00d0 35000000 		.word	.LC27
 3340              		.cfi_endproc
 3341              	.LFE340:
 3342              		.size	draw_serial_result, .-draw_serial_result
 3343              		.section	.rodata.lc_match_x_str.str1.1,"aMS",%progbits,1
 3344              	.LC28:
 3345 0000 25342E32 		.ascii	"%4.2F%c\000"
 3345      46256300 
 3346              		.section	.text.lc_match_x_str,"ax",%progbits
 3347              		.align	1
 3348              		.syntax unified
 3349              		.thumb
 3350              		.thumb_func
 3351              		.type	lc_match_x_str, %function
 3352              	lc_match_x_str:
 3353              	.LVL316:
 3354              	.LFB332:
 3355              		.loc 4 321 1 is_stmt 1 view -0
ARM GAS  C:\msys64\tmp\ccGTf9yH.s 			page 61


 3356              		.cfi_startproc
 3357              		@ args = 0, pretend = 0, frame = 0
 3358              		@ frame_needed = 0, uses_anonymous_args = 0
 3359              		.loc 4 322 3 view .LVU875
 3360              		.loc 4 322 6 is_stmt 0 view .LVU876
 3361 0000 B5EE400A 		vcmp.f32	s0, #0
 3362 0004 F1EE10FA 		vmrs	APSR_nzcv, FPSCR
 3363 0008 27D0     		beq	.L259
 3364              		.loc 4 331 6 view .LVU877
 3365 000a B5EEC00A 		vcmpe.f32	s0, #0
 3366 000e F1EE10FA 		vmrs	APSR_nzcv, FPSCR
 3367              		.loc 4 331 20 discriminator 1 view .LVU878
 3368 0012 44BF     		itt	mi
 3369 0014 BFEE007A 		vmovmi.f32	s14, #-1.0e+0
 3370 0018 87EE000A 		vdivmi.f32	s0, s14, s0
 3371              	.LVL317:
 3372              		.loc 4 321 1 view .LVU879
 3373 001c 30B5     		push	{r4, r5, lr}
 3374              		.cfi_def_cfa_offset 12
 3375              		.cfi_offset 4, -12
 3376              		.cfi_offset 5, -8
 3377              		.cfi_offset 14, -4
 3378 001e 85B0     		sub	sp, sp, #20
 3379              		.cfi_def_cfa_offset 32
 3380              		.loc 4 331 38 discriminator 1 view .LVU880
 3381 0020 4CBF     		ite	mi
 3382 0022 4623     		movmi	r3, #70
 3383              		.loc 4 332 38 view .LVU881
 3384 0024 4823     		movpl	r3, #72
 3385              		.loc 4 335 3 view .LVU882
 3386 0026 15B2     		sxth	r5, r2
 3387 0028 0CB2     		sxth	r4, r1
 3388 002a 0293     		str	r3, [sp, #8]
 3389              		.loc 4 333 17 view .LVU883
 3390 002c 9FED0B7A 		vldr.32	s14, .L262
 3391 0030 07EE900A 		vmov	s15, r0	@ int
 3392              		.loc 4 325 3 is_stmt 1 view .LVU884
 3393              		.loc 4 331 3 view .LVU885
 3394              		.loc 4 331 18 discriminator 1 view .LVU886
 3395              	.LVL318:
 3396              		.loc 4 331 33 view .LVU887
 3397              		.loc 4 333 3 view .LVU888
 3398              		.loc 4 335 3 view .LVU889
 3399              		.loc 4 333 17 is_stmt 0 view .LVU890
 3400 0034 20EE070A 		vmul.f32	s0, s0, s14
 3401              	.LVL319:
 3402              		.loc 4 333 17 view .LVU891
 3403 0038 F8EE677A 		vcvt.f32.u32	s15, s15
 3404              		.loc 4 335 3 view .LVU892
 3405 003c C0EE277A 		vdiv.f32	s15, s0, s15
 3406              	.LVL320:
 3407              		.loc 4 335 3 view .LVU893
 3408 0040 17EE900A 		vmov	r0, s15
 3409              	.LVL321:
 3410              		.loc 4 335 3 view .LVU894
 3411 0044 FFF7FEFF 		bl	__aeabi_f2d
 3412              	.LVL322:
ARM GAS  C:\msys64\tmp\ccGTf9yH.s 			page 62


 3413              		.loc 4 335 3 view .LVU895
 3414 0048 054A     		ldr	r2, .L262+4
 3415 004a CDE90001 		strd	r0, [sp]
 3416 004e 2946     		mov	r1, r5
 3417 0050 2046     		mov	r0, r4
 3418 0052 FFF7FEFF 		bl	cell_printf
 3419              	.LVL323:
 3420              		.loc 4 336 1 view .LVU896
 3421 0056 05B0     		add	sp, sp, #20
 3422              		.cfi_def_cfa_offset 12
 3423              		@ sp needed
 3424 0058 30BD     		pop	{r4, r5, pc}
 3425              	.LVL324:
 3426              	.L259:
 3427              		.cfi_def_cfa_offset 0
 3428              		.cfi_restore 4
 3429              		.cfi_restore 5
 3430              		.cfi_restore 14
 3431              		.loc 4 336 1 view .LVU897
 3432 005a 7047     		bx	lr
 3433              	.L263:
 3434              		.align	2
 3435              	.L262:
 3436 005c 83F9223E 		.word	1042479491
 3437 0060 00000000 		.word	.LC28
 3438              		.cfi_endproc
 3439              	.LFE332:
 3440              		.size	lc_match_x_str, .-lc_match_x_str
 3441              		.section	.rodata.draw_lc_match.str1.1,"aMS",%progbits,1
 3442              	.LC29:
 3443 0000 4C2F4320 		.ascii	"L/C match for source Z0 = %0.1f\036\000"
 3443      6D617463 
 3443      6820666F 
 3443      7220736F 
 3443      75726365 
 3444              	.LC30:
 3445 0021 4E6F204C 		.ascii	"No LC match for this\000"
 3445      43206D61 
 3445      74636820 
 3445      666F7220 
 3445      74686973 
 3446              	.LC31:
 3447 0036 4E6F206E 		.ascii	"No need for LC match\000"
 3447      65656420 
 3447      666F7220 
 3447      4C43206D 
 3447      61746368 
 3448              	.LC32:
 3449 004b 53726320 		.ascii	"Src shunt\000"
 3449      7368756E 
 3449      7400
 3450              	.LC33:
 3451 0055 53657269 		.ascii	"Series\000"
 3451      657300
 3452              	.LC34:
 3453 005c 4C6F6164 		.ascii	"Load shunt\000"
 3453      20736875 
ARM GAS  C:\msys64\tmp\ccGTf9yH.s 			page 63


 3453      6E7400
 3454              		.section	.text.draw_lc_match,"ax",%progbits
 3455              		.align	1
 3456              		.syntax unified
 3457              		.thumb
 3458              		.thumb_func
 3459              		.type	draw_lc_match, %function
 3460              	draw_lc_match:
 3461              	.LVL325:
 3462              	.LFB333:
 3463              		.loc 4 339 43 is_stmt 1 view -0
 3464              		.cfi_startproc
 3465              		@ args = 0, pretend = 0, frame = 0
 3466              		@ frame_needed = 0, uses_anonymous_args = 0
 3467              		.loc 4 340 3 view .LVU899
 3468              		.loc 4 339 43 is_stmt 0 view .LVU900
 3469 0000 2DE9F347 		push	{r0, r1, r4, r5, r6, r7, r8, r9, r10, lr}
 3470              		.cfi_def_cfa_offset 40
 3471              		.cfi_offset 4, -32
 3472              		.cfi_offset 5, -28
 3473              		.cfi_offset 6, -24
 3474              		.cfi_offset 7, -20
 3475              		.cfi_offset 8, -16
 3476              		.cfi_offset 9, -12
 3477              		.cfi_offset 10, -8
 3478              		.cfi_offset 14, -4
 3479              		.loc 4 340 78 view .LVU901
 3480 0004 304E     		ldr	r6, .L274
 3481              		.loc 4 340 3 view .LVU902
 3482 0006 0FFA80F8 		sxth	r8, r0
 3483              		.loc 4 339 43 view .LVU903
 3484 000a 0546     		mov	r5, r0
 3485              		.loc 4 340 3 view .LVU904
 3486 000c 7068     		ldr	r0, [r6, #4]	@ float
 3487              	.LVL326:
 3488              		.loc 4 339 43 view .LVU905
 3489 000e 0C46     		mov	r4, r1
 3490              		.loc 4 340 3 view .LVU906
 3491 0010 0FB2     		sxth	r7, r1
 3492 0012 FFF7FEFF 		bl	__aeabi_f2d
 3493              	.LVL327:
 3494              		.loc 4 345 6 view .LVU907
 3495 0016 0C34     		adds	r4, r4, #12
 3496              	.LVL328:
 3497              		.loc 4 340 3 view .LVU908
 3498 0018 CDE90001 		strd	r0, [sp]
 3499 001c 2B4A     		ldr	r2, .L274+4
 3500 001e 3946     		mov	r1, r7
 3501 0020 4046     		mov	r0, r8
 3502 0022 FFF7FEFF 		bl	cell_printf
 3503              	.LVL329:
 3504              		.loc 4 345 3 is_stmt 1 view .LVU909
 3505              		.loc 4 346 3 view .LVU910
 3506              		.loc 4 346 6 is_stmt 0 view .LVU911
 3507 0026 1F2C     		cmp	r4, #31
 3508 0028 4BDC     		bgt	.L264
 3509              		.loc 4 347 3 is_stmt 1 view .LVU912
ARM GAS  C:\msys64\tmp\ccGTf9yH.s 			page 64


 3510              		.loc 4 347 21 is_stmt 0 view .LVU913
 3511 002a B6F93830 		ldrsh	r3, [r6, #56]
 3512              		.loc 4 347 6 view .LVU914
 3513 002e 002B     		cmp	r3, #0
 3514              		.loc 4 348 5 view .LVU915
 3515 0030 27B2     		sxth	r7, r4
 3516              		.loc 4 347 6 view .LVU916
 3517 0032 01DA     		bge	.L267
 3518              		.loc 4 348 5 is_stmt 1 view .LVU917
 3519 0034 264A     		ldr	r2, .L274+8
 3520 0036 01E0     		b	.L273
 3521              	.L267:
 3522              		.loc 4 349 8 view .LVU918
 3523              		.loc 4 349 11 is_stmt 0 view .LVU919
 3524 0038 07D1     		bne	.L268
 3525              		.loc 4 350 5 is_stmt 1 view .LVU920
 3526 003a 264A     		ldr	r2, .L274+12
 3527              	.L273:
 3528 003c 3946     		mov	r1, r7
 3529 003e 4046     		mov	r0, r8
 3530              		.loc 4 363 1 is_stmt 0 view .LVU921
 3531 0040 02B0     		add	sp, sp, #8
 3532              		.cfi_remember_state
 3533              		.cfi_def_cfa_offset 32
 3534              		@ sp needed
 3535 0042 BDE8F047 		pop	{r4, r5, r6, r7, r8, r9, r10, lr}
 3536              		.cfi_restore 14
 3537              		.cfi_restore 10
 3538              		.cfi_restore 9
 3539              		.cfi_restore 8
 3540              		.cfi_restore 7
 3541              		.cfi_restore 6
 3542              		.cfi_restore 5
 3543              		.cfi_restore 4
 3544              		.cfi_def_cfa_offset 0
 3545              	.LVL330:
 3546              		.loc 4 350 5 view .LVU922
 3547 0046 FFF7FEBF 		b	cell_printf
 3548              	.LVL331:
 3549              	.L268:
 3550              		.cfi_restore_state
 3551              		.loc 4 352 5 is_stmt 1 view .LVU923
 3552 004a 3946     		mov	r1, r7
 3553 004c 224A     		ldr	r2, .L274+16
 3554 004e 4046     		mov	r0, r8
 3555              		.loc 4 353 20 is_stmt 0 view .LVU924
 3556 0050 1FFA85F8 		uxth	r8, r5
 3557              		.loc 4 352 5 view .LVU925
 3558 0054 FFF7FEFF 		bl	cell_printf
 3559              	.LVL332:
 3560              		.loc 4 353 5 is_stmt 1 view .LVU926
 3561              		.loc 4 353 20 is_stmt 0 view .LVU927
 3562 0058 08F14600 		add	r0, r8, #70
 3563              		.loc 4 353 5 view .LVU928
 3564 005c 3946     		mov	r1, r7
 3565 005e 1F4A     		ldr	r2, .L274+20
 3566 0060 00B2     		sxth	r0, r0
ARM GAS  C:\msys64\tmp\ccGTf9yH.s 			page 65


 3567 0062 FFF7FEFF 		bl	cell_printf
 3568              	.LVL333:
 3569              		.loc 4 354 5 is_stmt 1 view .LVU929
 3570              		.loc 4 354 20 is_stmt 0 view .LVU930
 3571 0066 08F18C00 		add	r0, r8, #140
 3572              		.loc 4 354 5 view .LVU931
 3573 006a 3946     		mov	r1, r7
 3574 006c 1C4A     		ldr	r2, .L274+24
 3575 006e 00B2     		sxth	r0, r0
 3576 0070 FFF7FEFF 		bl	cell_printf
 3577              	.LVL334:
 3578              		.loc 4 355 5 is_stmt 1 view .LVU932
 3579              	.LBB153:
 3580              		.loc 4 355 10 view .LVU933
 3581              		.loc 4 355 10 is_stmt 0 view .LVU934
 3582 0074 3746     		mov	r7, r6
 3583              		.loc 4 355 14 view .LVU935
 3584 0076 4FF00008 		mov	r8, #0
 3585              		.loc 4 359 7 view .LVU936
 3586 007a 05F1460A 		add	r10, r5, #70
 3587              		.loc 4 360 7 view .LVU937
 3588 007e 05F18C09 		add	r9, r5, #140
 3589              	.LVL335:
 3590              	.L269:
 3591              		.loc 4 355 23 is_stmt 1 discriminator 1 view .LVU938
 3592              		.loc 4 355 39 is_stmt 0 discriminator 1 view .LVU939
 3593 0082 B6F93830 		ldrsh	r3, [r6, #56]
 3594              		.loc 4 355 23 discriminator 1 view .LVU940
 3595 0086 4345     		cmp	r3, r8
 3596 0088 1BDD     		ble	.L264
 3597              		.loc 4 356 7 is_stmt 1 view .LVU941
 3598              		.loc 4 356 10 is_stmt 0 view .LVU942
 3599 008a 0C34     		adds	r4, r4, #12
 3600              	.LVL336:
 3601              		.loc 4 357 7 is_stmt 1 view .LVU943
 3602              		.loc 4 357 10 is_stmt 0 view .LVU944
 3603 008c 1F2C     		cmp	r4, #31
 3604 008e 18DC     		bgt	.L264
 3605              		.loc 4 358 7 is_stmt 1 view .LVU945
 3606 0090 97ED020A 		vldr.32	s0, [r7, #8]
 3607 0094 3068     		ldr	r0, [r6]
 3608 0096 2246     		mov	r2, r4
 3609 0098 2946     		mov	r1, r5
 3610 009a FFF7FEFF 		bl	lc_match_x_str
 3611              	.LVL337:
 3612              		.loc 4 359 7 view .LVU946
 3613 009e 97ED030A 		vldr.32	s0, [r7, #12]
 3614 00a2 3068     		ldr	r0, [r6]
 3615 00a4 2246     		mov	r2, r4
 3616 00a6 5146     		mov	r1, r10
 3617 00a8 FFF7FEFF 		bl	lc_match_x_str
 3618              	.LVL338:
 3619              		.loc 4 360 7 view .LVU947
 3620 00ac 97ED040A 		vldr.32	s0, [r7, #16]
 3621 00b0 3068     		ldr	r0, [r6]
 3622 00b2 2246     		mov	r2, r4
 3623 00b4 4946     		mov	r1, r9
ARM GAS  C:\msys64\tmp\ccGTf9yH.s 			page 66


 3624 00b6 FFF7FEFF 		bl	lc_match_x_str
 3625              	.LVL339:
 3626              		.loc 4 355 55 discriminator 2 view .LVU948
 3627 00ba 08F10108 		add	r8, r8, #1
 3628              	.LVL340:
 3629              		.loc 4 355 55 is_stmt 0 discriminator 2 view .LVU949
 3630 00be 0C37     		adds	r7, r7, #12
 3631 00c0 DFE7     		b	.L269
 3632              	.LVL341:
 3633              	.L264:
 3634              		.loc 4 355 55 discriminator 2 view .LVU950
 3635              	.LBE153:
 3636              		.loc 4 363 1 view .LVU951
 3637 00c2 02B0     		add	sp, sp, #8
 3638              		.cfi_def_cfa_offset 32
 3639              		@ sp needed
 3640 00c4 BDE8F087 		pop	{r4, r5, r6, r7, r8, r9, r10, pc}
 3641              	.LVL342:
 3642              	.L275:
 3643              		.loc 4 363 1 view .LVU952
 3644              		.align	2
 3645              	.L274:
 3646 00c8 00000000 		.word	measure_memory
 3647 00cc 00000000 		.word	.LC29
 3648 00d0 21000000 		.word	.LC30
 3649 00d4 36000000 		.word	.LC31
 3650 00d8 4B000000 		.word	.LC32
 3651 00dc 55000000 		.word	.LC33
 3652 00e0 5C000000 		.word	.LC34
 3653              		.cfi_endproc
 3654              	.LFE333:
 3655              		.size	draw_lc_match, .-draw_lc_match
 3656              		.section	.rodata.trace_print_value_string.str1.4,"aMS",%progbits,1
 3657              		.align	2
 3658              	.LC35:
 3659 0000 2546252B 		.ascii	"%F%+jF\000"
 3659      6A4600
 3660              		.section	.text.trace_print_value_string,"ax",%progbits
 3661              		.align	1
 3662              		.p2align 4,,15
 3663              		.syntax unified
 3664              		.thumb
 3665              		.thumb_func
 3666              		.type	trace_print_value_string, %function
 3667              	trace_print_value_string:
 3668              	.LVL343:
 3669              	.LFB298:
 3670              		.loc 1 1004 1 is_stmt 1 view -0
 3671              		.cfi_startproc
 3672              		@ args = 4, pretend = 0, frame = 8
 3673              		@ frame_needed = 0, uses_anonymous_args = 0
 3674              		.loc 1 1006 3 view .LVU954
 3675              		.loc 1 1004 1 is_stmt 0 view .LVU955
 3676 0000 2DE9F04F 		push	{r4, r5, r6, r7, r8, r9, r10, fp, lr}
 3677              		.cfi_def_cfa_offset 36
 3678              		.cfi_offset 4, -36
 3679              		.cfi_offset 5, -32
ARM GAS  C:\msys64\tmp\ccGTf9yH.s 			page 67


 3680              		.cfi_offset 6, -28
 3681              		.cfi_offset 7, -24
 3682              		.cfi_offset 8, -20
 3683              		.cfi_offset 9, -16
 3684              		.cfi_offset 10, -12
 3685              		.cfi_offset 11, -8
 3686              		.cfi_offset 14, -4
 3687              		.loc 1 1006 11 view .LVU956
 3688 0004 DFF890C1 		ldr	ip, .L297+8
 3689              		.loc 1 1004 1 view .LVU957
 3690 0008 2DED028B 		vpush.64	{d8}
 3691              		.cfi_def_cfa_offset 44
 3692              		.cfi_offset 80, -44
 3693              		.cfi_offset 81, -40
 3694 000c 1F46     		mov	r7, r3
 3695              		.loc 1 1006 11 view .LVU958
 3696 000e 02EB4203 		add	r3, r2, r2, lsl #1
 3697              	.LVL344:
 3698              		.loc 1 1006 11 view .LVU959
 3699 0012 0CEB8303 		add	r3, ip, r3, lsl #2
 3700              		.loc 1 1004 1 view .LVU960
 3701 0016 89B0     		sub	sp, sp, #36
 3702              		.cfi_def_cfa_offset 80
 3703              		.loc 1 1006 11 view .LVU961
 3704 0018 93F82940 		ldrb	r4, [r3, #41]	@ zero_extendqisi2
 3705              	.LVL345:
 3706              		.loc 1 1007 3 is_stmt 1 view .LVU962
 3707              		.loc 1 1004 1 is_stmt 0 view .LVU963
 3708 001c 0E46     		mov	r6, r1
 3709              		.loc 1 1007 6 view .LVU964
 3710 001e 1D2C     		cmp	r4, #29
 3711              		.loc 1 1006 11 view .LVU965
 3712 0020 4FEA4201 		lsl	r1, r2, #1
 3713              	.LVL346:
 3714              		.loc 1 1006 11 view .LVU966
 3715 0024 0691     		str	r1, [sp, #24]
 3716              		.loc 1 1007 6 view .LVU967
 3717 0026 3AD8     		bhi	.L276
 3718              		.loc 1 1009 3 is_stmt 1 view .LVU968
 3719              		.loc 1 1012 18 is_stmt 0 view .LVU969
 3720 0028 DFF870A1 		ldr	r10, .L297+12
 3721              		.loc 1 1009 11 view .LVU970
 3722 002c 93F82AE0 		ldrb	lr, [r3, #42]	@ zero_extendqisi2
 3723 0030 5749     		ldr	r1, .L297
 3724 0032 0546     		mov	r5, r0
 3725              		.loc 1 1012 18 view .LVU971
 3726 0034 C4EBC403 		rsb	r3, r4, r4, lsl #3
 3727              		.loc 1 1011 71 view .LVU972
 3728 0038 1498     		ldr	r0, [sp, #80]
 3729              	.LVL347:
 3730              		.loc 1 1012 18 view .LVU973
 3731 003a 0AEB8303 		add	r3, r10, r3, lsl #2
 3732              		.loc 1 1009 11 view .LVU974
 3733 003e 40F68848 		movw	r8, #3208
 3734 0042 08FB0E18 		mla	r8, r8, lr, r1
 3735              	.LVL348:
 3736              		.loc 1 1010 3 is_stmt 1 view .LVU975
ARM GAS  C:\msys64\tmp\ccGTf9yH.s 			page 68


 3737              		.loc 1 1011 71 is_stmt 0 view .LVU976
 3738 0046 0130     		adds	r0, r0, #1
 3739              		.loc 1 1012 18 view .LVU977
 3740 0048 D3F81890 		ldr	r9, [r3, #24]
 3741              		.loc 1 1010 10 view .LVU978
 3742 004c 08EBC701 		add	r1, r8, r7, lsl #3
 3743              	.LVL349:
 3744              		.loc 1 1011 3 is_stmt 1 view .LVU979
 3745              		.loc 1 1012 18 is_stmt 0 view .LVU980
 3746 0050 4FEAC40B 		lsl	fp, r4, #3
 3747              		.loc 1 1011 71 view .LVU981
 3748 0054 28D0     		beq	.L278
 3749              	.LVL350:
 3750              		.loc 1 1012 3 is_stmt 1 view .LVU982
 3751              		.loc 1 1013 3 view .LVU983
 3752              		.loc 1 1013 6 is_stmt 0 view .LVU984
 3753 0056 B9F1000F 		cmp	r9, #0
 3754 005a 45D1     		bne	.L294
 3755              	.LVL351:
 3756              	.L280:
 3757              		.loc 1 1022 5 is_stmt 1 view .LVU985
 3758 005c 032C     		cmp	r4, #3
 3759 005e 61D0     		beq	.L295
 3760              	.LBB158:
 3761              	.LBB159:
 3762              		.loc 1 980 3 view .LVU986
 3763              		.loc 1 981 3 view .LVU987
 3764              		.loc 1 982 3 view .LVU988
 3765              	.LVL352:
 3766              		.loc 1 983 3 view .LVU989
 3767              		.loc 1 983 14 is_stmt 0 view .LVU990
 3768 0060 3846     		mov	r0, r7
 3769 0062 FFF7FEFF 		bl	real
 3770              	.LVL353:
 3771 0066 10EE104A 		vmov	r4, s0
 3772              	.LVL354:
 3773              		.loc 1 984 3 is_stmt 1 view .LVU991
 3774              		.loc 1 984 14 is_stmt 0 view .LVU992
 3775 006a FFF7FEFF 		bl	imag
 3776              	.LVL355:
 3777              		.loc 1 982 15 view .LVU993
 3778 006e DFF83081 		ldr	r8, .L297+16
 3779              	.LVL356:
 3780              		.loc 1 984 14 view .LVU994
 3781 0072 B0EE408A 		vmov.f32	s16, s0
 3782              	.LVL357:
 3783              		.loc 1 986 3 is_stmt 1 view .LVU995
 3784              		.loc 1 984 14 is_stmt 0 view .LVU996
 3785 0076 0023     		movs	r3, #0
 3786              	.LVL358:
 3787              	.L283:
 3788              		.loc 1 1000 3 is_stmt 1 view .LVU997
 3789 0078 18EE100A 		vmov	r0, s16
 3790 007c 0493     		str	r3, [sp, #16]
 3791 007e FFF7FEFF 		bl	__aeabi_f2d
 3792              	.LVL359:
 3793 0082 CDE90201 		strd	r0, [sp, #8]
ARM GAS  C:\msys64\tmp\ccGTf9yH.s 			page 69


 3794 0086 2046     		mov	r0, r4	@ float
 3795 0088 FFF7FEFF 		bl	__aeabi_f2d
 3796              	.LVL360:
 3797 008c 36B2     		sxth	r6, r6
 3798              	.LVL361:
 3799              		.loc 1 1000 3 is_stmt 0 view .LVU998
 3800 008e 2DB2     		sxth	r5, r5
 3801              	.LVL362:
 3802              		.loc 1 1000 3 view .LVU999
 3803 0090 CDE90001 		strd	r0, [sp]
 3804 0094 4246     		mov	r2, r8
 3805 0096 3146     		mov	r1, r6
 3806 0098 2846     		mov	r0, r5
 3807 009a FFF7FEFF 		bl	cell_printf
 3808              	.LVL363:
 3809              	.L276:
 3810              		.loc 1 1000 3 view .LVU1000
 3811              	.LBE159:
 3812              	.LBE158:
 3813              		.loc 1 1024 1 view .LVU1001
 3814 009e 09B0     		add	sp, sp, #36
 3815              		.cfi_remember_state
 3816              		.cfi_def_cfa_offset 44
 3817              		@ sp needed
 3818 00a0 BDEC028B 		vldm	sp!, {d8}
 3819              		.cfi_restore 80
 3820              		.cfi_restore 81
 3821              		.cfi_def_cfa_offset 36
 3822 00a4 BDE8F08F 		pop	{r4, r5, r6, r7, r8, r9, r10, fp, pc}
 3823              	.LVL364:
 3824              	.L278:
 3825              		.cfi_restore_state
 3826              		.loc 1 1011 71 discriminator 2 view .LVU1002
 3827 00a8 5B68     		ldr	r3, [r3, #4]
 3828 00aa 0693     		str	r3, [sp, #24]
 3829              	.LVL365:
 3830              		.loc 1 1012 3 is_stmt 1 view .LVU1003
 3831              		.loc 1 1013 3 view .LVU1004
 3832              		.loc 1 1013 6 is_stmt 0 view .LVU1005
 3833 00ac B9F1000F 		cmp	r9, #0
 3834 00b0 D4D0     		beq	.L280
 3835              	.LBB162:
 3836              		.loc 1 1015 5 is_stmt 1 view .LVU1006
 3837              		.loc 1 1015 15 is_stmt 0 view .LVU1007
 3838 00b2 3846     		mov	r0, r7
 3839 00b4 C847     		blx	r9
 3840              	.LVL366:
 3841              		.loc 1 1015 15 view .LVU1008
 3842 00b6 10EE103A 		vmov	r3, s0
 3843              	.LVL367:
 3844              		.loc 1 1016 5 is_stmt 1 view .LVU1009
 3845              	.L287:
 3846              		.loc 1 1018 5 view .LVU1010
 3847              		.loc 1 1018 61 is_stmt 0 view .LVU1011
 3848 00ba ABEB0404 		sub	r4, fp, r4
 3849              	.LVL368:
 3850              		.loc 1 1018 61 view .LVU1012
ARM GAS  C:\msys64\tmp\ccGTf9yH.s 			page 70


 3851 00be 0AEB8404 		add	r4, r10, r4, lsl #2
 3852              		.loc 1 1018 5 view .LVU1013
 3853 00c2 1846     		mov	r0, r3	@ float
 3854 00c4 E368     		ldr	r3, [r4, #12]
 3855              	.LVL369:
 3856              		.loc 1 1018 5 view .LVU1014
 3857 00c6 0293     		str	r3, [sp, #8]
 3858 00c8 FFF7FEFF 		bl	__aeabi_f2d
 3859              	.LVL370:
 3860              		.loc 1 1018 5 view .LVU1015
 3861 00cc 36B2     		sxth	r6, r6
 3862              	.LVL371:
 3863              		.loc 1 1018 5 view .LVU1016
 3864 00ce 2DB2     		sxth	r5, r5
 3865              	.LVL372:
 3866              		.loc 1 1018 5 view .LVU1017
 3867 00d0 CDE90001 		strd	r0, [sp]
 3868 00d4 069A     		ldr	r2, [sp, #24]
 3869 00d6 3146     		mov	r1, r6
 3870 00d8 2846     		mov	r0, r5
 3871 00da FFF7FEFF 		bl	cell_printf
 3872              	.LVL373:
 3873              	.LBE162:
 3874              		.loc 1 1024 1 view .LVU1018
 3875 00de 09B0     		add	sp, sp, #36
 3876              		.cfi_remember_state
 3877              		.cfi_def_cfa_offset 44
 3878              		@ sp needed
 3879 00e0 BDEC028B 		vldm	sp!, {d8}
 3880              		.cfi_restore 80
 3881              		.cfi_restore 81
 3882              		.cfi_def_cfa_offset 36
 3883 00e4 BDE8F08F 		pop	{r4, r5, r6, r7, r8, r9, r10, fp, pc}
 3884              	.LVL374:
 3885              	.L294:
 3886              		.cfi_restore_state
 3887              		.loc 1 1011 71 discriminator 1 view .LVU1019
 3888 00e8 9B68     		ldr	r3, [r3, #8]
 3889 00ea 0693     		str	r3, [sp, #24]
 3890              	.LBB163:
 3891              		.loc 1 1015 5 is_stmt 1 view .LVU1020
 3892              		.loc 1 1015 15 is_stmt 0 view .LVU1021
 3893 00ec 3846     		mov	r0, r7
 3894 00ee C847     		blx	r9
 3895              	.LVL375:
 3896              		.loc 1 1015 15 view .LVU1022
 3897 00f0 8DED070A 		vstr.32	s0, [sp, #28]	@ int
 3898              	.LVL376:
 3899              		.loc 1 1016 5 is_stmt 1 view .LVU1023
 3900              		.loc 1 1016 32 is_stmt 0 discriminator 1 view .LVU1024
 3901 00f4 FFF7FEFF 		bl	infinityf
 3902              	.LVL377:
 3903              		.loc 1 1016 24 discriminator 1 view .LVU1025
 3904 00f8 079B     		ldr	r3, [sp, #28]
 3905 00fa 07EE903A 		vmov	s15, r3
 3906 00fe B4EE670A 		vcmp.f32	s0, s15
 3907 0102 F1EE10FA 		vmrs	APSR_nzcv, FPSCR
ARM GAS  C:\msys64\tmp\ccGTf9yH.s 			page 71


 3908 0106 D8D0     		beq	.L287
 3909              		.loc 1 1017 7 is_stmt 1 view .LVU1026
 3910 0108 0793     		str	r3, [sp, #28]
 3911              	.LVL378:
 3912              		.loc 1 1017 12 is_stmt 0 view .LVU1027
 3913 010a 149B     		ldr	r3, [sp, #80]
 3914 010c 3846     		mov	r0, r7
 3915 010e 08EBC301 		add	r1, r8, r3, lsl #3
 3916 0112 C847     		blx	r9
 3917              	.LVL379:
 3918              		.loc 1 1017 9 discriminator 1 view .LVU1028
 3919 0114 079B     		ldr	r3, [sp, #28]
 3920 0116 07EE903A 		vmov	s15, r3
 3921 011a 77EEC07A 		vsub.f32	s15, s15, s0
 3922 011e 17EE903A 		vmov	r3, s15
 3923 0122 CAE7     		b	.L287
 3924              	.LVL380:
 3925              	.L295:
 3926              		.loc 1 1017 9 discriminator 1 view .LVU1029
 3927              	.LBE163:
 3928              		.loc 1 1022 78 discriminator 1 view .LVU1030
 3929 0124 5000     		lsls	r0, r2, #1
 3930 0126 1044     		add	r0, r0, r2
 3931 0128 0CEB800C 		add	ip, ip, r0, lsl #2
 3932 012c 9CF82B90 		ldrb	r9, [ip, #43]	@ zero_extendqisi2
 3933              	.LVL381:
 3934              	.LBB164:
 3935              	.LBI158:
 3936              		.loc 1 975 13 is_stmt 1 view .LVU1031
 3937              	.LBB161:
 3938              		.loc 1 977 3 view .LVU1032
 3939              		.loc 1 978 3 view .LVU1033
 3940              		.loc 1 978 6 is_stmt 0 view .LVU1034
 3941 0130 B9F10C0F 		cmp	r9, #12
 3942 0134 B3D8     		bhi	.L276
 3943              	.LVL382:
 3944              		.loc 1 980 3 is_stmt 1 view .LVU1035
 3945              		.loc 1 981 3 view .LVU1036
 3946              		.loc 1 981 18 is_stmt 0 view .LVU1037
 3947 0136 174B     		ldr	r3, .L297+4
 3948              		.loc 1 983 14 view .LVU1038
 3949 0138 0691     		str	r1, [sp, #24]
 3950              		.loc 1 981 18 view .LVU1039
 3951 013a 03EB0913 		add	r3, r3, r9, lsl #4
 3952              		.loc 1 983 14 view .LVU1040
 3953 013e 3846     		mov	r0, r7
 3954 0140 9A68     		ldr	r2, [r3, #8]
 3955              	.LVL383:
 3956              		.loc 1 981 18 view .LVU1041
 3957 0142 D3F80CA0 		ldr	r10, [r3, #12]
 3958              	.LVL384:
 3959              		.loc 1 982 3 is_stmt 1 view .LVU1042
 3960              		.loc 1 982 15 is_stmt 0 view .LVU1043
 3961 0146 D3F80480 		ldr	r8, [r3, #4]
 3962              	.LVL385:
 3963              		.loc 1 983 3 is_stmt 1 view .LVU1044
 3964              		.loc 1 983 14 is_stmt 0 view .LVU1045
ARM GAS  C:\msys64\tmp\ccGTf9yH.s 			page 72


 3965 014a 9047     		blx	r2
 3966              	.LVL386:
 3967              		.loc 1 984 14 view .LVU1046
 3968 014c 0699     		ldr	r1, [sp, #24]
 3969 014e 3846     		mov	r0, r7
 3970              		.loc 1 983 14 view .LVU1047
 3971 0150 10EE104A 		vmov	r4, s0
 3972              	.LVL387:
 3973              		.loc 1 984 3 is_stmt 1 view .LVU1048
 3974              		.loc 1 984 14 is_stmt 0 view .LVU1049
 3975 0154 D047     		blx	r10
 3976              	.LVL388:
 3977              		.loc 1 986 7 view .LVU1050
 3978 0156 41F25053 		movw	r3, #5456
 3979 015a 43FA09F3 		asr	r3, r3, r9
 3980              		.loc 1 986 6 view .LVU1051
 3981 015e 13F00103 		ands	r3, r3, #1
 3982              		.loc 1 984 14 view .LVU1052
 3983 0162 B0EE408A 		vmov.f32	s16, s0
 3984              	.LVL389:
 3985              		.loc 1 986 3 is_stmt 1 view .LVU1053
 3986              		.loc 1 986 6 is_stmt 0 view .LVU1054
 3987 0166 87D0     		beq	.L283
 3988              	.LBB160:
 3989              		.loc 1 988 5 is_stmt 1 view .LVU1055
 3990              		.loc 1 988 15 is_stmt 0 view .LVU1056
 3991 0168 3846     		mov	r0, r7
 3992 016a FFF7FEFF 		bl	get_w
 3993              	.LVL390:
 3994              		.loc 1 989 5 is_stmt 1 view .LVU1057
 3995              		.loc 1 989 8 is_stmt 0 view .LVU1058
 3996 016e B5EEC08A 		vcmpe.f32	s16, #0
 3997 0172 F1EE10FA 		vmrs	APSR_nzcv, FPSCR
 3998 0176 03D4     		bmi	.L296
 3999              		.loc 1 996 7 is_stmt 1 view .LVU1059
 4000              		.loc 1 996 10 is_stmt 0 view .LVU1060
 4001 0178 88EE008A 		vdiv.f32	s16, s16, s0
 4002              	.LVL391:
 4003              		.loc 1 997 7 is_stmt 1 view .LVU1061
 4004              		.loc 1 996 10 is_stmt 0 view .LVU1062
 4005 017c 4823     		movs	r3, #72
 4006 017e 7BE7     		b	.L283
 4007              	.LVL392:
 4008              	.L296:
 4009              		.loc 1 991 7 is_stmt 1 view .LVU1063
 4010              		.loc 1 991 23 is_stmt 0 view .LVU1064
 4011 0180 28EE000A 		vmul.f32	s0, s16, s0
 4012              	.LVL393:
 4013              		.loc 1 991 10 view .LVU1065
 4014 0184 FFEE007A 		vmov.f32	s15, #-1.0e+0
 4015 0188 87EE808A 		vdiv.f32	s16, s15, s0
 4016              	.LVL394:
 4017              		.loc 1 992 7 is_stmt 1 view .LVU1066
 4018              		.loc 1 992 7 is_stmt 0 view .LVU1067
 4019 018c 4623     		movs	r3, #70
 4020 018e 73E7     		b	.L283
 4021              	.L298:
ARM GAS  C:\msys64\tmp\ccGTf9yH.s 			page 73


 4022              		.align	2
 4023              	.L297:
 4024 0190 00000000 		.word	measured
 4025 0194 00000000 		.word	marker_info_list
 4026 0198 00000000 		.word	current_props
 4027 019c 00000000 		.word	trace_info_list
 4028 01a0 00000000 		.word	.LC35
 4029              	.LBE160:
 4030              	.LBE161:
 4031              	.LBE164:
 4032              		.cfi_endproc
 4033              	.LFE298:
 4034              		.size	trace_print_value_string, .-trace_print_value_string
 4035              		.section	.text.find_filter_pass,"ax",%progbits
 4036              		.align	1
 4037              		.syntax unified
 4038              		.thumb
 4039              		.thumb_func
 4040              		.type	find_filter_pass, %function
 4041              	find_filter_pass:
 4042              	.LVL395:
 4043              	.LFB344:
 4044              		.loc 4 595 82 is_stmt 1 view -0
 4045              		.cfi_startproc
 4046              		@ args = 0, pretend = 0, frame = 8
 4047              		@ frame_needed = 0, uses_anonymous_args = 0
 4048              		.loc 4 597 3 view .LVU1069
 4049              	.LBB165:
 4050              		.loc 4 597 8 view .LVU1070
 4051              		.loc 4 597 21 discriminator 1 view .LVU1071
 4052              	.LBE165:
 4053              		.loc 4 595 82 is_stmt 0 view .LVU1072
 4054 0000 2DE9F041 		push	{r4, r5, r6, r7, r8, lr}
 4055              		.cfi_def_cfa_offset 24
 4056              		.cfi_offset 4, -24
 4057              		.cfi_offset 5, -20
 4058              		.cfi_offset 6, -16
 4059              		.cfi_offset 7, -12
 4060              		.cfi_offset 8, -8
 4061              		.cfi_offset 14, -4
 4062 0004 2DED028B 		vpush.64	{d8}
 4063              		.cfi_def_cfa_offset 32
 4064              		.cfi_offset 80, -32
 4065              		.cfi_offset 81, -28
 4066 0008 82B0     		sub	sp, sp, #8
 4067              		.cfi_def_cfa_offset 40
 4068 000a DFF8A880 		ldr	r8, .L313+12
 4069              		.loc 4 595 82 view .LVU1073
 4070 000e ADF80610 		strh	r1, [sp, #6]	@ movhi
 4071 0012 B0EE408A 		vmov.f32	s16, s0
 4072 0016 0446     		mov	r4, r0
 4073 0018 1646     		mov	r6, r2
 4074 001a 0746     		mov	r7, r0
 4075              	.LBB166:
 4076              		.loc 4 597 12 view .LVU1074
 4077 001c 0025     		movs	r5, #0
 4078              	.LVL396:
ARM GAS  C:\msys64\tmp\ccGTf9yH.s 			page 74


 4079              	.L301:
 4080              		.loc 4 598 5 is_stmt 1 view .LVU1075
 4081              		.loc 4 598 58 is_stmt 0 view .LVU1076
 4082 001e B8EC010A 		vldmia.32	r8!, {s0}
 4083              		.loc 4 598 15 view .LVU1077
 4084 0022 38EE400A 		vsub.f32	s0, s16, s0
 4085 0026 25B9     		cbnz	r5, .L303
 4086              	.LVL397:
 4087              		.loc 4 598 15 discriminator 3 view .LVU1078
 4088 0028 721C     		adds	r2, r6, #1
 4089 002a 14BF     		ite	ne
 4090 002c 0223     		movne	r3, #2
 4091 002e 0123     		moveq	r3, #1
 4092 0030 01E0     		b	.L300
 4093              	.LVL398:
 4094              	.L303:
 4095              		.loc 4 598 15 discriminator 2 view .LVU1079
 4096 0032 4FF0FF33 		mov	r3, #-1
 4097              	.LVL399:
 4098              	.L300:
 4099              		.loc 4 598 15 discriminator 8 view .LVU1080
 4100 0036 1C49     		ldr	r1, .L313
 4101 0038 3246     		mov	r2, r6
 4102 003a 0DF10600 		add	r0, sp, #6
 4103 003e FFF7FEFF 		bl	measure_search_value
 4104              	.LVL400:
 4105              		.loc 4 597 30 discriminator 2 view .LVU1081
 4106 0042 0135     		adds	r5, r5, #1
 4107              		.loc 4 597 21 discriminator 1 view .LVU1082
 4108 0044 042D     		cmp	r5, #4
 4109              		.loc 4 598 13 discriminator 1 view .LVU1083
 4110 0046 A7EC010A 		vstmia.32	r7!, {s0}
 4111              		.loc 4 597 30 is_stmt 1 discriminator 2 view .LVU1084
 4112              	.LVL401:
 4113              		.loc 4 597 21 discriminator 1 view .LVU1085
 4114 004a E8D1     		bne	.L301
 4115              	.LBE166:
 4116              		.loc 4 600 3 view .LVU1086
 4117              		.loc 4 601 6 is_stmt 0 view .LVU1087
 4118 004c D4ED027A 		vldr.32	s15, [r4, #8]
 4119 0050 F5EE407A 		vcmp.f32	s15, #0
 4120              		.loc 4 600 25 view .LVU1088
 4121 0054 0023     		movs	r3, #0
 4122              		.loc 4 601 6 view .LVU1089
 4123 0056 F1EE10FA 		vmrs	APSR_nzcv, FPSCR
 4124              		.loc 4 600 25 view .LVU1090
 4125 005a 6361     		str	r3, [r4, #20]	@ float
 4126              		.loc 4 600 13 view .LVU1091
 4127 005c 2361     		str	r3, [r4, #16]	@ float
 4128              		.loc 4 601 3 is_stmt 1 view .LVU1092
 4129              		.loc 4 601 6 is_stmt 0 view .LVU1093
 4130 005e 1ED0     		beq	.L299
 4131              		.loc 4 601 31 discriminator 1 view .LVU1094
 4132 0060 94ED030A 		vldr.32	s0, [r4, #12]
 4133              		.loc 4 601 24 discriminator 1 view .LVU1095
 4134 0064 B5EE400A 		vcmp.f32	s0, #0
 4135 0068 F1EE10FA 		vmrs	APSR_nzcv, FPSCR
ARM GAS  C:\msys64\tmp\ccGTf9yH.s 			page 75


 4136 006c 17D0     		beq	.L299
 4137              	.LBB167:
 4138              		.loc 4 602 5 is_stmt 1 view .LVU1096
 4139              		.loc 4 602 25 is_stmt 0 view .LVU1097
 4140 006e FFF7FEFF 		bl	vna_logf
 4141              	.LVL402:
 4142 0072 B0EE408A 		vmov.f32	s16, s0
 4143              	.LVL403:
 4144              		.loc 4 602 49 discriminator 1 view .LVU1098
 4145 0076 94ED020A 		vldr.32	s0, [r4, #8]
 4146 007a FFF7FEFF 		bl	vna_logf
 4147              	.LVL404:
 4148              	.LBB168:
 4149              	.LBI168:
 4150              		.loc 2 36 54 is_stmt 1 view .LVU1099
 4151              	.LBB169:
 4152              		.loc 2 36 73 view .LVU1100
 4153              	.LBE169:
 4154              	.LBE168:
 4155              		.loc 4 604 39 is_stmt 0 view .LVU1101
 4156 007e 9FED0B7A 		vldr.32	s14, .L313+4
 4157              		.loc 4 602 15 discriminator 2 view .LVU1102
 4158 0082 38EE400A 		vsub.f32	s0, s16, s0
 4159              	.LVL405:
 4160              	.LBB171:
 4161              	.LBB170:
 4162              		.loc 2 36 73 view .LVU1103
 4163              		.syntax unified
 4164              	@ 36 "vna_math.h" 1
 4165 0086 B0EEC00A 		vabs.f32 s0, s0
 4166              	@ 0 "" 2
 4167              	.LVL406:
 4168              		.loc 2 36 121 is_stmt 1 view .LVU1104
 4169              		.loc 2 36 121 is_stmt 0 view .LVU1105
 4170              		.thumb
 4171              		.syntax unified
 4172              	.LBE170:
 4173              	.LBE171:
 4174              		.loc 4 604 5 is_stmt 1 view .LVU1106
 4175              		.loc 4 604 39 is_stmt 0 view .LVU1107
 4176 008a C7EE007A 		vdiv.f32	s15, s14, s0
 4177              		.loc 4 606 39 view .LVU1108
 4178 008e 9FED087A 		vldr.32	s14, .L313+8
 4179              		.loc 4 604 15 view .LVU1109
 4180 0092 C4ED047A 		vstr.32	s15, [r4, #16]
 4181              		.loc 4 606 5 is_stmt 1 view .LVU1110
 4182              		.loc 4 606 39 is_stmt 0 view .LVU1111
 4183 0096 C7EE007A 		vdiv.f32	s15, s14, s0
 4184              		.loc 4 606 15 view .LVU1112
 4185 009a C4ED057A 		vstr.32	s15, [r4, #20]
 4186              	.LVL407:
 4187              	.L299:
 4188              		.loc 4 606 15 view .LVU1113
 4189              	.LBE167:
 4190              		.loc 4 608 1 view .LVU1114
 4191 009e 02B0     		add	sp, sp, #8
 4192              		.cfi_def_cfa_offset 32
ARM GAS  C:\msys64\tmp\ccGTf9yH.s 			page 76


 4193              		@ sp needed
 4194 00a0 BDEC028B 		vldm	sp!, {d8}
 4195              		.cfi_restore 80
 4196              		.cfi_restore 81
 4197              		.cfi_def_cfa_offset 24
 4198 00a4 BDE8F081 		pop	{r4, r5, r6, r7, r8, pc}
 4199              	.LVL408:
 4200              	.L314:
 4201              		.loc 4 608 1 view .LVU1115
 4202              		.align	2
 4203              	.L313:
 4204 00a8 00000000 		.word	s21logmag
 4205 00ac F234B841 		.word	1102591218
 4206 00b0 9ECEDD40 		.word	1088278174
 4207 00b4 00000000 		.word	filter_att
 4208              		.cfi_endproc
 4209              	.LFE344:
 4210              		.size	find_filter_pass, .-find_filter_pass
 4211              		.section	.text.marker_area_max,"ax",%progbits
 4212              		.align	1
 4213              		.p2align 4,,15
 4214              		.syntax unified
 4215              		.thumb
 4216              		.thumb_func
 4217              		.type	marker_area_max, %function
 4218              	marker_area_max:
 4219              	.LFB307:
 4220              		.loc 1 1154 1 is_stmt 1 view -0
 4221              		.cfi_startproc
 4222              		@ args = 0, pretend = 0, frame = 0
 4223              		@ frame_needed = 0, uses_anonymous_args = 0
 4224              		.loc 1 1155 3 view .LVU1117
 4225              	.LVL409:
 4226              		.loc 1 1156 3 view .LVU1118
 4227              		.loc 1 1156 17 discriminator 1 view .LVU1119
 4228              		.loc 1 1154 1 is_stmt 0 view .LVU1120
 4229 0000 38B5     		push	{r3, r4, r5, lr}
 4230              		.cfi_def_cfa_offset 16
 4231              		.cfi_offset 3, -16
 4232              		.cfi_offset 4, -12
 4233              		.cfi_offset 5, -8
 4234              		.cfi_offset 14, -4
 4235 0002 1A4B     		ldr	r3, .L331
 4236              		.loc 1 1155 7 view .LVU1121
 4237 0004 0024     		movs	r4, #0
 4238 0006 03F13000 		add	r0, r3, #48
 4239              		.loc 1 1154 1 view .LVU1122
 4240 000a 1D46     		mov	r5, r3
 4241 000c 1A46     		mov	r2, r3
 4242              	.LVL410:
 4243              	.L317:
 4244              		.loc 1 1157 5 is_stmt 1 view .LVU1123
 4245              		.loc 1 1158 7 view .LVU1124
 4246              		.loc 1 1157 8 is_stmt 0 view .LVU1125
 4247 000e 92F82810 		ldrb	r1, [r2, #40]	@ zero_extendqisi2
 4248              		.loc 1 1156 17 discriminator 1 view .LVU1126
 4249 0012 0C32     		adds	r2, r2, #12
ARM GAS  C:\msys64\tmp\ccGTf9yH.s 			page 77


 4250              		.loc 1 1157 8 view .LVU1127
 4251 0014 01B1     		cbz	r1, .L316
 4252              		.loc 1 1158 14 view .LVU1128
 4253 0016 0134     		adds	r4, r4, #1
 4254              	.LVL411:
 4255              	.L316:
 4256              		.loc 1 1156 32 is_stmt 1 discriminator 2 view .LVU1129
 4257              		.loc 1 1156 17 discriminator 1 view .LVU1130
 4258 0018 9042     		cmp	r0, r2
 4259 001a F8D1     		bne	.L317
 4260              	.LVL412:
 4261              		.loc 1 1159 17 discriminator 1 view .LVU1131
 4262 001c 1448     		ldr	r0, .L331+4
 4263              		.loc 1 1155 20 is_stmt 0 view .LVU1132
 4264 001e 0021     		movs	r1, #0
 4265              	.LVL413:
 4266              	.L319:
 4267              		.loc 1 1160 5 is_stmt 1 view .LVU1133
 4268              		.loc 1 1161 7 view .LVU1134
 4269              		.loc 1 1160 8 is_stmt 0 view .LVU1135
 4270 0020 93F85820 		ldrb	r2, [r3, #88]	@ zero_extendqisi2
 4271              		.loc 1 1159 17 discriminator 1 view .LVU1136
 4272 0024 0833     		adds	r3, r3, #8
 4273              		.loc 1 1160 8 view .LVU1137
 4274 0026 02B1     		cbz	r2, .L318
 4275              		.loc 1 1161 14 view .LVU1138
 4276 0028 0131     		adds	r1, r1, #1
 4277              	.LVL414:
 4278              	.L318:
 4279              		.loc 1 1159 33 is_stmt 1 discriminator 2 view .LVU1139
 4280              		.loc 1 1159 17 discriminator 1 view .LVU1140
 4281 002a 9842     		cmp	r0, r3
 4282 002c F8D1     		bne	.L319
 4283              		.loc 1 1162 3 view .LVU1141
 4284              		.loc 1 1162 7 is_stmt 0 view .LVU1142
 4285 002e 8C42     		cmp	r4, r1
 4286 0030 B8BF     		it	lt
 4287 0032 0C46     		movlt	r4, r1
 4288              	.LVL415:
 4289              		.loc 1 1163 3 is_stmt 1 view .LVU1143
 4290              		.loc 1 1164 3 view .LVU1144
 4291              		.loc 1 1164 7 is_stmt 0 view .LVU1145
 4292 0034 FFF7FEFF 		bl	get_electrical_delay
 4293              	.LVL416:
 4294              		.loc 1 1166 6 view .LVU1146
 4295 0038 D5ED2A7A 		vldr.32	s15, [r5, #168]
 4296              	.LVL417:
 4297              		.loc 1 1166 3 is_stmt 1 view .LVU1147
 4298              		.loc 1 1166 6 is_stmt 0 view .LVU1148
 4299 003c F5EE407A 		vcmp.f32	s15, #0
 4300 0040 F1EE10FA 		vmrs	APSR_nzcv, FPSCR
 4301 0044 10D0     		beq	.L321
 4302              		.loc 1 1167 5 is_stmt 1 view .LVU1149
 4303              		.loc 1 1164 6 is_stmt 0 discriminator 1 view .LVU1150
 4304 0046 B5EE400A 		vcmp.f32	s0, #0
 4305 004a F1EE10FA 		vmrs	APSR_nzcv, FPSCR
 4306 004e 14BF     		ite	ne
ARM GAS  C:\msys64\tmp\ccGTf9yH.s 			page 78


 4307 0050 0123     		movne	r3, #1
 4308 0052 0023     		moveq	r3, #0
 4309 0054 5B00     		lsls	r3, r3, #1
 4310              		.loc 1 1167 11 view .LVU1151
 4311 0056 0233     		adds	r3, r3, #2
 4312              	.LVL418:
 4313              		.loc 1 1172 3 is_stmt 1 view .LVU1152
 4314              	.L320:
 4315              		.loc 1 1174 3 view .LVU1153
 4316              		.loc 1 1174 14 is_stmt 0 view .LVU1154
 4317 0058 2344     		add	r3, r3, r4
 4318              	.LVL419:
 4319              		.loc 1 1174 22 view .LVU1155
 4320 005a 0133     		adds	r3, r3, #1
 4321              	.LVL420:
 4322              		.loc 1 1175 3 is_stmt 1 view .LVU1156
 4323              		.loc 1 1174 7 is_stmt 0 view .LVU1157
 4324 005c 5B10     		asrs	r3, r3, #1
 4325              	.LVL421:
 4326              		.loc 1 1175 14 view .LVU1158
 4327 005e 03EB8300 		add	r0, r3, r3, lsl #2
 4328              		.loc 1 1176 1 view .LVU1159
 4329 0062 03EB4000 		add	r0, r3, r0, lsl #1
 4330 0066 38BD     		pop	{r3, r4, r5, pc}
 4331              	.LVL422:
 4332              	.L321:
 4333              		.loc 1 1176 1 view .LVU1160
 4334 0068 0223     		movs	r3, #2
 4335 006a F5E7     		b	.L320
 4336              	.L332:
 4337              		.align	2
 4338              	.L331:
 4339 006c 00000000 		.word	current_props
 4340 0070 40000000 		.word	current_props+64
 4341              		.cfi_endproc
 4342              	.LFE307:
 4343              		.size	marker_area_max, .-marker_area_max
 4344              		.section	.text.cell_fill_bg_rect.constprop.0,"ax",%progbits
 4345              		.align	1
 4346              		.p2align 4,,15
 4347              		.syntax unified
 4348              		.thumb
 4349              		.thumb_func
 4350              		.type	cell_fill_bg_rect.constprop.0, %function
 4351              	cell_fill_bg_rect.constprop.0:
 4352              	.LVL423:
 4353              	.LFB394:
 4354              		.loc 1 1679 13 is_stmt 1 view -0
 4355              		.cfi_startproc
 4356              		@ args = 4, pretend = 0, frame = 0
 4357              		@ frame_needed = 0, uses_anonymous_args = 0
 4358              		.loc 1 1682 3 view .LVU1162
 4359              		.loc 1 1683 3 view .LVU1163
 4360              		.loc 1 1679 13 is_stmt 0 view .LVU1164
 4361 0000 10B5     		push	{r4, lr}
 4362              		.cfi_def_cfa_offset 8
 4363              		.cfi_offset 4, -8
ARM GAS  C:\msys64\tmp\ccGTf9yH.s 			page 79


 4364              		.cfi_offset 14, -4
 4365              		.loc 1 1685 5 view .LVU1165
 4366 0002 029C     		ldr	r4, [sp, #8]
 4367 0004 04F1060E 		add	lr, r4, #6
 4368              	.LVL424:
 4369              		.loc 1 1684 3 is_stmt 1 view .LVU1166
 4370              		.loc 1 1685 3 view .LVU1167
 4371              		.loc 1 1686 3 view .LVU1168
 4372              		.loc 1 1688 3 view .LVU1169
 4373              		.loc 1 1688 6 is_stmt 0 view .LVU1170
 4374 0008 BEF1000F 		cmp	lr, #0
 4375 000c 3DDD     		ble	.L333
 4376              		.loc 1 1683 5 view .LVU1171
 4377 000e A2F1030C 		sub	ip, r2, #3
 4378              	.LVL425:
 4379              		.loc 1 1692 3 is_stmt 1 view .LVU1172
 4380              		.loc 1 1693 3 view .LVU1173
 4381              		.loc 1 1698 7 is_stmt 0 view .LVU1174
 4382 0012 E644     		add	lr, lr, ip
 4383              	.LVL426:
 4384              		.loc 1 1693 6 view .LVU1175
 4385 0014 8445     		cmp	ip, r0
 4386              		.loc 1 1699 15 view .LVU1176
 4387 0016 00F12002 		add	r2, r0, #32
 4388              		.loc 1 1693 6 view .LVU1177
 4389 001a B8BF     		it	lt
 4390 001c 8446     		movlt	ip, r0
 4391              	.LVL427:
 4392              		.loc 1 1695 3 is_stmt 1 view .LVU1178
 4393              		.loc 1 1696 3 view .LVU1179
 4394              		.loc 1 1698 3 view .LVU1180
 4395              		.loc 1 1699 3 view .LVU1181
 4396              		.loc 1 1699 6 is_stmt 0 view .LVU1182
 4397 001e 9645     		cmp	lr, r2
 4398 0020 A8BF     		it	ge
 4399 0022 9646     		movge	lr, r2
 4400              	.LVL428:
 4401              		.loc 1 1701 3 is_stmt 1 view .LVU1183
 4402              		.loc 1 1702 3 view .LVU1184
 4403              		.loc 1 1705 3 view .LVU1185
 4404              		.loc 1 1705 6 is_stmt 0 view .LVU1186
 4405 0024 F445     		cmp	ip, lr
 4406 0026 30DA     		bge	.L333
 4407              		.loc 1 1684 5 view .LVU1187
 4408 0028 DA1E     		subs	r2, r3, #3
 4409              	.LVL429:
 4410              		.loc 1 1696 6 view .LVU1188
 4411 002a 8A42     		cmp	r2, r1
 4412              		.loc 1 1701 7 view .LVU1189
 4413 002c 03F11903 		add	r3, r3, #25
 4414              	.LVL430:
 4415              		.loc 1 1702 15 view .LVU1190
 4416 0030 01F12004 		add	r4, r1, #32
 4417              	.LVL431:
 4418              		.loc 1 1696 6 view .LVU1191
 4419 0034 B8BF     		it	lt
 4420 0036 0A46     		movlt	r2, r1
ARM GAS  C:\msys64\tmp\ccGTf9yH.s 			page 80


 4421              	.LVL432:
 4422              		.loc 1 1702 6 view .LVU1192
 4423 0038 A342     		cmp	r3, r4
 4424 003a A8BF     		it	ge
 4425 003c 2346     		movge	r3, r4
 4426              	.LVL433:
 4427              		.loc 1 1705 16 discriminator 1 view .LVU1193
 4428 003e 9A42     		cmp	r2, r3
 4429 0040 23DA     		bge	.L333
 4430              		.loc 1 1709 3 is_stmt 1 view .LVU1194
 4431 0042 521A     		subs	r2, r2, r1
 4432              	.LBB175:
 4433              	.LBB176:
 4434              		.loc 1 1713 62 is_stmt 0 view .LVU1195
 4435 0044 ACEB0000 		sub	r0, ip, r0
 4436              	.LVL434:
 4437              		.loc 1 1713 62 view .LVU1196
 4438 0048 591A     		subs	r1, r3, r1
 4439              	.LVL435:
 4440              		.loc 1 1713 62 view .LVU1197
 4441 004a 00EB4213 		add	r3, r0, r2, lsl #5
 4442              		.loc 1 1713 56 view .LVU1198
 4443 004e 0F4A     		ldr	r2, .L341
 4444 0050 1268     		ldr	r2, [r2]
 4445 0052 7344     		add	r3, r3, lr
 4446 0054 00EB4110 		add	r0, r0, r1, lsl #5
 4447 0058 A3EB0C01 		sub	r1, r3, ip
 4448 005c 00EB0E03 		add	r3, r0, lr
 4449 0060 A2EB4C00 		sub	r0, r2, ip, lsl #1
 4450 0064 00EB4300 		add	r0, r0, r3, lsl #1
 4451              	.LBE176:
 4452              	.LBE175:
 4453              		.loc 1 1709 17 view .LVU1199
 4454 0068 094B     		ldr	r3, .L341+4
 4455 006a ACEB0E0E 		sub	lr, ip, lr
 4456              	.LVL436:
 4457              		.loc 1 1709 17 view .LVU1200
 4458 006e 02EB4102 		add	r2, r2, r1, lsl #1
 4459 0072 D98B     		ldrh	r1, [r3, #30]
 4460              	.LVL437:
 4461              		.loc 1 1711 3 is_stmt 1 view .LVU1201
 4462              	.LBB179:
 4463              		.loc 1 1711 8 view .LVU1202
 4464              		.loc 1 1711 24 discriminator 1 view .LVU1203
 4465 0074 4FEA4E0E 		lsl	lr, lr, #1
 4466              	.LVL438:
 4467              	.L337:
 4468              	.LBB178:
 4469              		.loc 1 1713 5 view .LVU1204
 4470              		.loc 1 1713 14 is_stmt 0 view .LVU1205
 4471 0078 02EB0E03 		add	r3, r2, lr
 4472              	.LVL439:
 4473              		.loc 1 1714 5 is_stmt 1 view .LVU1206
 4474              	.LBB177:
 4475              		.loc 1 1714 10 view .LVU1207
 4476              		.loc 1 1714 26 discriminator 1 view .LVU1208
 4477              	.L336:
ARM GAS  C:\msys64\tmp\ccGTf9yH.s 			page 81


 4478              		.loc 1 1715 7 view .LVU1209
 4479              		.loc 1 1715 14 is_stmt 0 view .LVU1210
 4480 007c 23F8021B 		strh	r1, [r3], #2	@ movhi
 4481              	.LVL440:
 4482              		.loc 1 1714 34 is_stmt 1 discriminator 3 view .LVU1211
 4483              		.loc 1 1714 26 discriminator 1 view .LVU1212
 4484 0080 9342     		cmp	r3, r2
 4485 0082 FBD1     		bne	.L336
 4486              		.loc 1 1714 26 is_stmt 0 discriminator 1 view .LVU1213
 4487              	.LBE177:
 4488              	.LBE178:
 4489              		.loc 1 1711 32 is_stmt 1 discriminator 2 view .LVU1214
 4490              		.loc 1 1711 24 discriminator 1 view .LVU1215
 4491 0084 4032     		adds	r2, r2, #64
 4492 0086 8242     		cmp	r2, r0
 4493 0088 F6D1     		bne	.L337
 4494              	.LVL441:
 4495              	.L333:
 4496              		.loc 1 1711 24 is_stmt 0 discriminator 1 view .LVU1216
 4497              	.LBE179:
 4498              		.loc 1 1717 1 view .LVU1217
 4499 008a 10BD     		pop	{r4, pc}
 4500              	.LVL442:
 4501              	.L342:
 4502              		.loc 1 1717 1 view .LVU1218
 4503              		.align	2
 4504              	.L341:
 4505 008c 00000000 		.word	cell_buffer
 4506 0090 00000000 		.word	config
 4507              		.cfi_endproc
 4508              	.LFE394:
 4509              		.size	cell_fill_bg_rect.constprop.0, .-cell_fill_bg_rect.constprop.0
 4510              		.section	.text.search_peak_value.constprop.0,"ax",%progbits
 4511              		.align	1
 4512              		.syntax unified
 4513              		.thumb
 4514              		.thumb_func
 4515              		.type	search_peak_value.constprop.0, %function
 4516              	search_peak_value.constprop.0:
 4517              	.LVL443:
 4518              	.LFB395:
 4519              		.loc 4 84 14 is_stmt 1 view -0
 4520              		.cfi_startproc
 4521              		@ args = 0, pretend = 0, frame = 0
 4522              		@ frame_needed = 0, uses_anonymous_args = 0
 4523              		.loc 4 85 3 view .LVU1220
 4524              		.loc 4 84 14 is_stmt 0 view .LVU1221
 4525 0000 2DE9F047 		push	{r4, r5, r6, r7, r8, r9, r10, lr}
 4526              		.cfi_def_cfa_offset 32
 4527              		.cfi_offset 4, -32
 4528              		.cfi_offset 5, -28
 4529              		.cfi_offset 6, -24
 4530              		.cfi_offset 7, -20
 4531              		.cfi_offset 8, -16
 4532              		.cfi_offset 9, -12
 4533              		.cfi_offset 10, -8
 4534              		.cfi_offset 14, -4
ARM GAS  C:\msys64\tmp\ccGTf9yH.s 			page 82


 4535              		.loc 4 85 56 discriminator 1 view .LVU1222
 4536 0004 284B     		ldr	r3, .L357
 4537              	.LBB181:
 4538              		.loc 4 88 22 discriminator 1 view .LVU1223
 4539 0006 DFF8A890 		ldr	r9, .L357+8
 4540              	.LBE181:
 4541              		.loc 4 84 14 view .LVU1224
 4542 000a 0D46     		mov	r5, r1
 4543              		.loc 4 85 56 discriminator 1 view .LVU1225
 4544 000c 2749     		ldr	r1, .L357+4
 4545              	.LVL444:
 4546              		.loc 4 84 14 view .LVU1226
 4547 000e 2DED028B 		vpush.64	{d8}
 4548              		.cfi_def_cfa_offset 40
 4549              		.cfi_offset 80, -40
 4550              		.cfi_offset 81, -36
 4551              		.loc 4 84 14 view .LVU1227
 4552 0012 0746     		mov	r7, r0
 4553              		.loc 4 87 14 view .LVU1228
 4554 0014 0020     		movs	r0, #0
 4555              	.LVL445:
 4556              		.loc 4 85 56 discriminator 1 view .LVU1229
 4557 0016 002A     		cmp	r2, #0
 4558 0018 0CBF     		ite	eq
 4559 001a 8A46     		moveq	r10, r1
 4560 001c 9A46     		movne	r10, r3
 4561              	.LVL446:
 4562              		.loc 4 86 3 is_stmt 1 view .LVU1230
 4563              		.loc 4 87 3 view .LVU1231
 4564              		.loc 4 87 14 is_stmt 0 view .LVU1232
 4565 001e A847     		blx	r5
 4566              	.LVL447:
 4567              	.LBB182:
 4568              		.loc 4 88 11 view .LVU1233
 4569 0020 0126     		movs	r6, #1
 4570              	.LBE182:
 4571              		.loc 4 87 14 view .LVU1234
 4572 0022 B0EE408A 		vmov.f32	s16, s0
 4573              	.LVL448:
 4574              		.loc 4 88 3 is_stmt 1 view .LVU1235
 4575              	.LBB183:
 4576              		.loc 4 88 7 view .LVU1236
 4577              		.loc 4 88 7 is_stmt 0 view .LVU1237
 4578              	.LBE183:
 4579              		.loc 4 86 12 view .LVU1238
 4580 0026 0024     		movs	r4, #0
 4581              	.LVL449:
 4582              	.L345:
 4583              	.LBB184:
 4584              		.loc 4 88 20 is_stmt 1 discriminator 1 view .LVU1239
 4585              		.loc 4 88 22 is_stmt 0 discriminator 1 view .LVU1240
 4586 0028 B9F81A30 		ldrh	r3, [r9, #26]
 4587              		.loc 4 88 20 discriminator 1 view .LVU1241
 4588 002c 9E42     		cmp	r6, r3
 4589 002e 11DA     		bge	.L356
 4590              		.loc 4 89 5 is_stmt 1 view .LVU1242
 4591 0030 1FFA86F8 		uxth	r8, r6
ARM GAS  C:\msys64\tmp\ccGTf9yH.s 			page 83


 4592              		.loc 4 89 24 is_stmt 0 view .LVU1243
 4593 0034 4046     		mov	r0, r8
 4594 0036 A847     		blx	r5
 4595              	.LVL450:
 4596              		.loc 4 89 8 discriminator 1 view .LVU1244
 4597 0038 F0EE480A 		vmov.f32	s1, s16
 4598              		.loc 4 89 24 view .LVU1245
 4599 003c F0EE408A 		vmov.f32	s17, s0
 4600              	.LVL451:
 4601              		.loc 4 89 8 discriminator 1 view .LVU1246
 4602 0040 D047     		blx	r10
 4603              	.LVL452:
 4604              		.loc 4 89 7 discriminator 2 view .LVU1247
 4605 0042 0028     		cmp	r0, #0
 4606              	.LVL453:
 4607              		.loc 4 88 37 is_stmt 1 discriminator 2 view .LVU1248
 4608 0044 06F10106 		add	r6, r6, #1
 4609              	.LVL454:
 4610              		.loc 4 88 37 is_stmt 0 discriminator 2 view .LVU1249
 4611 0048 18BF     		it	ne
 4612 004a B0EE688A 		vmovne.f32	s16, s17
 4613              	.LVL455:
 4614              		.loc 4 88 37 discriminator 2 view .LVU1250
 4615 004e 18BF     		it	ne
 4616 0050 4446     		movne	r4, r8
 4617              	.LVL456:
 4618              		.loc 4 88 37 discriminator 2 view .LVU1251
 4619 0052 E9E7     		b	.L345
 4620              	.LVL457:
 4621              	.L356:
 4622              		.loc 4 88 37 discriminator 2 view .LVU1252
 4623              	.LBE184:
 4624              		.loc 4 94 3 is_stmt 1 view .LVU1253
 4625              		.loc 4 94 6 is_stmt 0 view .LVU1254
 4626 0054 14B3     		cbz	r4, .L343
 4627              		.loc 4 94 34 discriminator 2 view .LVU1255
 4628 0056 013B     		subs	r3, r3, #1
 4629              		.loc 4 94 13 discriminator 2 view .LVU1256
 4630 0058 9C42     		cmp	r4, r3
 4631 005a 1FDA     		bge	.L343
 4632              		.loc 4 95 3 is_stmt 1 view .LVU1257
 4633              		.loc 4 96 14 is_stmt 0 view .LVU1258
 4634 005c 601E     		subs	r0, r4, #1
 4635 005e 80B2     		uxth	r0, r0
 4636              		.loc 4 95 7 view .LVU1259
 4637 0060 3C80     		strh	r4, [r7]	@ movhi
 4638              		.loc 4 96 3 is_stmt 1 view .LVU1260
 4639              		.loc 4 96 14 is_stmt 0 view .LVU1261
 4640 0062 A847     		blx	r5
 4641              	.LVL458:
 4642              		.loc 4 97 14 view .LVU1262
 4643 0064 601C     		adds	r0, r4, #1
 4644 0066 80B2     		uxth	r0, r0
 4645              		.loc 4 96 14 view .LVU1263
 4646 0068 F0EE408A 		vmov.f32	s17, s0
 4647              	.LVL459:
 4648              		.loc 4 97 3 is_stmt 1 view .LVU1264
ARM GAS  C:\msys64\tmp\ccGTf9yH.s 			page 84


 4649              		.loc 4 97 14 is_stmt 0 view .LVU1265
 4650 006c A847     		blx	r5
 4651              	.LVL460:
 4652              		.loc 4 98 3 is_stmt 1 view .LVU1266
 4653              		.loc 4 98 6 is_stmt 0 view .LVU1267
 4654 006e F4EE408A 		vcmp.f32	s17, s0
 4655 0072 F1EE10FA 		vmrs	APSR_nzcv, FPSCR
 4656 0076 11D0     		beq	.L343
 4657              		.loc 4 103 3 is_stmt 1 view .LVU1268
 4658              		.loc 4 103 42 is_stmt 0 view .LVU1269
 4659 0078 38EE807A 		vadd.f32	s14, s17, s0
 4660              		.loc 4 104 15 view .LVU1270
 4661 007c 70EE687A 		vsub.f32	s15, s0, s17
 4662              		.loc 4 103 42 view .LVU1271
 4663 0080 F0EE006A 		vmov.f32	s13, #2.0e+0
 4664 0084 A8EE667A 		vfms.f32	s14, s16, s13
 4665              	.LVL461:
 4666              		.loc 4 104 3 is_stmt 1 view .LVU1272
 4667              		.loc 4 105 3 view .LVU1273
 4668              		.loc 4 106 3 view .LVU1274
 4669              		.loc 4 106 20 is_stmt 0 view .LVU1275
 4670 0088 67EEA77A 		vmul.f32	s15, s15, s15
 4671              	.LVL462:
 4672              		.loc 4 106 20 view .LVU1276
 4673 008c F4EE006A 		vmov.f32	s13, #1.25e-1
 4674 0090 67EEA67A 		vmul.f32	s15, s15, s13
 4675 0094 C7EE876A 		vdiv.f32	s13, s15, s14
 4676              		.loc 4 106 12 view .LVU1277
 4677 0098 38EE668A 		vsub.f32	s16, s16, s13
 4678              	.LVL463:
 4679              	.L343:
 4680              		.loc 4 107 1 view .LVU1278
 4681 009c B0EE480A 		vmov.f32	s0, s16
 4682 00a0 BDEC028B 		vldm	sp!, {d8}
 4683              		.cfi_restore 80
 4684              		.cfi_restore 81
 4685              		.cfi_def_cfa_offset 32
 4686 00a4 BDE8F087 		pop	{r4, r5, r6, r7, r8, r9, r10, pc}
 4687              	.LVL464:
 4688              	.L358:
 4689              		.loc 4 107 1 view .LVU1279
 4690              		.align	2
 4691              	.L357:
 4692 00a8 00000000 		.word	_greaterf
 4693 00ac 00000000 		.word	_lesserf
 4694 00b0 00000000 		.word	current_props
 4695              		.cfi_endproc
 4696              	.LFE395:
 4697              		.size	search_peak_value.constprop.0, .-search_peak_value.constprop.0
 4698              		.section	.text.prepare_filter,"ax",%progbits
 4699              		.align	1
 4700              		.syntax unified
 4701              		.thumb
 4702              		.thumb_func
 4703              		.type	prepare_filter, %function
 4704              	prepare_filter:
 4705              	.LVL465:
ARM GAS  C:\msys64\tmp\ccGTf9yH.s 			page 85


 4706              	.LFB345:
 4707              		.loc 4 610 63 is_stmt 1 view -0
 4708              		.cfi_startproc
 4709              		@ args = 0, pretend = 0, frame = 8
 4710              		@ frame_needed = 0, uses_anonymous_args = 0
 4711              		.loc 4 611 3 view .LVU1281
 4712              		.loc 4 612 3 view .LVU1282
 4713              		.loc 4 613 3 view .LVU1283
 4714              		.loc 4 610 63 is_stmt 0 view .LVU1284
 4715 0000 73B5     		push	{r0, r1, r4, r5, r6, lr}
 4716              		.cfi_def_cfa_offset 24
 4717              		.cfi_offset 4, -16
 4718              		.cfi_offset 5, -12
 4719              		.cfi_offset 6, -8
 4720              		.cfi_offset 14, -4
 4721              		.loc 4 614 22 view .LVU1285
 4722 0002 0122     		movs	r2, #1
 4723 0004 2D49     		ldr	r1, .L367
 4724              	.LVL466:
 4725              		.loc 4 614 20 discriminator 1 view .LVU1286
 4726 0006 2E4C     		ldr	r4, .L367+4
 4727              		.loc 4 613 12 view .LVU1287
 4728 0008 0026     		movs	r6, #0
 4729              		.loc 4 614 22 view .LVU1288
 4730 000a 0DF10600 		add	r0, sp, #6
 4731              	.LVL467:
 4732              		.loc 4 613 12 view .LVU1289
 4733 000e ADF80660 		strh	r6, [sp, #6]	@ movhi
 4734              		.loc 4 614 3 is_stmt 1 view .LVU1290
 4735              		.loc 4 614 22 is_stmt 0 view .LVU1291
 4736 0012 FFF7FEFF 		bl	search_peak_value.constprop.0
 4737              	.LVL468:
 4738              		.loc 4 616 6 view .LVU1292
 4739 0016 DFED2B7A 		vldr.32	s15, .L367+8
 4740              		.loc 4 614 20 discriminator 1 view .LVU1293
 4741 001a 84ED010A 		vstr.32	s0, [r4, #4]
 4742              		.loc 4 616 3 is_stmt 1 view .LVU1294
 4743              		.loc 4 616 6 is_stmt 0 view .LVU1295
 4744 001e B4EEE70A 		vcmpe.f32	s0, s15
 4745 0022 F1EE10FA 		vmrs	APSR_nzcv, FPSCR
 4746 0026 40DB     		blt	.L361
 4747              		.loc 4 617 5 is_stmt 1 view .LVU1296
 4748 0028 BDF80650 		ldrh	r5, [sp, #6]
 4749 002c 3046     		mov	r0, r6
 4750 002e 2946     		mov	r1, r5
 4751 0030 FFF7FEFF 		bl	set_marker_index
 4752              	.LVL469:
 4753              		.loc 4 618 5 view .LVU1297
 4754              		.loc 4 618 24 is_stmt 0 view .LVU1298
 4755 0034 2846     		mov	r0, r5
 4756 0036 FFF7FEFF 		bl	getFrequency
 4757              	.LVL470:
 4758 003a 07EE900A 		vmov	s15, r0	@ int
 4759              		.loc 4 618 22 discriminator 1 view .LVU1299
 4760 003e 2046     		mov	r0, r4
 4761 0040 F8EE677A 		vcvt.f32.u32	s15, s15
 4762              		.loc 4 619 5 view .LVU1300
ARM GAS  C:\msys64\tmp\ccGTf9yH.s 			page 86


 4763 0044 94ED010A 		vldr.32	s0, [r4, #4]
 4764              		.loc 4 618 22 discriminator 1 view .LVU1301
 4765 0048 C4ED007A 		vstr.32	s15, [r4]
 4766              		.loc 4 619 5 is_stmt 1 view .LVU1302
 4767              		.loc 4 618 22 is_stmt 0 discriminator 1 view .LVU1303
 4768 004c 2030     		adds	r0, r0, #32
 4769              		.loc 4 619 5 view .LVU1304
 4770 004e 4FF0FF32 		mov	r2, #-1
 4771 0052 2946     		mov	r1, r5
 4772 0054 FFF7FEFF 		bl	find_filter_pass
 4773              	.LVL471:
 4774              		.loc 4 620 5 is_stmt 1 view .LVU1305
 4775 0058 94ED010A 		vldr.32	s0, [r4, #4]
 4776 005c 0122     		movs	r2, #1
 4777 005e 2946     		mov	r1, r5
 4778 0060 04F10800 		add	r0, r4, #8
 4779 0064 FFF7FEFF 		bl	find_filter_pass
 4780              	.LVL472:
 4781              		.loc 4 622 5 view .LVU1306
 4782              		.loc 4 622 49 is_stmt 0 view .LVU1307
 4783 0068 94ED027A 		vldr.32	s14, [r4, #8]
 4784              		.loc 4 622 79 view .LVU1308
 4785 006c D4ED086A 		vldr.32	s13, [r4, #32]
 4786              		.loc 4 622 56 view .LVU1309
 4787 0070 67EE267A 		vmul.f32	s15, s14, s13
 4788              		.loc 4 623 8 view .LVU1310
 4789 0074 F5EE407A 		vcmp.f32	s15, #0
 4790 0078 F1EE10FA 		vmrs	APSR_nzcv, FPSCR
 4791              		.loc 4 622 26 view .LVU1311
 4792 007c C4ED0E7A 		vstr.32	s15, [r4, #56]
 4793              		.loc 4 623 5 is_stmt 1 view .LVU1312
 4794              		.loc 4 623 8 is_stmt 0 view .LVU1313
 4795 0080 13D0     		beq	.L361
 4796              		.loc 4 624 7 is_stmt 1 view .LVU1314
 4797              	.LBB185:
 4798              	.LBB186:
 4799              		.loc 2 37 73 is_stmt 0 view .LVU1315
 4800              		.syntax unified
 4801              	@ 37 "vna_math.h" 1
 4802 0082 F1EEE77A 		vsqrt.f32 s15, s15
 4803              	@ 0 "" 2
 4804              		.thumb
 4805              		.syntax unified
 4806              	.LBE186:
 4807              	.LBE185:
 4808              		.loc 4 624 56 view .LVU1316
 4809 0086 37EE667A 		vsub.f32	s14, s14, s13
 4810              		.loc 4 625 56 view .LVU1317
 4811 008a 94ED096A 		vldr.32	s12, [r4, #36]
 4812 008e D4ED036A 		vldr.32	s13, [r4, #12]
 4813              		.loc 4 624 26 view .LVU1318
 4814 0092 84ED0F7A 		vstr.32	s14, [r4, #60]
 4815              		.loc 4 625 7 is_stmt 1 view .LVU1319
 4816              		.loc 4 625 56 is_stmt 0 view .LVU1320
 4817 0096 76EEC66A 		vsub.f32	s13, s13, s12
 4818              		.loc 4 626 28 discriminator 1 view .LVU1321
 4819 009a C4ED0E7A 		vstr.32	s15, [r4, #56]
ARM GAS  C:\msys64\tmp\ccGTf9yH.s 			page 87


 4820              		.loc 4 625 26 view .LVU1322
 4821 009e C4ED106A 		vstr.32	s13, [r4, #64]
 4822              		.loc 4 626 7 is_stmt 1 view .LVU1323
 4823              	.LBB188:
 4824              	.LBI185:
 4825              		.loc 2 37 54 view .LVU1324
 4826              	.LBB187:
 4827              		.loc 2 37 73 view .LVU1325
 4828              	.LVL473:
 4829              		.loc 2 37 122 view .LVU1326
 4830              		.loc 2 37 122 is_stmt 0 view .LVU1327
 4831              	.LBE187:
 4832              	.LBE188:
 4833              		.loc 4 627 7 is_stmt 1 view .LVU1328
 4834              		.loc 4 627 44 is_stmt 0 view .LVU1329
 4835 00a2 C7EE876A 		vdiv.f32	s13, s15, s14
 4836              		.loc 4 627 21 view .LVU1330
 4837 00a6 C4ED116A 		vstr.32	s13, [r4, #68]
 4838              	.L361:
 4839              		.loc 4 631 3 is_stmt 1 view .LVU1331
 4840 00aa 0623     		movs	r3, #6
 4841 00ac 0722     		movs	r2, #7
 4842 00ae 0221     		movs	r1, #2
 4843 00b0 0020     		movs	r0, #0
 4844              		.loc 4 633 1 is_stmt 0 view .LVU1332
 4845 00b2 02B0     		add	sp, sp, #8
 4846              		.cfi_def_cfa_offset 16
 4847              		@ sp needed
 4848 00b4 BDE87040 		pop	{r4, r5, r6, lr}
 4849              		.cfi_restore 14
 4850              		.cfi_restore 6
 4851              		.cfi_restore 5
 4852              		.cfi_restore 4
 4853              		.cfi_def_cfa_offset 0
 4854              		.loc 4 631 3 view .LVU1333
 4855 00b8 FFF7FEBF 		b	invalidate_rect_func
 4856              	.LVL474:
 4857              	.L368:
 4858              		.align	2
 4859              	.L367:
 4860 00bc 00000000 		.word	s21logmag
 4861 00c0 00000000 		.word	measure_memory
 4862 00c4 000048C2 		.word	-1035468800
 4863              		.cfi_endproc
 4864              	.LFE345:
 4865              		.size	prepare_filter, .-prepare_filter
 4866              		.section	.rodata.analysis_lcseries.str1.1,"aMS",%progbits,1
 4867              	.LC36:
 4868 0000 4C432D53 		.ascii	"LC-SERIES\000"
 4868      45524945 
 4868      5300
 4869              		.section	.text.analysis_lcseries,"ax",%progbits
 4870              		.align	1
 4871              		.syntax unified
 4872              		.thumb
 4873              		.thumb_func
 4874              		.type	analysis_lcseries, %function
ARM GAS  C:\msys64\tmp\ccGTf9yH.s 			page 88


 4875              	analysis_lcseries:
 4876              	.LFB338:
 4877              		.loc 4 433 37 is_stmt 1 view -0
 4878              		.cfi_startproc
 4879              		@ args = 0, pretend = 0, frame = 8
 4880              		@ frame_needed = 0, uses_anonymous_args = 0
 4881              		.loc 4 434 3 view .LVU1335
 4882              		.loc 4 433 37 is_stmt 0 view .LVU1336
 4883 0000 F0B5     		push	{r4, r5, r6, r7, lr}
 4884              		.cfi_def_cfa_offset 20
 4885              		.cfi_offset 4, -20
 4886              		.cfi_offset 5, -16
 4887              		.cfi_offset 6, -12
 4888              		.cfi_offset 7, -8
 4889              		.cfi_offset 14, -4
 4890 0002 2DED028B 		vpush.64	{d8}
 4891              		.cfi_def_cfa_offset 28
 4892              		.cfi_offset 80, -28
 4893              		.cfi_offset 81, -24
 4894              		.loc 4 435 23 view .LVU1337
 4895 0006 404C     		ldr	r4, .L382
 4896 0008 404B     		ldr	r3, .L382+4
 4897              		.loc 4 437 17 view .LVU1338
 4898 000a 4149     		ldr	r1, .L382+8
 4899              		.loc 4 433 37 view .LVU1339
 4900 000c 83B0     		sub	sp, sp, #12
 4901              		.cfi_def_cfa_offset 40
 4902              		.loc 4 434 12 view .LVU1340
 4903 000e 0027     		movs	r7, #0
 4904              		.loc 4 437 17 view .LVU1341
 4905 0010 0122     		movs	r2, #1
 4906 0012 01A8     		add	r0, sp, #4
 4907              		.loc 4 434 12 view .LVU1342
 4908 0014 ADF80470 		strh	r7, [sp, #4]	@ movhi
 4909              		.loc 4 435 3 is_stmt 1 view .LVU1343
 4910              		.loc 4 435 23 is_stmt 0 view .LVU1344
 4911 0018 2360     		str	r3, [r4]
 4912              		.loc 4 437 3 is_stmt 1 view .LVU1345
 4913              		.loc 4 437 17 is_stmt 0 view .LVU1346
 4914 001a FFF7FEFF 		bl	search_peak_value.constprop.0
 4915              	.LVL475:
 4916              		.loc 4 438 3 is_stmt 1 view .LVU1347
 4917              		.loc 4 438 10 is_stmt 0 view .LVU1348
 4918 001e BDF80450 		ldrh	r5, [sp, #4]
 4919              		.loc 4 438 6 view .LVU1349
 4920 0022 002D     		cmp	r5, #0
 4921 0024 6CD0     		beq	.L369
 4922              		.loc 4 440 3 is_stmt 1 view .LVU1350
 4923              	.LVL476:
 4924              	.LBB189:
 4925              	.LBI189:
 4926              		.loc 2 37 54 view .LVU1351
 4927              	.LBB190:
 4928              		.loc 2 37 73 view .LVU1352
 4929              		.syntax unified
 4930              	@ 37 "vna_math.h" 1
 4931 0026 B1EEC07A 		vsqrt.f32 s14, s0
ARM GAS  C:\msys64\tmp\ccGTf9yH.s 			page 89


 4932              	@ 0 "" 2
 4933              	.LVL477:
 4934              		.loc 2 37 122 view .LVU1353
 4935              		.loc 2 37 122 is_stmt 0 view .LVU1354
 4936              		.thumb
 4937              		.syntax unified
 4938              	.LBE190:
 4939              	.LBE189:
 4940              		.loc 4 440 50 discriminator 1 view .LVU1355
 4941 002a B7EE008A 		vmov.f32	s16, #1.0e+0
 4942 002e C8EE076A 		vdiv.f32	s13, s16, s14
 4943              		.loc 4 440 30 view .LVU1356
 4944 0032 384E     		ldr	r6, .L382+12
 4945              		.loc 4 440 42 discriminator 1 view .LVU1357
 4946 0034 D6ED1A7A 		vldr.32	s15, [r6, #104]
 4947              		.loc 4 440 69 discriminator 1 view .LVU1358
 4948 0038 36EEC87A 		vsub.f32	s14, s13, s16
 4949              		.loc 4 440 42 discriminator 1 view .LVU1359
 4950 003c 77EEA77A 		vadd.f32	s15, s15, s15
 4951 0040 67EE877A 		vmul.f32	s15, s15, s14
 4952              		.loc 4 441 5 view .LVU1360
 4953 0044 F5EEC07A 		vcmpe.f32	s15, #0
 4954 0048 F1EE10FA 		vmrs	APSR_nzcv, FPSCR
 4955              		.loc 4 440 18 discriminator 1 view .LVU1361
 4956 004c C4ED077A 		vstr.32	s15, [r4, #28]
 4957              		.loc 4 441 3 is_stmt 1 view .LVU1362
 4958              		.loc 4 441 5 is_stmt 0 view .LVU1363
 4959 0050 56D4     		bmi	.L369
 4960              		.loc 4 442 3 is_stmt 1 view .LVU1364
 4961 0052 2946     		mov	r1, r5
 4962 0054 3846     		mov	r0, r7
 4963 0056 FFF7FEFF 		bl	set_marker_index
 4964              	.LVL478:
 4965              		.loc 4 444 3 view .LVU1365
 4966              		.loc 4 446 3 view .LVU1366
 4967              		.loc 4 447 14 is_stmt 0 view .LVU1367
 4968 005a B0EE480A 		vmov.f32	s0, s16
 4969 005e 2E49     		ldr	r1, .L382+16
 4970              		.loc 4 446 6 view .LVU1368
 4971 0060 ADF80650 		strh	r5, [sp, #6]	@ movhi
 4972              		.loc 4 447 3 is_stmt 1 view .LVU1369
 4973              		.loc 4 447 14 is_stmt 0 view .LVU1370
 4974 0064 0123     		movs	r3, #1
 4975 0066 4FF0FF32 		mov	r2, #-1
 4976 006a 0DF10600 		add	r0, sp, #6
 4977 006e FFF7FEFF 		bl	measure_search_value
 4978              	.LVL479:
 4979              		.loc 4 448 6 view .LVU1371
 4980 0072 B5EE400A 		vcmp.f32	s0, #0
 4981 0076 F1EE10FA 		vmrs	APSR_nzcv, FPSCR
 4982              		.loc 4 447 14 view .LVU1372
 4983 007a B0EE408A 		vmov.f32	s16, s0
 4984              	.LVL480:
 4985              		.loc 4 448 3 is_stmt 1 view .LVU1373
 4986              		.loc 4 448 6 is_stmt 0 view .LVU1374
 4987 007e 3FD0     		beq	.L369
 4988              		.loc 4 451 3 is_stmt 1 view .LVU1375
ARM GAS  C:\msys64\tmp\ccGTf9yH.s 			page 90


 4989              		.loc 4 452 14 is_stmt 0 view .LVU1376
 4990 0080 2549     		ldr	r1, .L382+16
 4991              		.loc 4 451 6 view .LVU1377
 4992 0082 ADF80650 		strh	r5, [sp, #6]	@ movhi
 4993              		.loc 4 452 3 is_stmt 1 view .LVU1378
 4994              		.loc 4 452 14 is_stmt 0 view .LVU1379
 4995 0086 0223     		movs	r3, #2
 4996 0088 0122     		movs	r2, #1
 4997 008a BFEE000A 		vmov.f32	s0, #-1.0e+0
 4998              	.LVL481:
 4999              		.loc 4 452 14 view .LVU1380
 5000 008e 0DF10600 		add	r0, sp, #6
 5001 0092 FFF7FEFF 		bl	measure_search_value
 5002              	.LVL482:
 5003              		.loc 4 453 3 is_stmt 1 view .LVU1381
 5004              		.loc 4 453 6 is_stmt 0 view .LVU1382
 5005 0096 B5EE400A 		vcmp.f32	s0, #0
 5006 009a F1EE10FA 		vmrs	APSR_nzcv, FPSCR
 5007 009e 2FD0     		beq	.L369
 5008              		.loc 4 456 3 is_stmt 1 view .LVU1383
 5009              		.loc 4 459 54 is_stmt 0 view .LVU1384
 5010 00a0 94ED076A 		vldr.32	s12, [r4, #28]
 5011              		.loc 4 459 9 view .LVU1385
 5012 00a4 D6ED1A6A 		vldr.32	s13, [r6, #104]
 5013 00a8 F0EE007A 		vmov.f32	s15, #2.0e+0
 5014 00ac F0EE465A 		vmov.f32	s11, s12
 5015 00b0 E6EEA75A 		vfma.f32	s11, s13, s15
 5016              		.loc 4 462 25 view .LVU1386
 5017 00b4 DFED196A 		vldr.32	s13, .L382+20
 5018              		.loc 4 456 9 view .LVU1387
 5019 00b8 30EE487A 		vsub.f32	s14, s0, s16
 5020              	.LVL483:
 5021              		.loc 4 457 3 is_stmt 1 view .LVU1388
 5022              	.LBB191:
 5023              	.LBI191:
 5024              		.loc 2 37 54 view .LVU1389
 5025              	.LBB192:
 5026              		.loc 2 37 73 view .LVU1390
 5027              	.LBE192:
 5028              	.LBE191:
 5029              		.loc 4 462 25 is_stmt 0 view .LVU1391
 5030 00bc 25EEA65A 		vmul.f32	s10, s11, s13
 5031              		.loc 4 457 17 view .LVU1392
 5032 00c0 28EE000A 		vmul.f32	s0, s16, s0
 5033              	.LVL484:
 5034              	.LBB194:
 5035              	.LBB193:
 5036              		.loc 2 37 73 view .LVU1393
 5037              		.syntax unified
 5038              	@ 37 "vna_math.h" 1
 5039 00c4 B1EEC00A 		vsqrt.f32 s0, s0
 5040              	@ 0 "" 2
 5041              	.LVL485:
 5042              		.loc 2 37 122 is_stmt 1 view .LVU1394
 5043              		.loc 2 37 122 is_stmt 0 view .LVU1395
 5044              		.thumb
 5045              		.syntax unified
ARM GAS  C:\msys64\tmp\ccGTf9yH.s 			page 91


 5046              	.LBE193:
 5047              	.LBE194:
 5048              		.loc 4 459 3 is_stmt 1 view .LVU1396
 5049              		.loc 4 461 3 view .LVU1397
 5050              		.loc 4 461 21 is_stmt 0 view .LVU1398
 5051 00c8 FCEEC07A 		vcvt.u32.f32	s15, s0
 5052 00cc C4ED017A 		vstr.32	s15, [r4, #4]	@ int
 5053              		.loc 4 462 3 is_stmt 1 view .LVU1399
 5054              		.loc 4 462 25 is_stmt 0 view .LVU1400
 5055 00d0 C5EE077A 		vdiv.f32	s15, s10, s14
 5056              		.loc 4 463 23 view .LVU1401
 5057 00d4 27EE267A 		vmul.f32	s14, s14, s13
 5058              	.LVL486:
 5059              		.loc 4 463 58 view .LVU1402
 5060 00d8 60EE006A 		vmul.f32	s13, s0, s0
 5061              		.loc 4 462 18 view .LVU1403
 5062 00dc C4ED047A 		vstr.32	s15, [r4, #16]
 5063              		.loc 4 463 3 is_stmt 1 view .LVU1404
 5064              		.loc 4 463 58 is_stmt 0 view .LVU1405
 5065 00e0 66EEA56A 		vmul.f32	s13, s13, s11
 5066              		.loc 4 463 23 view .LVU1406
 5067 00e4 C7EE265A 		vdiv.f32	s11, s14, s13
 5068              	.LVL487:
 5069              		.loc 4 465 44 view .LVU1407
 5070 00e8 9FED0D7A 		vldr.32	s14, .L382+24
 5071              		.loc 4 463 18 view .LVU1408
 5072 00ec C4ED055A 		vstr.32	s11, [r4, #20]
 5073              		.loc 4 465 3 is_stmt 1 view .LVU1409
 5074              		.loc 4 465 44 is_stmt 0 view .LVU1410
 5075 00f0 67EE877A 		vmul.f32	s15, s15, s14
 5076 00f4 67EE807A 		vmul.f32	s15, s15, s0
 5077              		.loc 4 465 61 view .LVU1411
 5078 00f8 87EE867A 		vdiv.f32	s14, s15, s12
 5079              		.loc 4 465 18 view .LVU1412
 5080 00fc 84ED087A 		vstr.32	s14, [r4, #32]
 5081              	.LVL488:
 5082              	.L369:
 5083              		.loc 4 468 1 view .LVU1413
 5084 0100 03B0     		add	sp, sp, #12
 5085              		.cfi_def_cfa_offset 28
 5086              		@ sp needed
 5087 0102 BDEC028B 		vldm	sp!, {d8}
 5088              		.cfi_restore 80
 5089              		.cfi_restore 81
 5090              		.cfi_def_cfa_offset 20
 5091 0106 F0BD     		pop	{r4, r5, r6, r7, pc}
 5092              	.L383:
 5093              		.align	2
 5094              	.L382:
 5095 0108 00000000 		.word	measure_memory
 5096 010c 00000000 		.word	.LC36
 5097 0110 00000000 		.word	s21pow2
 5098 0114 00000000 		.word	config
 5099 0118 00000000 		.word	s21tan
 5100 011c 83F9223E 		.word	1042479491
 5101 0120 DB0FC940 		.word	1086918619
 5102              		.cfi_endproc
ARM GAS  C:\msys64\tmp\ccGTf9yH.s 			page 92


 5103              	.LFE338:
 5104              		.size	analysis_lcseries, .-analysis_lcseries
 5105              		.section	.text.cellPut,"ax",%progbits
 5106              		.align	1
 5107              		.p2align 4,,15
 5108              		.syntax unified
 5109              		.thumb
 5110              		.thumb_func
 5111              		.type	cellPut, %function
 5112              	cellPut:
 5113              	.LVL489:
 5114              	.LFB252:
 5115              		.loc 1 484 1 is_stmt 1 view -0
 5116              		.cfi_startproc
 5117              		@ args = 0, pretend = 0, frame = 32
 5118              		@ frame_needed = 0, uses_anonymous_args = 0
 5119              		.loc 1 485 3 view .LVU1415
 5120              		.loc 1 486 3 view .LVU1416
 5121              		.loc 1 484 1 is_stmt 0 view .LVU1417
 5122 0000 2DE9F04F 		push	{r4, r5, r6, r7, r8, r9, r10, fp, lr}
 5123              		.cfi_def_cfa_offset 36
 5124              		.cfi_offset 4, -36
 5125              		.cfi_offset 5, -32
 5126              		.cfi_offset 6, -28
 5127              		.cfi_offset 7, -24
 5128              		.cfi_offset 8, -20
 5129              		.cfi_offset 9, -16
 5130              		.cfi_offset 10, -12
 5131              		.cfi_offset 11, -8
 5132              		.cfi_offset 14, -4
 5133              		.loc 1 486 9 view .LVU1418
 5134 0004 B0F90460 		ldrsh	r6, [r0, #4]
 5135              		.loc 1 486 6 view .LVU1419
 5136 0008 1F2E     		cmp	r6, #31
 5137              		.loc 1 484 1 view .LVU1420
 5138 000a 8BB0     		sub	sp, sp, #44
 5139              		.cfi_def_cfa_offset 80
 5140              		.loc 1 486 6 view .LVU1421
 5141 000c 05DC     		bgt	.L385
 5142              		.loc 1 486 30 discriminator 1 view .LVU1422
 5143 000e B0F90680 		ldrsh	r8, [r0, #6]
 5144              		.loc 1 486 25 discriminator 1 view .LVU1423
 5145 0012 B8F11F0F 		cmp	r8, #31
 5146 0016 0446     		mov	r4, r0
 5147 0018 03DD     		ble	.L392
 5148              	.L385:
 5149              		.loc 1 488 3 is_stmt 1 view .LVU1424
 5150              		.loc 1 489 1 is_stmt 0 view .LVU1425
 5151 001a 0020     		movs	r0, #0
 5152              	.LVL490:
 5153              		.loc 1 489 1 view .LVU1426
 5154 001c 0BB0     		add	sp, sp, #44
 5155              		.cfi_remember_state
 5156              		.cfi_def_cfa_offset 36
 5157              		@ sp needed
 5158 001e BDE8F08F 		pop	{r4, r5, r6, r7, r8, r9, r10, fp, pc}
 5159              	.LVL491:
ARM GAS  C:\msys64\tmp\ccGTf9yH.s 			page 93


 5160              	.L392:
 5161              		.cfi_restore_state
 5162              		.loc 1 487 5 is_stmt 1 view .LVU1427
 5163              	.LBB199:
 5164              	.LBI199:
 5165              		.loc 1 444 13 view .LVU1428
 5166              	.LBB200:
 5167              		.loc 1 446 3 view .LVU1429
 5168              		.loc 1 446 16 is_stmt 0 view .LVU1430
 5169 0022 1639     		subs	r1, r1, #22
 5170              	.LVL492:
 5171              		.loc 1 446 16 view .LVU1431
 5172 0024 01EB8103 		add	r3, r1, r1, lsl #2
 5173 0028 314D     		ldr	r5, .L393
 5174 002a 01EB4301 		add	r1, r1, r3, lsl #1
 5175              	.LVL493:
 5176              		.loc 1 446 16 view .LVU1432
 5177 002e 15F80190 		ldrb	r9, [r5, r1]	@ zero_extendqisi2
 5178 0032 09F00709 		and	r9, r9, #7
 5179              		.loc 1 446 12 view .LVU1433
 5180 0036 C9F10807 		rsb	r7, r9, #8
 5181 003a BFB2     		uxth	r7, r7
 5182              	.LVL494:
 5183              		.loc 1 448 3 is_stmt 1 view .LVU1434
 5184              	.LBB201:
 5185              	.LBB202:
 5186              		.loc 1 404 6 is_stmt 0 view .LVU1435
 5187 003c FE42     		cmn	r6, r7
 5188              	.LBE202:
 5189              	.LBE201:
 5190              		.loc 1 448 3 view .LVU1436
 5191 003e 0D44     		add	r5, r5, r1
 5192              	.LVL495:
 5193              	.LBB205:
 5194              	.LBI201:
 5195              		.loc 1 401 13 is_stmt 1 view .LVU1437
 5196              	.LBB203:
 5197              		.loc 1 403 3 view .LVU1438
 5198              		.loc 1 404 3 view .LVU1439
 5199              		.loc 1 404 6 is_stmt 0 view .LVU1440
 5200 0040 47D4     		bmi	.L388
 5201              		.loc 1 404 17 discriminator 1 view .LVU1441
 5202 0042 18F10B0F 		cmn	r8, #11
 5203 0046 44DB     		blt	.L388
 5204              		.loc 1 407 3 is_stmt 1 view .LVU1442
 5205              	.LVL496:
 5206              		.loc 1 408 3 view .LVU1443
 5207              		.loc 1 408 10 is_stmt 0 view .LVU1444
 5208 0048 0023     		movs	r3, #0
 5209              		.loc 1 414 23 view .LVU1445
 5210 004a 9B46     		mov	fp, r3
 5211              		.loc 1 408 10 view .LVU1446
 5212 004c 0293     		str	r3, [sp, #8]
 5213              		.loc 1 409 3 is_stmt 1 view .LVU1447
 5214              		.loc 1 411 3 view .LVU1448
 5215              	.LVL497:
 5216              		.loc 1 411 17 discriminator 1 view .LVU1449
ARM GAS  C:\msys64\tmp\ccGTf9yH.s 			page 94


 5217              		.loc 1 407 35 is_stmt 0 view .LVU1450
 5218 004e 4FF6FF71 		movw	r1, #65535
 5219              		.loc 1 407 42 view .LVU1451
 5220 0052 C7F11003 		rsb	r3, r7, #16
 5221              		.loc 1 407 35 view .LVU1452
 5222 0056 9940     		lsls	r1, r1, r3
 5223              		.loc 1 414 23 view .LVU1453
 5224 0058 09B2     		sxth	r1, r1
 5225 005a 05F1FF3E 		add	lr, r5, #-1
 5226 005e 02A8     		add	r0, sp, #8
 5227              	.LVL498:
 5228              		.loc 1 414 23 view .LVU1454
 5229 0060 05F10A0A 		add	r10, r5, #10
 5230 0064 5B46     		mov	r3, fp
 5231              	.LVL499:
 5232              	.L389:
 5233              		.loc 1 414 5 is_stmt 1 view .LVU1455
 5234 0066 9C46     		mov	ip, r3
 5235              		.loc 1 414 23 is_stmt 0 view .LVU1456
 5236 0068 1EF8013F 		ldrb	r3, [lr, #1]!	@ zero_extendqisi2
 5237              		.loc 1 414 7 view .LVU1457
 5238 006c 01EA0323 		and	r3, r1, r3, lsl #8
 5239              	.LVL500:
 5240              		.loc 1 418 5 is_stmt 1 view .LVU1458
 5241 0070 5A46     		mov	r2, fp
 5242              		.loc 1 418 7 is_stmt 0 view .LVU1459
 5243 0072 4FEA930B 		lsr	fp, r3, #2
 5244 0076 4BEA530B 		orr	fp, fp, r3, lsr #1
 5245 007a 43EA0B03 		orr	r3, r3, fp
 5246              	.LVL501:
 5247              		.loc 1 419 5 is_stmt 1 view .LVU1460
 5248              		.loc 1 419 7 is_stmt 0 view .LVU1461
 5249 007e 5BBA     		rev16	r3, r3
 5250              	.LVL502:
 5251              		.loc 1 420 16 view .LVU1462
 5252 0080 8380     		strh	r3, [r0, #4]	@ movhi
 5253              		.loc 1 419 7 view .LVU1463
 5254 0082 9BB2     		uxth	r3, r3
 5255              	.LVL503:
 5256              		.loc 1 420 5 is_stmt 1 view .LVU1464
 5257              		.loc 1 421 5 view .LVU1465
 5258              		.loc 1 421 16 is_stmt 0 view .LVU1466
 5259 0084 43EA0C0B 		orr	fp, r3, ip
 5260              		.loc 1 422 12 view .LVU1467
 5261 0088 4BEA0202 		orr	r2, fp, r2
 5262              		.loc 1 411 17 discriminator 1 view .LVU1468
 5263 008c F245     		cmp	r10, lr
 5264              		.loc 1 421 16 view .LVU1469
 5265 008e A0F802B0 		strh	fp, [r0, #2]	@ movhi
 5266              		.loc 1 422 5 is_stmt 1 view .LVU1470
 5267              		.loc 1 422 12 is_stmt 0 view .LVU1471
 5268 0092 20F8022B 		strh	r2, [r0], #2	@ movhi
 5269              	.LVL504:
 5270              		.loc 1 411 23 is_stmt 1 discriminator 3 view .LVU1472
 5271              		.loc 1 411 17 discriminator 1 view .LVU1473
 5272 0096 E6D1     		bne	.L389
 5273              		.loc 1 425 3 view .LVU1474
ARM GAS  C:\msys64\tmp\ccGTf9yH.s 			page 95


 5274              		.loc 1 425 11 is_stmt 0 view .LVU1475
 5275 0098 DFF858A0 		ldr	r10, .L393+4
 5276              		.loc 1 426 3 view .LVU1476
 5277 009c 1A20     		movs	r0, #26
 5278              	.LVL505:
 5279              		.loc 1 425 11 view .LVU1477
 5280 009e BAF800B0 		ldrh	fp, [r10]
 5281              	.LVL506:
 5282              		.loc 1 426 3 is_stmt 1 view .LVU1478
 5283 00a2 FFF7FEFF 		bl	lcd_set_foreground
 5284              	.LVL507:
 5285              		.loc 1 427 3 view .LVU1479
 5286              		.loc 1 428 3 view .LVU1480
 5287              		.loc 1 429 3 view .LVU1481
 5288              		.loc 1 427 5 is_stmt 0 view .LVU1482
 5289 00a6 C9F10A02 		rsb	r2, r9, #10
 5290              		.loc 1 429 3 view .LVU1483
 5291 00aa 92B2     		uxth	r2, r2
 5292 00ac 02AB     		add	r3, sp, #8
 5293              		.loc 1 429 29 view .LVU1484
 5294 00ae 08F1FF31 		add	r1, r8, #-1
 5295              		.loc 1 429 22 view .LVU1485
 5296 00b2 701E     		subs	r0, r6, #1
 5297              		.loc 1 429 3 view .LVU1486
 5298 00b4 092A     		cmp	r2, #9
 5299 00b6 0093     		str	r3, [sp]
 5300 00b8 38BF     		it	cc
 5301 00ba 0922     		movcc	r2, #9
 5302 00bc 09B2     		sxth	r1, r1
 5303 00be 00B2     		sxth	r0, r0
 5304 00c0 0D23     		movs	r3, #13
 5305 00c2 FFF7FEFF 		bl	cell_blit_bitmap
 5306              	.LVL508:
 5307              		.loc 1 430 3 is_stmt 1 view .LVU1487
 5308              	.LBE203:
 5309              	.LBE205:
 5310              		.loc 1 451 3 is_stmt 0 view .LVU1488
 5311 00c6 B4F90460 		ldrsh	r6, [r4, #4]
 5312              	.LVL509:
 5313              		.loc 1 451 3 view .LVU1489
 5314 00ca B4F90680 		ldrsh	r8, [r4, #6]
 5315              	.LVL510:
 5316              	.LBB206:
 5317              	.LBB204:
 5318              		.loc 1 430 20 view .LVU1490
 5319 00ce AAF800B0 		strh	fp, [r10]	@ movhi
 5320              	.LVL511:
 5321              	.L388:
 5322              		.loc 1 430 20 view .LVU1491
 5323              	.LBE204:
 5324              	.LBE206:
 5325              		.loc 1 451 3 is_stmt 1 view .LVU1492
 5326 00d2 3046     		mov	r0, r6
 5327 00d4 3A46     		mov	r2, r7
 5328 00d6 0095     		str	r5, [sp]
 5329 00d8 0B23     		movs	r3, #11
 5330 00da 4146     		mov	r1, r8
ARM GAS  C:\msys64\tmp\ccGTf9yH.s 			page 96


 5331 00dc FFF7FEFF 		bl	cell_blit_bitmap
 5332              	.LVL512:
 5333              		.loc 1 455 3 view .LVU1493
 5334              		.loc 1 455 9 is_stmt 0 view .LVU1494
 5335 00e0 A388     		ldrh	r3, [r4, #4]
 5336              	.LBE200:
 5337              	.LBE199:
 5338              		.loc 1 489 1 view .LVU1495
 5339 00e2 0020     		movs	r0, #0
 5340              	.LBB208:
 5341              	.LBB207:
 5342              		.loc 1 455 9 view .LVU1496
 5343 00e4 1F44     		add	r7, r7, r3
 5344              	.LVL513:
 5345              		.loc 1 455 9 view .LVU1497
 5346 00e6 A780     		strh	r7, [r4, #4]	@ movhi
 5347              	.LVL514:
 5348              		.loc 1 455 9 view .LVU1498
 5349              	.LBE207:
 5350              	.LBE208:
 5351              		.loc 1 488 3 is_stmt 1 view .LVU1499
 5352              		.loc 1 489 1 is_stmt 0 view .LVU1500
 5353 00e8 0BB0     		add	sp, sp, #44
 5354              		.cfi_def_cfa_offset 36
 5355              		@ sp needed
 5356 00ea BDE8F08F 		pop	{r4, r5, r6, r7, r8, r9, r10, fp, pc}
 5357              	.LVL515:
 5358              	.L394:
 5359              		.loc 1 489 1 view .LVU1501
 5360 00ee 00BF     		.align	2
 5361              	.L393:
 5362 00f0 00000000 		.word	x7x11b_bits
 5363 00f4 00000000 		.word	foreground_color
 5364              		.cfi_endproc
 5365              	.LFE252:
 5366              		.size	cellPut, .-cellPut
 5367              		.section	.text.conductance,"ax",%progbits
 5368              		.align	1
 5369              		.p2align 4,,15
 5370              		.syntax unified
 5371              		.thumb
 5372              		.thumb_func
 5373              		.type	conductance, %function
 5374              	conductance:
 5375              	.LVL516:
 5376              	.LFB279:
 5377              		.loc 1 762 1 is_stmt 1 view -0
 5378              		.cfi_startproc
 5379              		@ args = 0, pretend = 0, frame = 0
 5380              		@ frame_needed = 0, uses_anonymous_args = 0
 5381              		@ link register save eliminated.
 5382              		.loc 1 763 3 view .LVU1503
 5383              		.loc 1 764 3 view .LVU1504
 5384              		.loc 1 764 10 is_stmt 0 view .LVU1505
 5385 0000 D1ED007A 		vldr.32	s15, [r1]
 5386 0004 91ED017A 		vldr.32	s14, [r1, #4]
 5387 0008 F7EE006A 		vmov.f32	s13, #1.0e+0
ARM GAS  C:\msys64\tmp\ccGTf9yH.s 			page 97


 5388 000c 77EEA67A 		vadd.f32	s15, s15, s13
 5389              	.LVL517:
 5390              	.LBB215:
 5391              	.LBI215:
 5392              		.loc 1 598 14 is_stmt 1 view .LVU1506
 5393              	.LBB216:
 5394              		.loc 1 598 55 view .LVU1507
 5395              	.LBB217:
 5396              	.LBI217:
 5397              		.loc 1 596 14 view .LVU1508
 5398              	.LBB218:
 5399              		.loc 1 596 42 view .LVU1509
 5400              		.loc 1 596 63 is_stmt 0 view .LVU1510
 5401 0010 27EE077A 		vmul.f32	s14, s14, s14
 5402              	.LVL518:
 5403              		.loc 1 596 63 view .LVU1511
 5404              	.LBE218:
 5405              	.LBE217:
 5406              		.loc 1 598 81 view .LVU1512
 5407 0014 DFED076A 		vldr.32	s13, .L396
 5408              	.LBB220:
 5409              	.LBB219:
 5410              		.loc 1 596 58 view .LVU1513
 5411 0018 A7EEA77A 		vfma.f32	s14, s15, s15
 5412              	.LVL519:
 5413              		.loc 1 596 58 view .LVU1514
 5414              	.LBE219:
 5415              	.LBE220:
 5416              	.LBB221:
 5417              	.LBI221:
 5418              		.loc 2 36 54 is_stmt 1 view .LVU1515
 5419              	.LBB222:
 5420              		.loc 2 36 73 view .LVU1516
 5421              	.LBE222:
 5422              	.LBE221:
 5423              		.loc 1 598 81 is_stmt 0 view .LVU1517
 5424 001c 67EEA67A 		vmul.f32	s15, s15, s13
 5425              	.LVL520:
 5426              		.loc 1 598 62 discriminator 1 view .LVU1518
 5427 0020 DFED056A 		vldr.32	s13, .L396+4
 5428              		.loc 1 598 86 discriminator 1 view .LVU1519
 5429 0024 87EE870A 		vdiv.f32	s0, s15, s14
 5430              		.loc 1 598 62 discriminator 1 view .LVU1520
 5431 0028 30EE660A 		vsub.f32	s0, s0, s13
 5432              	.LVL521:
 5433              	.LBB224:
 5434              	.LBB223:
 5435              		.loc 2 36 73 view .LVU1521
 5436              		.syntax unified
 5437              	@ 36 "vna_math.h" 1
 5438 002c B0EEC00A 		vabs.f32 s0, s0
 5439              	@ 0 "" 2
 5440              	.LVL522:
 5441              		.loc 2 36 121 is_stmt 1 view .LVU1522
 5442              		.loc 2 36 121 is_stmt 0 view .LVU1523
 5443              		.thumb
 5444              		.syntax unified
ARM GAS  C:\msys64\tmp\ccGTf9yH.s 			page 98


 5445              	.LBE223:
 5446              	.LBE224:
 5447              	.LBE216:
 5448              	.LBE215:
 5449              		.loc 1 765 1 view .LVU1524
 5450 0030 7047     		bx	lr
 5451              	.L397:
 5452 0032 00BF     		.align	2
 5453              	.L396:
 5454 0034 0AD7233D 		.word	1025758986
 5455 0038 0AD7A33C 		.word	1017370378
 5456              		.cfi_endproc
 5457              	.LFE279:
 5458              		.size	conductance, .-conductance
 5459              		.section	.text.parallel_r,"ax",%progbits
 5460              		.align	1
 5461              		.p2align 4,,15
 5462              		.syntax unified
 5463              		.thumb
 5464              		.thumb_func
 5465              		.type	parallel_r, %function
 5466              	parallel_r:
 5467              	.LVL523:
 5468              	.LFB281:
 5469              		.loc 1 779 1 is_stmt 1 view -0
 5470              		.cfi_startproc
 5471              		@ args = 0, pretend = 0, frame = 0
 5472              		@ frame_needed = 0, uses_anonymous_args = 0
 5473              		.loc 1 781 3 view .LVU1526
 5474              		.loc 1 779 1 is_stmt 0 view .LVU1527
 5475 0000 08B5     		push	{r3, lr}
 5476              		.cfi_def_cfa_offset 8
 5477              		.cfi_offset 3, -8
 5478              		.cfi_offset 14, -4
 5479              		.loc 1 781 17 view .LVU1528
 5480 0002 FFF7FEFF 		bl	conductance
 5481              	.LVL524:
 5482              		.loc 1 781 15 discriminator 1 view .LVU1529
 5483 0006 F7EE007A 		vmov.f32	s15, #1.0e+0
 5484              		.loc 1 789 1 view .LVU1530
 5485 000a 87EE800A 		vdiv.f32	s0, s15, s0
 5486 000e 08BD     		pop	{r3, pc}
 5487              		.cfi_endproc
 5488              	.LFE281:
 5489              		.size	parallel_r, .-parallel_r
 5490              		.section	.text.s21series_r,"ax",%progbits
 5491              		.align	1
 5492              		.p2align 4,,15
 5493              		.syntax unified
 5494              		.thumb
 5495              		.thumb_func
 5496              		.type	s21series_r, %function
 5497              	s21series_r:
 5498              	.LVL525:
 5499              	.LFB289:
 5500              		.loc 1 856 1 is_stmt 1 view -0
 5501              		.cfi_startproc
ARM GAS  C:\msys64\tmp\ccGTf9yH.s 			page 99


 5502              		@ args = 0, pretend = 0, frame = 0
 5503              		@ frame_needed = 0, uses_anonymous_args = 0
 5504              		@ link register save eliminated.
 5505              		.loc 1 857 3 view .LVU1532
 5506              		.loc 1 858 3 view .LVU1533
 5507              		.loc 1 858 10 is_stmt 0 view .LVU1534
 5508 0000 D1ED017A 		vldr.32	s15, [r1, #4]
 5509 0004 91ED007A 		vldr.32	s14, [r1]
 5510              	.LVL526:
 5511              	.LBB229:
 5512              	.LBI229:
 5513              		.loc 1 599 14 is_stmt 1 view .LVU1535
 5514              	.LBB230:
 5515              		.loc 1 599 55 view .LVU1536
 5516              	.LBB231:
 5517              	.LBI231:
 5518              		.loc 1 596 14 view .LVU1537
 5519              	.LBB232:
 5520              		.loc 1 596 42 view .LVU1538
 5521              	.LBE232:
 5522              	.LBE231:
 5523              		.loc 1 599 71 is_stmt 0 view .LVU1539
 5524 0008 DFED066A 		vldr.32	s13, .L401
 5525              	.LBB234:
 5526              	.LBB233:
 5527              		.loc 1 596 63 view .LVU1540
 5528 000c 67EEA77A 		vmul.f32	s15, s15, s15
 5529              	.LVL527:
 5530              		.loc 1 596 58 view .LVU1541
 5531 0010 E7EE077A 		vfma.f32	s15, s14, s14
 5532              	.LVL528:
 5533              		.loc 1 596 58 view .LVU1542
 5534              	.LBE233:
 5535              	.LBE234:
 5536              		.loc 1 599 71 view .LVU1543
 5537 0014 27EE267A 		vmul.f32	s14, s14, s13
 5538              		.loc 1 599 76 discriminator 1 view .LVU1544
 5539 0018 87EE270A 		vdiv.f32	s0, s14, s15
 5540              	.LBE230:
 5541              	.LBE229:
 5542              		.loc 1 859 1 view .LVU1545
 5543 001c 30EE660A 		vsub.f32	s0, s0, s13
 5544 0020 7047     		bx	lr
 5545              	.L402:
 5546 0022 00BF     		.align	2
 5547              	.L401:
 5548 0024 0000C842 		.word	1120403456
 5549              		.cfi_endproc
 5550              	.LFE289:
 5551              		.size	s21series_r, .-s21series_r
 5552              		.section	.text.susceptance,"ax",%progbits
 5553              		.align	1
 5554              		.p2align 4,,15
 5555              		.syntax unified
 5556              		.thumb
 5557              		.thumb_func
 5558              		.type	susceptance, %function
ARM GAS  C:\msys64\tmp\ccGTf9yH.s 			page 100


 5559              	susceptance:
 5560              	.LVL529:
 5561              	.LFB280:
 5562              		.loc 1 768 1 is_stmt 1 view -0
 5563              		.cfi_startproc
 5564              		@ args = 0, pretend = 0, frame = 0
 5565              		@ frame_needed = 0, uses_anonymous_args = 0
 5566              		@ link register save eliminated.
 5567              		.loc 1 769 3 view .LVU1547
 5568              		.loc 1 770 3 view .LVU1548
 5569              		.loc 1 770 10 is_stmt 0 view .LVU1549
 5570 0000 D1ED017A 		vldr.32	s15, [r1, #4]
 5571 0004 91ED007A 		vldr.32	s14, [r1]
 5572 0008 F7EE006A 		vmov.f32	s13, #1.0e+0
 5573 000c 37EE267A 		vadd.f32	s14, s14, s13
 5574              	.LVL530:
 5575              	.LBB239:
 5576              	.LBI239:
 5577              		.loc 1 600 14 is_stmt 1 view .LVU1550
 5578              	.LBB240:
 5579              		.loc 1 600 55 view .LVU1551
 5580              	.LBB241:
 5581              	.LBI241:
 5582              		.loc 1 596 14 view .LVU1552
 5583              	.LBB242:
 5584              		.loc 1 596 42 view .LVU1553
 5585              		.loc 1 596 63 is_stmt 0 view .LVU1554
 5586 0010 27EEA70A 		vmul.f32	s0, s15, s15
 5587              	.LBE242:
 5588              	.LBE241:
 5589              		.loc 1 600 72 view .LVU1555
 5590 0014 DFED046A 		vldr.32	s13, .L404
 5591              	.LBB244:
 5592              	.LBB243:
 5593              		.loc 1 596 58 view .LVU1556
 5594 0018 A7EE070A 		vfma.f32	s0, s14, s14
 5595              	.LVL531:
 5596              		.loc 1 596 58 view .LVU1557
 5597              	.LBE243:
 5598              	.LBE244:
 5599              		.loc 1 600 72 view .LVU1558
 5600 001c 67EEA67A 		vmul.f32	s15, s15, s13
 5601              	.LBE240:
 5602              	.LBE239:
 5603              		.loc 1 771 1 view .LVU1559
 5604 0020 87EE800A 		vdiv.f32	s0, s15, s0
 5605 0024 7047     		bx	lr
 5606              	.L405:
 5607 0026 00BF     		.align	2
 5608              	.L404:
 5609 0028 0AD723BD 		.word	-1121724662
 5610              		.cfi_endproc
 5611              	.LFE280:
 5612              		.size	susceptance, .-susceptance
 5613              		.section	.text.parallel_x,"ax",%progbits
 5614              		.align	1
 5615              		.p2align 4,,15
ARM GAS  C:\msys64\tmp\ccGTf9yH.s 			page 101


 5616              		.syntax unified
 5617              		.thumb
 5618              		.thumb_func
 5619              		.type	parallel_x, %function
 5620              	parallel_x:
 5621              	.LVL532:
 5622              	.LFB282:
 5623              		.loc 1 792 1 is_stmt 1 view -0
 5624              		.cfi_startproc
 5625              		@ args = 0, pretend = 0, frame = 0
 5626              		@ frame_needed = 0, uses_anonymous_args = 0
 5627              		.loc 1 794 3 view .LVU1561
 5628              		.loc 1 792 1 is_stmt 0 view .LVU1562
 5629 0000 08B5     		push	{r3, lr}
 5630              		.cfi_def_cfa_offset 8
 5631              		.cfi_offset 3, -8
 5632              		.cfi_offset 14, -4
 5633              		.loc 1 794 18 view .LVU1563
 5634 0002 FFF7FEFF 		bl	susceptance
 5635              	.LVL533:
 5636              		.loc 1 794 16 discriminator 1 view .LVU1564
 5637 0006 FFEE007A 		vmov.f32	s15, #-1.0e+0
 5638              		.loc 1 800 1 view .LVU1565
 5639 000a 87EE800A 		vdiv.f32	s0, s15, s0
 5640 000e 08BD     		pop	{r3, pc}
 5641              		.cfi_endproc
 5642              	.LFE282:
 5643              		.size	parallel_x, .-parallel_x
 5644              		.section	.text.parallel_l,"ax",%progbits
 5645              		.align	1
 5646              		.p2align 4,,15
 5647              		.syntax unified
 5648              		.thumb
 5649              		.thumb_func
 5650              		.type	parallel_l, %function
 5651              	parallel_l:
 5652              	.LVL534:
 5653              	.LFB284:
 5654              		.loc 1 816 1 is_stmt 1 view -0
 5655              		.cfi_startproc
 5656              		@ args = 0, pretend = 0, frame = 0
 5657              		@ frame_needed = 0, uses_anonymous_args = 0
 5658              		.loc 1 817 3 view .LVU1567
 5659              		.loc 1 816 1 is_stmt 0 view .LVU1568
 5660 0000 08B5     		push	{r3, lr}
 5661              		.cfi_def_cfa_offset 8
 5662              		.cfi_offset 3, -8
 5663              		.cfi_offset 14, -4
 5664 0002 2DED028B 		vpush.64	{d8}
 5665              		.cfi_def_cfa_offset 16
 5666              		.cfi_offset 80, -16
 5667              		.cfi_offset 81, -12
 5668              		.loc 1 817 20 view .LVU1569
 5669 0006 FFF7FEFF 		bl	parallel_x
 5670              	.LVL535:
 5671 000a B0EE408A 		vmov.f32	s16, s0
 5672              	.LVL536:
ARM GAS  C:\msys64\tmp\ccGTf9yH.s 			page 102


 5673              		.loc 1 818 3 is_stmt 1 view .LVU1570
 5674              		.loc 1 818 19 is_stmt 0 view .LVU1571
 5675 000e FFF7FEFF 		bl	get_w
 5676              	.LVL537:
 5677              		.loc 1 819 3 is_stmt 1 view .LVU1572
 5678              		.loc 1 820 1 is_stmt 0 view .LVU1573
 5679 0012 88EE000A 		vdiv.f32	s0, s16, s0
 5680              	.LVL538:
 5681              		.loc 1 820 1 view .LVU1574
 5682 0016 BDEC028B 		vldm	sp!, {d8}
 5683              		.cfi_restore 80
 5684              		.cfi_restore 81
 5685              		.cfi_def_cfa_offset 8
 5686              	.LVL539:
 5687              		.loc 1 820 1 view .LVU1575
 5688 001a 08BD     		pop	{r3, pc}
 5689              		.cfi_endproc
 5690              	.LFE284:
 5691              		.size	parallel_l, .-parallel_l
 5692              		.section	.text.parallel_c,"ax",%progbits
 5693              		.align	1
 5694              		.p2align 4,,15
 5695              		.syntax unified
 5696              		.thumb
 5697              		.thumb_func
 5698              		.type	parallel_c, %function
 5699              	parallel_c:
 5700              	.LVL540:
 5701              	.LFB283:
 5702              		.loc 1 809 1 is_stmt 1 view -0
 5703              		.cfi_startproc
 5704              		@ args = 0, pretend = 0, frame = 0
 5705              		@ frame_needed = 0, uses_anonymous_args = 0
 5706              		.loc 1 810 3 view .LVU1577
 5707              		.loc 1 809 1 is_stmt 0 view .LVU1578
 5708 0000 08B5     		push	{r3, lr}
 5709              		.cfi_def_cfa_offset 8
 5710              		.cfi_offset 3, -8
 5711              		.cfi_offset 14, -4
 5712 0002 2DED028B 		vpush.64	{d8}
 5713              		.cfi_def_cfa_offset 16
 5714              		.cfi_offset 80, -16
 5715              		.cfi_offset 81, -12
 5716              		.loc 1 810 20 view .LVU1579
 5717 0006 FFF7FEFF 		bl	susceptance
 5718              	.LVL541:
 5719 000a B0EE408A 		vmov.f32	s16, s0
 5720              	.LVL542:
 5721              		.loc 1 811 3 is_stmt 1 view .LVU1580
 5722              		.loc 1 811 19 is_stmt 0 view .LVU1581
 5723 000e FFF7FEFF 		bl	get_w
 5724              	.LVL543:
 5725              		.loc 1 812 3 is_stmt 1 view .LVU1582
 5726              		.loc 1 813 1 is_stmt 0 view .LVU1583
 5727 0012 88EE000A 		vdiv.f32	s0, s16, s0
 5728              	.LVL544:
 5729              		.loc 1 813 1 view .LVU1584
ARM GAS  C:\msys64\tmp\ccGTf9yH.s 			page 103


 5730 0016 BDEC028B 		vldm	sp!, {d8}
 5731              		.cfi_restore 80
 5732              		.cfi_restore 81
 5733              		.cfi_def_cfa_offset 8
 5734              	.LVL545:
 5735              		.loc 1 813 1 view .LVU1585
 5736 001a 08BD     		pop	{r3, pc}
 5737              		.cfi_endproc
 5738              	.LFE283:
 5739              		.size	parallel_c, .-parallel_c
 5740              		.section	.text.s21series_x,"ax",%progbits
 5741              		.align	1
 5742              		.p2align 4,,15
 5743              		.syntax unified
 5744              		.thumb
 5745              		.thumb_func
 5746              		.type	s21series_x, %function
 5747              	s21series_x:
 5748              	.LVL546:
 5749              	.LFB290:
 5750              		.loc 1 862 1 is_stmt 1 view -0
 5751              		.cfi_startproc
 5752              		@ args = 0, pretend = 0, frame = 0
 5753              		@ frame_needed = 0, uses_anonymous_args = 0
 5754              		@ link register save eliminated.
 5755              		.loc 1 863 3 view .LVU1587
 5756              		.loc 1 864 3 view .LVU1588
 5757              		.loc 1 864 10 is_stmt 0 view .LVU1589
 5758 0000 D1ED017A 		vldr.32	s15, [r1, #4]
 5759 0004 91ED007A 		vldr.32	s14, [r1]
 5760              	.LVL547:
 5761              	.LBB249:
 5762              	.LBI249:
 5763              		.loc 1 601 14 is_stmt 1 view .LVU1590
 5764              	.LBB250:
 5765              		.loc 1 601 55 view .LVU1591
 5766              	.LBB251:
 5767              	.LBI251:
 5768              		.loc 1 596 14 view .LVU1592
 5769              	.LBB252:
 5770              		.loc 1 596 42 view .LVU1593
 5771              	.LBE252:
 5772              	.LBE251:
 5773              		.loc 1 601 72 is_stmt 0 view .LVU1594
 5774 0008 DFED056A 		vldr.32	s13, .L413
 5775              	.LBB255:
 5776              	.LBB253:
 5777              		.loc 1 596 63 view .LVU1595
 5778 000c 27EEA70A 		vmul.f32	s0, s15, s15
 5779              	.LBE253:
 5780              	.LBE255:
 5781              		.loc 1 601 72 view .LVU1596
 5782 0010 67EEA67A 		vmul.f32	s15, s15, s13
 5783              	.LVL548:
 5784              	.LBB256:
 5785              	.LBB254:
 5786              		.loc 1 596 58 view .LVU1597
ARM GAS  C:\msys64\tmp\ccGTf9yH.s 			page 104


 5787 0014 A7EE070A 		vfma.f32	s0, s14, s14
 5788              	.LVL549:
 5789              		.loc 1 596 58 view .LVU1598
 5790              	.LBE254:
 5791              	.LBE256:
 5792              	.LBE250:
 5793              	.LBE249:
 5794              		.loc 1 865 1 view .LVU1599
 5795 0018 87EE800A 		vdiv.f32	s0, s15, s0
 5796 001c 7047     		bx	lr
 5797              	.L414:
 5798 001e 00BF     		.align	2
 5799              	.L413:
 5800 0020 0000C8C2 		.word	-1027080192
 5801              		.cfi_endproc
 5802              	.LFE290:
 5803              		.size	s21series_x, .-s21series_x
 5804              		.section	.text.logmag,"ax",%progbits
 5805              		.align	1
 5806              		.p2align 4,,15
 5807              		.syntax unified
 5808              		.thumb
 5809              		.thumb_func
 5810              		.type	logmag, %function
 5811              	logmag:
 5812              	.LVL550:
 5813              	.LFB266:
 5814              		.loc 1 616 1 is_stmt 1 view -0
 5815              		.cfi_startproc
 5816              		@ args = 0, pretend = 0, frame = 0
 5817              		@ frame_needed = 0, uses_anonymous_args = 0
 5818              		@ link register save eliminated.
 5819              		.loc 1 617 3 view .LVU1601
 5820              		.loc 1 620 3 view .LVU1602
 5821              		.loc 1 620 10 is_stmt 0 view .LVU1603
 5822 0000 91ED010A 		vldr.32	s0, [r1, #4]
 5823 0004 D1ED007A 		vldr.32	s15, [r1]
 5824              	.LVL551:
 5825              	.LBB259:
 5826              	.LBI259:
 5827              		.loc 1 596 14 is_stmt 1 view .LVU1604
 5828              	.LBB260:
 5829              		.loc 1 596 42 view .LVU1605
 5830              		.loc 1 596 63 is_stmt 0 view .LVU1606
 5831 0008 20EE000A 		vmul.f32	s0, s0, s0
 5832              	.LBE260:
 5833              	.LBE259:
 5834              		.loc 1 620 10 discriminator 1 view .LVU1607
 5835 000c A7EEA70A 		vfma.f32	s0, s15, s15
 5836 0010 FFF7FEBF 		b	vna_log10f_x_10
 5837              	.LVL552:
 5838              		.loc 1 620 10 discriminator 1 view .LVU1608
 5839              		.cfi_endproc
 5840              	.LFE266:
 5841              		.size	logmag, .-logmag
 5842              		.section	.text.s11loss,"ax",%progbits
 5843              		.align	1
ARM GAS  C:\msys64\tmp\ccGTf9yH.s 			page 105


 5844              		.syntax unified
 5845              		.thumb
 5846              		.thumb_func
 5847              		.type	s11loss, %function
 5848              	s11loss:
 5849              	.LVL553:
 5850              	.LFB347:
 5851              		.loc 4 654 34 is_stmt 1 view -0
 5852              		.cfi_startproc
 5853              		@ args = 0, pretend = 0, frame = 0
 5854              		@ frame_needed = 0, uses_anonymous_args = 0
 5855              		.loc 4 655 3 view .LVU1610
 5856              		.loc 4 655 18 is_stmt 0 view .LVU1611
 5857 0000 0549     		ldr	r1, .L418
 5858              		.loc 4 654 34 view .LVU1612
 5859 0002 08B5     		push	{r3, lr}
 5860              		.cfi_def_cfa_offset 8
 5861              		.cfi_offset 3, -8
 5862              		.cfi_offset 14, -4
 5863              		.loc 4 655 18 view .LVU1613
 5864 0004 01EBC001 		add	r1, r1, r0, lsl #3
 5865 0008 FFF7FEFF 		bl	logmag
 5866              	.LVL554:
 5867              		.loc 4 656 1 view .LVU1614
 5868 000c FEEE007A 		vmov.f32	s15, #-5.0e-1
 5869 0010 20EE270A 		vmul.f32	s0, s0, s15
 5870 0014 08BD     		pop	{r3, pc}
 5871              	.L419:
 5872 0016 00BF     		.align	2
 5873              	.L418:
 5874 0018 00000000 		.word	measured
 5875              		.cfi_endproc
 5876              	.LFE347:
 5877              		.size	s11loss, .-s11loss
 5878              		.section	.text.s21logmag,"ax",%progbits
 5879              		.align	1
 5880              		.syntax unified
 5881              		.thumb
 5882              		.thumb_func
 5883              		.type	s21logmag, %function
 5884              	s21logmag:
 5885              	.LVL555:
 5886              	.LFB336:
 5887              		.loc 4 395 36 is_stmt 1 view -0
 5888              		.cfi_startproc
 5889              		@ args = 0, pretend = 0, frame = 0
 5890              		@ frame_needed = 0, uses_anonymous_args = 0
 5891              		@ link register save eliminated.
 5892              		.loc 4 396 3 view .LVU1616
 5893              		.loc 4 396 10 is_stmt 0 view .LVU1617
 5894 0000 0349     		ldr	r1, .L421
 5895              		.loc 4 396 31 view .LVU1618
 5896 0002 00F29113 		addw	r3, r0, #401
 5897              		.loc 4 396 10 view .LVU1619
 5898 0006 01EBC301 		add	r1, r1, r3, lsl #3
 5899 000a FFF7FEBF 		b	logmag
 5900              	.LVL556:
ARM GAS  C:\msys64\tmp\ccGTf9yH.s 			page 106


 5901              	.L422:
 5902              		.loc 4 396 10 view .LVU1620
 5903 000e 00BF     		.align	2
 5904              	.L421:
 5905 0010 00000000 		.word	measured
 5906              		.cfi_endproc
 5907              	.LFE336:
 5908              		.size	s21logmag, .-s21logmag
 5909              		.section	.text.phase_z,"ax",%progbits
 5910              		.align	1
 5911              		.p2align 4,,15
 5912              		.syntax unified
 5913              		.thumb
