ARM GAS  C:\msys64\tmp\ccRrRxSP.s 			page 1


   1              		.cpu cortex-m4
   2              		.arch armv7e-m
   3              		.fpu fpv4-sp-d16
   4              		.eabi_attribute 27, 1
   5              		.eabi_attribute 28, 1
   6              		.eabi_attribute 23, 1
   7              		.eabi_attribute 24, 1
   8              		.eabi_attribute 25, 1
   9              		.eabi_attribute 26, 1
  10              		.eabi_attribute 30, 2
  11              		.eabi_attribute 34, 1
  12              		.eabi_attribute 18, 4
  13              		.file	"si5351.c"
  14              		.text
  15              	.Ltext0:
  16              		.cfi_sections	.debug_frame
  17              		.file 1 "si5351.c"
  18              		.section	.text.si5351_get_frequency,"ax",%progbits
  19              		.align	1
  20              		.p2align 4,,15
  21              		.global	si5351_get_frequency
  22              		.syntax unified
  23              		.thumb
  24              		.thumb_func
  25              		.type	si5351_get_frequency, %function
  26              	si5351_get_frequency:
  27              	.LFB241:
  28              		.loc 1 75 1 view -0
  29              		.cfi_startproc
  30              		@ args = 0, pretend = 0, frame = 0
  31              		@ frame_needed = 0, uses_anonymous_args = 0
  32              		@ link register save eliminated.
  33              		.loc 1 76 3 view .LVU1
  34              		.loc 1 76 10 is_stmt 0 view .LVU2
  35 0000 014B     		ldr	r3, .L3
  36              		.loc 1 77 1 view .LVU3
  37 0002 1868     		ldr	r0, [r3]
  38 0004 7047     		bx	lr
  39              	.L4:
  40 0006 00BF     		.align	2
  41              	.L3:
  42 0008 00000000 		.word	current_freq
  43              		.cfi_endproc
  44              	.LFE241:
  45              		.size	si5351_get_frequency, .-si5351_get_frequency
  46              		.section	.text.si5351_set_frequency_offset,"ax",%progbits
  47              		.align	1
  48              		.p2align 4,,15
  49              		.global	si5351_set_frequency_offset
  50              		.syntax unified
  51              		.thumb
  52              		.thumb_func
  53              		.type	si5351_set_frequency_offset, %function
  54              	si5351_set_frequency_offset:
  55              	.LVL0:
  56              	.LFB242:
  57              		.loc 1 81 1 is_stmt 1 view -0
ARM GAS  C:\msys64\tmp\ccRrRxSP.s 			page 2


  58              		.cfi_startproc
  59              		@ args = 0, pretend = 0, frame = 0
  60              		@ frame_needed = 0, uses_anonymous_args = 0
  61              		.loc 1 82 3 view .LVU5
  62              	.LBB12:
  63              	.LBI12:
  64              		.loc 1 40 13 view .LVU6
  65              	.LBB13:
  66              		.loc 1 41 3 view .LVU7
  67              	.LBE13:
  68              	.LBE12:
  69              		.loc 1 81 1 is_stmt 0 view .LVU8
  70 0000 10B5     		push	{r4, lr}
  71              		.cfi_def_cfa_offset 8
  72              		.cfi_offset 4, -8
  73              		.cfi_offset 14, -4
  74              	.LBB16:
  75              	.LBB14:
  76              		.loc 1 41 16 view .LVU9
  77 0002 0549     		ldr	r1, .L7
  78              		.loc 1 42 16 view .LVU10
  79 0004 054A     		ldr	r2, .L7+4
  80              		.loc 1 41 16 view .LVU11
  81 0006 0023     		movs	r3, #0
  82              	.LBE14:
  83              	.LBE16:
  84              		.loc 1 81 1 view .LVU12
  85 0008 0446     		mov	r4, r0
  86              	.LBB17:
  87              	.LBB15:
  88              		.loc 1 41 16 view .LVU13
  89 000a 0B70     		strb	r3, [r1]
  90              		.loc 1 42 3 is_stmt 1 view .LVU14
  91              		.loc 1 42 16 is_stmt 0 view .LVU15
  92 000c 1360     		str	r3, [r2]
  93              	.LBE15:
  94              	.LBE17:
  95              		.loc 1 83 3 is_stmt 1 view .LVU16
  96 000e FFF7FEFF 		bl	generate_DSP_Table
  97              	.LVL1:
  98              		.loc 1 84 3 view .LVU17
  99              		.loc 1 84 13 is_stmt 0 view .LVU18
 100 0012 034B     		ldr	r3, .L7+8
 101 0014 9C60     		str	r4, [r3, #8]
 102              		.loc 1 85 1 view .LVU19
 103 0016 10BD     		pop	{r4, pc}
 104              	.LVL2:
 105              	.L8:
 106              		.loc 1 85 1 view .LVU20
 107              		.align	2
 108              	.L7:
 109 0018 00000000 		.word	current_band
 110 001c 00000000 		.word	current_freq
 111 0020 00000000 		.word	config
 112              		.cfi_endproc
 113              	.LFE242:
 114              		.size	si5351_set_frequency_offset, .-si5351_set_frequency_offset
ARM GAS  C:\msys64\tmp\ccRrRxSP.s 			page 3


 115              		.section	.text.si5351_bulk_write,"ax",%progbits
 116              		.align	1
 117              		.p2align 4,,15
 118              		.global	si5351_bulk_write
 119              		.syntax unified
 120              		.thumb
 121              		.thumb_func
 122              		.type	si5351_bulk_write, %function
 123              	si5351_bulk_write:
 124              	.LVL3:
 125              	.LFB244:
 126              		.loc 1 94 1 is_stmt 1 view -0
 127              		.cfi_startproc
 128              		@ args = 0, pretend = 0, frame = 0
 129              		@ frame_needed = 0, uses_anonymous_args = 0
 130              		@ link register save eliminated.
 131              		.loc 1 95 3 view .LVU22
 132              		.loc 1 94 1 is_stmt 0 view .LVU23
 133 0000 0A46     		mov	r2, r1
 134              		.loc 1 95 3 view .LVU24
 135 0002 0146     		mov	r1, r0
 136              	.LVL4:
 137              		.loc 1 95 3 view .LVU25
 138 0004 6020     		movs	r0, #96
 139              	.LVL5:
 140              		.loc 1 95 3 view .LVU26
 141 0006 FFF7FEBF 		b	i2c_transfer
 142              	.LVL6:
 143              		.loc 1 95 3 view .LVU27
 144              		.cfi_endproc
 145              	.LFE244:
 146              		.size	si5351_bulk_write, .-si5351_bulk_write
 147 000a 00BF     		.section	.text.si5351_setupPLL,"ax",%progbits
 148              		.align	1
 149              		.p2align 4,,15
 150              		.syntax unified
 151              		.thumb
 152              		.thumb_func
 153              		.type	si5351_setupPLL, %function
 154              	si5351_setupPLL:
 155              	.LVL7:
 156              	.LFB251:
 157              		.loc 1 206 1 is_stmt 1 view -0
 158              		.cfi_startproc
 159              		@ args = 0, pretend = 0, frame = 16
 160              		@ frame_needed = 0, uses_anonymous_args = 0
 161              		.loc 1 217 3 view .LVU29
 162              		.loc 1 218 3 view .LVU30
 163              		.loc 1 206 1 is_stmt 0 view .LVU31
 164 0000 10B5     		push	{r4, lr}
 165              		.cfi_def_cfa_offset 8
 166              		.cfi_offset 4, -8
 167              		.cfi_offset 14, -4
 168              		.loc 1 217 8 view .LVU32
 169 0002 C901     		lsls	r1, r1, #7
 170              	.LVL8:
 171              		.loc 1 219 3 is_stmt 1 view .LVU33
ARM GAS  C:\msys64\tmp\ccRrRxSP.s 			page 4


 172              		.loc 1 222 6 is_stmt 0 view .LVU34
 173 0004 D201     		lsls	r2, r2, #7
 174              	.LVL9:
 175              		.loc 1 206 1 view .LVU35
 176 0006 84B0     		sub	sp, sp, #16
 177              		.cfi_def_cfa_offset 24
 178              		.loc 1 219 12 view .LVU36
 179 0008 A1F50071 		sub	r1, r1, #512
 180              	.LVL10:
 181              		.loc 1 220 3 is_stmt 1 view .LVU37
 182              		.loc 1 221 3 view .LVU38
 183              		.loc 1 222 3 view .LVU39
 184              		.loc 1 222 6 is_stmt 0 view .LVU40
 185 000c 31D0     		beq	.L12
 186              		.loc 1 223 5 is_stmt 1 view .LVU41
 187              		.loc 1 223 14 is_stmt 0 view .LVU42
 188 000e B2FBF3F4 		udiv	r4, r2, r3
 189              		.loc 1 235 28 view .LVU43
 190 0012 4FEA133C 		lsr	ip, r3, #12
 191              		.loc 1 224 8 view .LVU44
 192 0016 03FB1422 		mls	r2, r3, r4, r2
 193              	.LVL11:
 194              		.loc 1 235 53 view .LVU45
 195 001a C2F3034E 		ubfx	lr, r2, #16, #4
 196              		.loc 1 235 35 view .LVU46
 197 001e 0CF0F00C 		and	ip, ip, #240
 198              		.loc 1 223 7 view .LVU47
 199 0022 2144     		add	r1, r1, r4
 200              	.LVL12:
 201              		.loc 1 224 5 is_stmt 1 view .LVU48
 202              		.loc 1 225 5 view .LVU49
 203              		.loc 1 235 35 is_stmt 0 view .LVU50
 204 0024 4CEA0E0C 		orr	ip, ip, lr
 205              		.loc 1 230 10 view .LVU51
 206 0028 C3F30724 		ubfx	r4, r3, #8, #8
 207              		.loc 1 236 10 view .LVU52
 208 002c C2F3072E 		ubfx	lr, r2, #8, #8
 209              		.loc 1 231 10 view .LVU53
 210 0030 DBB2     		uxtb	r3, r3
 211              	.LVL13:
 212              		.loc 1 237 10 view .LVU54
 213 0032 D2B2     		uxtb	r2, r2
 214              	.LVL14:
 215              	.L11:
 216              		.loc 1 228 3 is_stmt 1 view .LVU55
 217              		.loc 1 229 3 view .LVU56
 218              		.loc 1 230 3 view .LVU57
 219              		.loc 1 231 3 view .LVU58
 220              		.loc 1 232 3 view .LVU59
 221              		.loc 1 233 3 view .LVU60
 222              		.loc 1 234 3 view .LVU61
 223              		.loc 1 235 3 view .LVU62
 224              		.loc 1 236 3 view .LVU63
 225              		.loc 1 237 10 is_stmt 0 view .LVU64
 226 0034 8DF80C20 		strb	r2, [sp, #12]
 227              		.loc 1 229 10 view .LVU65
 228 0038 0022     		movs	r2, #0
ARM GAS  C:\msys64\tmp\ccRrRxSP.s 			page 5


 229 003a 60F30702 		bfi	r2, r0, #0, #8
 230 003e 64F30F22 		bfi	r2, r4, #8, #8
 231 0042 63F31742 		bfi	r2, r3, #16, #8
 232              		.loc 1 232 27 view .LVU66
 233 0046 C1F30143 		ubfx	r3, r1, #16, #2
 234              		.loc 1 229 10 view .LVU67
 235 004a 63F31F62 		bfi	r2, r3, #24, #8
 236 004e 0192     		str	r2, [sp, #4]
 237 0050 0023     		movs	r3, #0
 238              		.loc 1 233 27 view .LVU68
 239 0052 0A0A     		lsrs	r2, r1, #8
 240              		.loc 1 229 10 view .LVU69
 241 0054 62F30703 		bfi	r3, r2, #0, #8
 242 0058 61F30F23 		bfi	r3, r1, #8, #8
 243 005c 6CF31743 		bfi	r3, ip, #16, #8
 244 0060 6EF31F63 		bfi	r3, lr, #24, #8
 245              		.loc 1 238 3 view .LVU70
 246 0064 0921     		movs	r1, #9
 247              	.LVL15:
 248              		.loc 1 238 3 view .LVU71
 249 0066 01A8     		add	r0, sp, #4
 250              	.LVL16:
 251              		.loc 1 229 10 view .LVU72
 252 0068 0293     		str	r3, [sp, #8]
 253              		.loc 1 237 3 is_stmt 1 view .LVU73
 254              		.loc 1 238 3 view .LVU74
 255 006a FFF7FEFF 		bl	si5351_bulk_write
 256              	.LVL17:
 257              		.loc 1 239 1 is_stmt 0 view .LVU75
 258 006e 04B0     		add	sp, sp, #16
 259              		.cfi_remember_state
 260              		.cfi_def_cfa_offset 8
 261              		@ sp needed
 262 0070 10BD     		pop	{r4, pc}
 263              	.LVL18:
 264              	.L12:
 265              		.cfi_restore_state
 266              		.loc 1 239 1 view .LVU76
 267 0072 9646     		mov	lr, r2
 268 0074 9446     		mov	ip, r2
 269 0076 0123     		movs	r3, #1
 270              	.LVL19:
 271              		.loc 1 239 1 view .LVU77
 272 0078 1446     		mov	r4, r2
 273 007a DBE7     		b	.L11
 274              		.cfi_endproc
 275              	.LFE251:
 276              		.size	si5351_setupPLL, .-si5351_setupPLL
 277              		.section	.text.si5351_setupPLL_freq,"ax",%progbits
 278              		.align	1
 279              		.p2align 4,,15
 280              		.syntax unified
 281              		.thumb
 282              		.thumb_func
 283              		.type	si5351_setupPLL_freq, %function
 284              	si5351_setupPLL_freq:
 285              	.LVL20:
ARM GAS  C:\msys64\tmp\ccRrRxSP.s 			page 6


 286              	.LFB255:
 287              		.loc 1 343 1 is_stmt 1 view -0
 288              		.cfi_startproc
 289              		@ args = 4, pretend = 0, frame = 0
 290              		@ frame_needed = 0, uses_anonymous_args = 0
 291              		.loc 1 344 3 view .LVU79
 292              		.loc 1 344 26 is_stmt 0 view .LVU80
 293 0000 1D49     		ldr	r1, .L20
 294              		.loc 1 343 1 view .LVU81
 295 0002 2DE9F041 		push	{r4, r5, r6, r7, r8, lr}
 296              		.cfi_def_cfa_offset 24
 297              		.cfi_offset 4, -24
 298              		.cfi_offset 5, -20
 299              		.cfi_offset 6, -16
 300              		.cfi_offset 7, -12
 301              		.cfi_offset 8, -8
 302              		.cfi_offset 14, -4
 303              		.loc 1 344 12 view .LVU82
 304 0006 496E     		ldr	r1, [r1, #100]
 305              		.loc 1 343 1 view .LVU83
 306 0008 069C     		ldr	r4, [sp, #24]
 307 000a 1646     		mov	r6, r2
 308              		.loc 1 344 12 view .LVU84
 309 000c 01FB04F4 		mul	r4, r1, r4
 310              	.LVL21:
 311              		.loc 1 345 3 is_stmt 1 view .LVU85
 312              		.loc 1 343 1 is_stmt 0 view .LVU86
 313 0010 0546     		mov	r5, r0
 314 0012 1946     		mov	r1, r3
 315 0014 2246     		mov	r2, r4
 316              	.LVL22:
 317              		.loc 1 343 1 view .LVU87
 318 0016 3046     		mov	r0, r6
 319              	.LVL23:
 320              		.loc 1 343 1 view .LVU88
 321 0018 0023     		movs	r3, #0
 322 001a FFF7FEFF 		bl	__aeabi_uldivmod
 323              	.LVL24:
 324              	.LBB22:
 325              	.LBB23:
 326              		.loc 1 305 6 view .LVU89
 327 001e B4F5801F 		cmp	r4, #1048576
 328 0022 0146     		mov	r1, r0
 329              	.LVL25:
 330              		.loc 1 305 6 view .LVU90
 331              	.LBE23:
 332              	.LBE22:
 333              		.loc 1 346 3 is_stmt 1 view .LVU91
 334              		.loc 1 347 3 view .LVU92
 335              		.loc 1 348 3 view .LVU93
 336              	.LBB31:
 337              	.LBI22:
 338              		.loc 1 300 13 view .LVU94
 339              	.LBB28:
 340              		.loc 1 304 3 view .LVU95
 341              		.loc 1 305 3 view .LVU96
 342              		.loc 1 305 6 is_stmt 0 view .LVU97
ARM GAS  C:\msys64\tmp\ccRrRxSP.s 			page 7


 343 0024 1AD3     		bcc	.L15
 344              	.LBB24:
 345              		.loc 1 307 14 view .LVU98
 346 0026 0027     		movs	r7, #0
 347              		.loc 1 307 30 view .LVU99
 348 0028 4FF0010C 		mov	ip, #1
 349              		.loc 1 307 22 view .LVU100
 350 002c E046     		mov	r8, ip
 351              		.loc 1 307 38 view .LVU101
 352 002e BE46     		mov	lr, r7
 353 0030 01E0     		b	.L16
 354              	.LVL26:
 355              	.L18:
 356              		.loc 1 307 38 view .LVU102
 357 0032 9C46     		mov	ip, r3
 358 0034 B646     		mov	lr, r6
 359              	.LVL27:
 360              	.L16:
 361              	.LBB25:
 362              		.loc 1 309 7 is_stmt 1 view .LVU103
 363              		.loc 1 309 16 is_stmt 0 view .LVU104
 364 0036 B2FBF4F3 		udiv	r3, r2, r4
 365              	.LVL28:
 366              		.loc 1 310 7 is_stmt 1 view .LVU105
 367              		.loc 1 311 16 is_stmt 0 view .LVU106
 368 003a 03FB0E86 		mla	r6, r3, lr, r8
 369              		.loc 1 312 10 view .LVU107
 370 003e B6F5801F 		cmp	r6, #1048576
 371 0042 2046     		mov	r0, r4
 372              		.loc 1 310 16 view .LVU108
 373 0044 04FB1324 		mls	r4, r4, r3, r2
 374              	.LVL29:
 375              		.loc 1 311 7 is_stmt 1 view .LVU109
 376              		.loc 1 312 7 view .LVU110
 377              		.loc 1 314 7 view .LVU111
 378              		.loc 1 312 10 is_stmt 0 view .LVU112
 379 0048 0ED2     		bcs	.L17
 380              		.loc 1 314 16 view .LVU113
 381 004a 03FB0C73 		mla	r3, r3, ip, r7
 382              	.LVL30:
 383              		.loc 1 315 7 is_stmt 1 view .LVU114
 384              		.loc 1 315 16 view .LVU115
 385              		.loc 1 315 25 view .LVU116
 386              		.loc 1 315 34 view .LVU117
 387              		.loc 1 316 7 view .LVU118
 388              		.loc 1 316 20 view .LVU119
 389              		.loc 1 316 20 is_stmt 0 view .LVU120
 390              	.LBE25:
 391              		.loc 1 308 18 is_stmt 1 view .LVU121
 392              		.loc 1 308 18 is_stmt 0 view .LVU122
 393 004e F046     		mov	r8, lr
 394 0050 6746     		mov	r7, ip
 395 0052 0246     		mov	r2, r0
 396              	.LVL31:
 397              		.loc 1 308 18 view .LVU123
 398 0054 002C     		cmp	r4, #0
 399 0056 ECD1     		bne	.L18
ARM GAS  C:\msys64\tmp\ccRrRxSP.s 			page 8


 400              		.loc 1 319 8 view .LVU124
 401 0058 3446     		mov	r4, r6
 402              	.LVL32:
 403              		.loc 1 318 8 view .LVU125
 404 005a 1A46     		mov	r2, r3
 405              	.LVL33:
 406              	.L15:
 407              		.loc 1 318 8 view .LVU126
 408              	.LBE24:
 409              	.LBE28:
 410              	.LBE31:
 411              		.loc 1 349 3 is_stmt 1 view .LVU127
 412 005c 2346     		mov	r3, r4
 413 005e E8B2     		uxtb	r0, r5
 414              		.loc 1 350 1 is_stmt 0 view .LVU128
 415 0060 BDE8F041 		pop	{r4, r5, r6, r7, r8, lr}
 416              		.cfi_remember_state
 417              		.cfi_restore 14
 418              		.cfi_restore 8
 419              		.cfi_restore 7
 420              		.cfi_restore 6
 421              		.cfi_restore 5
 422              		.cfi_restore 4
 423              		.cfi_def_cfa_offset 0
 424              	.LVL34:
 425              		.loc 1 349 3 view .LVU129
 426 0064 FFF7FEBF 		b	si5351_setupPLL
 427              	.LVL35:
 428              	.L17:
 429              		.cfi_restore_state
 430              	.LBB32:
 431              	.LBB29:
 432              	.LBB26:
 433              		.loc 1 319 8 view .LVU130
 434 0068 7446     		mov	r4, lr
 435              	.LVL36:
 436              		.loc 1 319 8 view .LVU131
 437              	.LBE26:
 438              	.LBE29:
 439              	.LBE32:
 440              		.loc 1 349 3 view .LVU132
 441 006a 2346     		mov	r3, r4
 442              	.LVL37:
 443              		.loc 1 349 3 view .LVU133
 444 006c E8B2     		uxtb	r0, r5
 445              	.LVL38:
 446              	.LBB33:
 447              	.LBB30:
 448              	.LBB27:
 449              		.loc 1 318 8 view .LVU134
 450 006e 6246     		mov	r2, ip
 451              	.LVL39:
 452              		.loc 1 318 8 view .LVU135
 453              	.LBE27:
 454              	.LBE30:
 455              	.LBE33:
 456              		.loc 1 349 3 is_stmt 1 view .LVU136
ARM GAS  C:\msys64\tmp\ccRrRxSP.s 			page 9


 457              		.loc 1 350 1 is_stmt 0 view .LVU137
 458 0070 BDE8F041 		pop	{r4, r5, r6, r7, r8, lr}
 459              		.cfi_restore 14
 460              		.cfi_restore 8
 461              		.cfi_restore 7
 462              		.cfi_restore 6
 463              		.cfi_restore 5
 464              		.cfi_restore 4
 465              		.cfi_def_cfa_offset 0
 466              	.LVL40:
 467              		.loc 1 349 3 view .LVU138
 468 0074 FFF7FEBF 		b	si5351_setupPLL
 469              	.LVL41:
 470              	.L21:
 471              		.loc 1 349 3 view .LVU139
 472              		.align	2
 473              	.L20:
 474 0078 00000000 		.word	config
 475              		.cfi_endproc
 476              	.LFE255:
 477              		.size	si5351_setupPLL_freq, .-si5351_setupPLL_freq
 478              		.section	.text.si5351_setupMultisynth,"ax",%progbits
 479              		.align	1
 480              		.p2align 4,,15
 481              		.syntax unified
 482              		.thumb
 483              		.thumb_func
 484              		.type	si5351_setupMultisynth, %function
 485              	si5351_setupMultisynth:
 486              	.LVL42:
 487              	.LFB252:
 488              		.loc 1 249 1 is_stmt 1 view -0
 489              		.cfi_startproc
 490              		@ args = 8, pretend = 0, frame = 16
 491              		@ frame_needed = 0, uses_anonymous_args = 0
 492              		.loc 1 260 3 view .LVU141
 493              		.loc 1 261 3 view .LVU142
 494              		.loc 1 262 3 view .LVU143
 495              		.loc 1 263 3 view .LVU144
 496              		.loc 1 249 1 is_stmt 0 view .LVU145
 497 0000 2DE9F043 		push	{r4, r5, r6, r7, r8, r9, lr}
 498              		.cfi_def_cfa_offset 28
 499              		.cfi_offset 4, -28
 500              		.cfi_offset 5, -24
 501              		.cfi_offset 6, -20
 502              		.cfi_offset 7, -16
 503              		.cfi_offset 8, -12
 504              		.cfi_offset 9, -8
 505              		.cfi_offset 14, -4
 506 0004 85B0     		sub	sp, sp, #20
 507              		.cfi_def_cfa_offset 48
 508              		.loc 1 263 6 view .LVU146
 509 0006 0429     		cmp	r1, #4
 510              		.loc 1 249 1 view .LVU147
 511 0008 0C9F     		ldr	r7, [sp, #48]
 512 000a 9DF83460 		ldrb	r6, [sp, #52]	@ zero_extendqisi2
 513 000e 0546     		mov	r5, r0
ARM GAS  C:\msys64\tmp\ccRrRxSP.s 			page 10


 514 0010 1446     		mov	r4, r2
 515              		.loc 1 263 6 view .LVU148
 516 0012 5CD0     		beq	.L30
 517              		.loc 1 266 5 is_stmt 1 view .LVU149
 518              	.LVL43:
 519              		.loc 1 267 5 view .LVU150
 520              		.loc 1 268 5 view .LVU151
 521              		.loc 1 267 8 is_stmt 0 view .LVU152
 522 0014 C901     		lsls	r1, r1, #7
 523              	.LVL44:
 524              		.loc 1 269 8 view .LVU153
 525 0016 D401     		lsls	r4, r2, #7
 526              	.LVL45:
 527              		.loc 1 268 8 view .LVU154
 528 0018 A1F50071 		sub	r1, r1, #512
 529              	.LVL46:
 530              		.loc 1 269 5 is_stmt 1 view .LVU155
 531              		.loc 1 269 8 is_stmt 0 view .LVU156
 532 001c 3BD1     		bne	.L25
 533              		.loc 1 280 27 view .LVU157
 534 001e C1F30140 		ubfx	r0, r1, #16, #2
 535              	.LVL47:
 536              		.loc 1 281 10 view .LVU158
 537 0022 C1F3072E 		ubfx	lr, r1, #8, #8
 538              		.loc 1 282 10 view .LVU159
 539 0026 2246     		mov	r2, r4
 540 0028 C9B2     		uxtb	r1, r1
 541              	.LVL48:
 542              		.loc 1 282 10 view .LVU160
 543 002a A046     		mov	r8, r4
 544 002c A446     		mov	ip, r4
 545 002e 0123     		movs	r3, #1
 546              	.LVL49:
 547              		.loc 1 282 10 view .LVU161
 548 0030 A146     		mov	r9, r4
 549              	.LVL50:
 550              	.L24:
 551              		.loc 1 276 3 is_stmt 1 view .LVU162
 552              		.loc 1 277 3 view .LVU163
 553              		.loc 1 278 3 view .LVU164
 554              		.loc 1 279 3 view .LVU165
 555              		.loc 1 280 3 view .LVU166
 556              		.loc 1 281 3 view .LVU167
 557              		.loc 1 282 3 view .LVU168
 558              		.loc 1 283 3 view .LVU169
 559              		.loc 1 284 3 view .LVU170
 560              		.loc 1 285 10 is_stmt 0 view .LVU171
 561 0032 8DF80C20 		strb	r2, [sp, #12]
 562              		.loc 1 277 22 view .LVU172
 563 0036 2B4A     		ldr	r2, .L31
 564              		.loc 1 280 32 view .LVU173
 565 0038 3843     		orrs	r0, r0, r7
 566              		.loc 1 277 10 view .LVU174
 567 003a 575D     		ldrb	r7, [r2, r5]	@ zero_extendqisi2
 568              	.LVL51:
 569              		.loc 1 277 10 view .LVU175
 570 003c 0022     		movs	r2, #0
ARM GAS  C:\msys64\tmp\ccRrRxSP.s 			page 11


 571 003e 67F30702 		bfi	r2, r7, #0, #8
 572 0042 69F30F22 		bfi	r2, r9, #8, #8
 573 0046 63F31742 		bfi	r2, r3, #16, #8
 574 004a 0023     		movs	r3, #0
 575 004c 6EF30703 		bfi	r3, lr, #0, #8
 576 0050 61F30F23 		bfi	r3, r1, #8, #8
 577 0054 6CF31743 		bfi	r3, ip, #16, #8
 578 0058 60F31F62 		bfi	r2, r0, #24, #8
 579 005c 68F31F63 		bfi	r3, r8, #24, #8
 580              		.loc 1 286 3 view .LVU176
 581 0060 0921     		movs	r1, #9
 582 0062 01A8     		add	r0, sp, #4
 583              		.loc 1 277 10 view .LVU177
 584 0064 0192     		str	r2, [sp, #4]
 585 0066 0293     		str	r3, [sp, #8]
 586              		.loc 1 285 3 is_stmt 1 view .LVU178
 587              		.loc 1 286 3 view .LVU179
 588 0068 FFF7FEFF 		bl	si5351_bulk_write
 589              	.LVL52:
 590              		.loc 1 289 3 view .LVU180
 591              		.loc 1 290 3 view .LVU181
 592              		.loc 1 290 6 is_stmt 0 view .LVU182
 593 006c 64B3     		cbz	r4, .L26
 594              		.loc 1 289 9 view .LVU183
 595 006e 46F00C06 		orr	r6, r6, #12
 596              	.LVL53:
 597              	.L27:
 598              		.loc 1 292 3 is_stmt 1 view .LVU184
 599              		.loc 1 292 16 is_stmt 0 view .LVU185
 600 0072 1D4C     		ldr	r4, .L31+4
 601              	.LVL54:
 602              		.loc 1 292 6 view .LVU186
 603 0074 635D     		ldrb	r3, [r4, r5]	@ zero_extendqisi2
 604 0076 B342     		cmp	r3, r6
 605 0078 0AD0     		beq	.L22
 606              		.loc 1 293 5 is_stmt 1 view .LVU187
 607              	.LVL55:
 608              	.LBB34:
 609              	.LBI34:
 610              		.loc 1 119 1 view .LVU188
 611              	.LBB35:
 612              		.loc 1 121 3 view .LVU189
 613              	.LBE35:
 614              	.LBE34:
 615              		.loc 1 293 5 is_stmt 0 view .LVU190
 616 007a 05F11003 		add	r3, r5, #16
 617              	.LBB37:
 618              	.LBB36:
 619              		.loc 1 122 3 view .LVU191
 620 007e 0221     		movs	r1, #2
 621 0080 6846     		mov	r0, sp
 622              		.loc 1 121 11 view .LVU192
 623 0082 8DF80030 		strb	r3, [sp]
 624 0086 8DF80160 		strb	r6, [sp, #1]
 625              		.loc 1 122 3 is_stmt 1 view .LVU193
 626 008a FFF7FEFF 		bl	si5351_bulk_write
 627              	.LVL56:
ARM GAS  C:\msys64\tmp\ccRrRxSP.s 			page 12


 628              		.loc 1 122 3 is_stmt 0 view .LVU194
 629              	.LBE36:
 630              	.LBE37:
 631              		.loc 1 294 5 is_stmt 1 view .LVU195
 632              		.loc 1 294 24 is_stmt 0 view .LVU196
 633 008e 6655     		strb	r6, [r4, r5]
 634              	.L22:
 635              		.loc 1 296 1 view .LVU197
 636 0090 05B0     		add	sp, sp, #20
 637              		.cfi_remember_state
 638              		.cfi_def_cfa_offset 28
 639              		@ sp needed
 640 0092 BDE8F083 		pop	{r4, r5, r6, r7, r8, r9, pc}
 641              	.LVL57:
 642              	.L25:
 643              		.cfi_restore_state
 644              		.loc 1 270 7 is_stmt 1 view .LVU198
 645              		.loc 1 270 16 is_stmt 0 view .LVU199
 646 0096 B4FBF3F2 		udiv	r2, r4, r3
 647              		.loc 1 283 27 view .LVU200
 648 009a 4FEA133C 		lsr	ip, r3, #12
 649              		.loc 1 270 9 view .LVU201
 650 009e 1144     		add	r1, r1, r2
 651              	.LVL58:
 652              		.loc 1 271 7 is_stmt 1 view .LVU202
 653              		.loc 1 271 10 is_stmt 0 view .LVU203
 654 00a0 03FB1242 		mls	r2, r3, r2, r4
 655              	.LVL59:
 656              		.loc 1 272 7 is_stmt 1 view .LVU204
 657              		.loc 1 283 48 is_stmt 0 view .LVU205
 658 00a4 C2F30340 		ubfx	r0, r2, #16, #4
 659              	.LVL60:
 660              		.loc 1 283 32 view .LVU206
 661 00a8 0CF0F00C 		and	ip, ip, #240
 662 00ac 4CEA000C 		orr	ip, ip, r0
 663              		.loc 1 278 10 view .LVU207
 664 00b0 C3F30729 		ubfx	r9, r3, #8, #8
 665              		.loc 1 280 27 view .LVU208
 666 00b4 C1F30140 		ubfx	r0, r1, #16, #2
 667              		.loc 1 281 10 view .LVU209
 668 00b8 C1F3072E 		ubfx	lr, r1, #8, #8
 669              		.loc 1 284 10 view .LVU210
 670 00bc C2F30728 		ubfx	r8, r2, #8, #8
 671              		.loc 1 279 10 view .LVU211
 672 00c0 DBB2     		uxtb	r3, r3
 673              	.LVL61:
 674              		.loc 1 282 10 view .LVU212
 675 00c2 C9B2     		uxtb	r1, r1
 676              	.LVL62:
 677              		.loc 1 285 10 view .LVU213
 678 00c4 D2B2     		uxtb	r2, r2
 679              	.LVL63:
 680              		.loc 1 285 10 view .LVU214
 681 00c6 B4E7     		b	.L24
 682              	.LVL64:
 683              	.L26:
 684              		.loc 1 291 5 is_stmt 1 view .LVU215
ARM GAS  C:\msys64\tmp\ccRrRxSP.s 			page 13


 685              		.loc 1 291 11 is_stmt 0 view .LVU216
 686 00c8 46F04C06 		orr	r6, r6, #76
 687              	.LVL65:
 688              		.loc 1 291 11 view .LVU217
 689 00cc D1E7     		b	.L27
 690              	.LVL66:
 691              	.L30:
 692              		.loc 1 264 5 is_stmt 1 view .LVU218
 693 00ce 0022     		movs	r2, #0
 694              	.LVL67:
 695              		.loc 1 264 9 is_stmt 0 view .LVU219
 696 00d0 47F00C07 		orr	r7, r7, #12
 697              	.LVL68:
 698              		.loc 1 264 9 view .LVU220
 699 00d4 9046     		mov	r8, r2
 700 00d6 9446     		mov	ip, r2
 701 00d8 1146     		mov	r1, r2
 702              	.LVL69:
 703              		.loc 1 264 9 view .LVU221
 704 00da 9646     		mov	lr, r2
 705 00dc 1046     		mov	r0, r2
 706              	.LVL70:
 707              		.loc 1 264 9 view .LVU222
 708 00de 0123     		movs	r3, #1
 709              	.LVL71:
 710              		.loc 1 264 9 view .LVU223
 711 00e0 9146     		mov	r9, r2
 712 00e2 A6E7     		b	.L24
 713              	.L32:
 714              		.align	2
 715              	.L31:
 716 00e4 00000000 		.word	msreg_base
 717 00e8 00000000 		.word	clk_cache
 718              		.cfi_endproc
 719              	.LFE252:
 720              		.size	si5351_setupMultisynth, .-si5351_setupMultisynth
 721              		.section	.text.si5351_set_frequency_fixedpll,"ax",%progbits
 722              		.align	1
 723              		.p2align 4,,15
 724              		.syntax unified
 725              		.thumb
 726              		.thumb_func
 727              		.type	si5351_set_frequency_fixedpll, %function
 728              	si5351_set_frequency_fixedpll:
 729              	.LVL72:
 730              	.LFB254:
 731              		.loc 1 332 1 is_stmt 1 view -0
 732              		.cfi_startproc
 733              		@ args = 12, pretend = 0, frame = 0
 734              		@ frame_needed = 0, uses_anonymous_args = 0
 735              		.loc 1 333 3 view .LVU225
 736              		.loc 1 332 1 is_stmt 0 view .LVU226
 737 0000 2DE9F047 		push	{r4, r5, r6, r7, r8, r9, r10, lr}
 738              		.cfi_def_cfa_offset 32
 739              		.cfi_offset 4, -32
 740              		.cfi_offset 5, -28
 741              		.cfi_offset 6, -24
ARM GAS  C:\msys64\tmp\ccRrRxSP.s 			page 14


 742              		.cfi_offset 7, -20
 743              		.cfi_offset 8, -16
 744              		.cfi_offset 9, -12
 745              		.cfi_offset 10, -8
 746              		.cfi_offset 14, -4
 747              		.loc 1 332 1 view .LVU227
 748 0004 089C     		ldr	r4, [sp, #32]
 749 0006 099E     		ldr	r6, [sp, #36]
 750 0008 9DF82870 		ldrb	r7, [sp, #40]	@ zero_extendqisi2
 751 000c 1946     		mov	r1, r3
 752 000e 0546     		mov	r5, r0
 753 0010 0023     		movs	r3, #0
 754 0012 1046     		mov	r0, r2
 755              	.LVL73:
 756              		.loc 1 332 1 view .LVU228
 757 0014 2246     		mov	r2, r4
 758              	.LVL74:
 759              		.loc 1 332 1 view .LVU229
 760 0016 FFF7FEFF 		bl	__aeabi_uldivmod
 761              	.LVL75:
 762              	.LBB42:
 763              	.LBB43:
 764              		.loc 1 305 6 view .LVU230
 765 001a B4F5801F 		cmp	r4, #1048576
 766 001e 0146     		mov	r1, r0
 767              	.LVL76:
 768              		.loc 1 305 6 view .LVU231
 769              	.LBE43:
 770              	.LBE42:
 771              		.loc 1 334 3 is_stmt 1 view .LVU232
 772              		.loc 1 335 3 view .LVU233
 773              		.loc 1 336 3 view .LVU234
 774              	.LBB51:
 775              	.LBI42:
 776              		.loc 1 300 13 view .LVU235
 777              	.LBB48:
 778              		.loc 1 304 3 view .LVU236
 779              		.loc 1 305 3 view .LVU237
 780              		.loc 1 305 6 is_stmt 0 view .LVU238
 781 0020 1BD3     		bcc	.L34
 782              	.LBB44:
 783              		.loc 1 307 14 view .LVU239
 784 0022 4FF00009 		mov	r9, #0
 785              		.loc 1 307 30 view .LVU240
 786 0026 4FF0010C 		mov	ip, #1
 787              		.loc 1 307 22 view .LVU241
 788 002a 6046     		mov	r0, ip
 789              	.LVL77:
 790              		.loc 1 307 38 view .LVU242
 791 002c CE46     		mov	lr, r9
 792 002e 01E0     		b	.L35
 793              	.LVL78:
 794              	.L37:
 795              		.loc 1 307 38 view .LVU243
 796 0030 9C46     		mov	ip, r3
 797 0032 C646     		mov	lr, r8
 798              	.LVL79:
ARM GAS  C:\msys64\tmp\ccRrRxSP.s 			page 15


 799              	.L35:
 800              	.LBB45:
 801              		.loc 1 309 7 is_stmt 1 view .LVU244
 802              		.loc 1 309 16 is_stmt 0 view .LVU245
 803 0034 B2FBF4F3 		udiv	r3, r2, r4
 804              	.LVL80:
 805              		.loc 1 310 7 is_stmt 1 view .LVU246
 806              		.loc 1 311 16 is_stmt 0 view .LVU247
 807 0038 03FB0E08 		mla	r8, r3, lr, r0
 808              		.loc 1 312 10 view .LVU248
 809 003c B8F5801F 		cmp	r8, #1048576
 810 0040 A246     		mov	r10, r4
 811              		.loc 1 310 16 view .LVU249
 812 0042 04FB1324 		mls	r4, r4, r3, r2
 813              	.LVL81:
 814              		.loc 1 311 7 is_stmt 1 view .LVU250
 815              		.loc 1 312 7 view .LVU251
 816              		.loc 1 314 7 view .LVU252
 817              		.loc 1 312 10 is_stmt 0 view .LVU253
 818 0046 10D2     		bcs	.L36
 819              		.loc 1 314 16 view .LVU254
 820 0048 03FB0C93 		mla	r3, r3, ip, r9
 821              	.LVL82:
 822              		.loc 1 315 7 is_stmt 1 view .LVU255
 823              		.loc 1 315 16 view .LVU256
 824              		.loc 1 315 25 view .LVU257
 825              		.loc 1 315 34 view .LVU258
 826              		.loc 1 316 7 view .LVU259
 827              		.loc 1 316 20 view .LVU260
 828              		.loc 1 316 20 is_stmt 0 view .LVU261
 829              	.LBE45:
 830              		.loc 1 308 18 is_stmt 1 view .LVU262
 831              		.loc 1 308 18 is_stmt 0 view .LVU263
 832 004c 7046     		mov	r0, lr
 833 004e E146     		mov	r9, ip
 834 0050 5246     		mov	r2, r10
 835              	.LVL83:
 836              		.loc 1 308 18 view .LVU264
 837 0052 002C     		cmp	r4, #0
 838 0054 ECD1     		bne	.L37
 839              		.loc 1 319 8 view .LVU265
 840 0056 4446     		mov	r4, r8
 841              	.LVL84:
 842              		.loc 1 318 8 view .LVU266
 843 0058 1A46     		mov	r2, r3
 844              	.LVL85:
 845              	.L34:
 846              		.loc 1 318 8 view .LVU267
 847              	.LBE44:
 848              	.LBE48:
 849              	.LBE51:
 850              		.loc 1 337 3 is_stmt 1 view .LVU268
 851 005a CDE90867 		strd	r6, r7, [sp, #32]
 852              	.LVL86:
 853              		.loc 1 337 3 is_stmt 0 view .LVU269
 854 005e 2346     		mov	r3, r4
 855 0060 2846     		mov	r0, r5
ARM GAS  C:\msys64\tmp\ccRrRxSP.s 			page 16


 856              		.loc 1 338 1 view .LVU270
 857 0062 BDE8F047 		pop	{r4, r5, r6, r7, r8, r9, r10, lr}
 858              		.cfi_remember_state
 859              		.cfi_restore 14
 860              		.cfi_restore 10
 861              		.cfi_restore 9
 862              		.cfi_restore 8
 863              		.cfi_restore 7
 864              		.cfi_restore 6
 865              		.cfi_restore 5
 866              		.cfi_restore 4
 867              		.cfi_def_cfa_offset 0
 868              	.LVL87:
 869              		.loc 1 337 3 view .LVU271
 870 0066 FFF7FEBF 		b	si5351_setupMultisynth
 871              	.LVL88:
 872              	.L36:
 873              		.cfi_restore_state
 874              	.LBB52:
 875              	.LBB49:
 876              	.LBB46:
 877              		.loc 1 319 8 view .LVU272
 878 006a 7446     		mov	r4, lr
 879              	.LVL89:
 880              		.loc 1 319 8 view .LVU273
 881              	.LBE46:
 882              	.LBE49:
 883              	.LBE52:
 884              		.loc 1 337 3 view .LVU274
 885 006c CDE90867 		strd	r6, r7, [sp, #32]
 886              	.LVL90:
 887              		.loc 1 337 3 view .LVU275
 888 0070 2346     		mov	r3, r4
 889              	.LVL91:
 890              		.loc 1 337 3 view .LVU276
 891 0072 2846     		mov	r0, r5
 892              	.LBB53:
 893              	.LBB50:
 894              	.LBB47:
 895              		.loc 1 318 8 view .LVU277
 896 0074 6246     		mov	r2, ip
 897              	.LVL92:
 898              		.loc 1 318 8 view .LVU278
 899              	.LBE47:
 900              	.LBE50:
 901              	.LBE53:
 902              		.loc 1 337 3 is_stmt 1 view .LVU279
 903              		.loc 1 338 1 is_stmt 0 view .LVU280
 904 0076 BDE8F047 		pop	{r4, r5, r6, r7, r8, r9, r10, lr}
 905              		.cfi_restore 14
 906              		.cfi_restore 10
 907              		.cfi_restore 9
 908              		.cfi_restore 8
 909              		.cfi_restore 7
 910              		.cfi_restore 6
 911              		.cfi_restore 5
 912              		.cfi_restore 4
ARM GAS  C:\msys64\tmp\ccRrRxSP.s 			page 17


 913              		.cfi_def_cfa_offset 0
 914              	.LVL93:
 915              		.loc 1 337 3 view .LVU281
 916 007a FFF7FEBF 		b	si5351_setupMultisynth
 917              	.LVL94:
 918              		.loc 1 337 3 view .LVU282
 919              		.cfi_endproc
 920              	.LFE254:
 921              		.size	si5351_set_frequency_fixedpll, .-si5351_set_frequency_fixedpll
 922 007e 00BF     		.section	.text.si5351_disable_output,"ax",%progbits
 923              		.align	1
 924              		.p2align 4,,15
 925              		.global	si5351_disable_output
 926              		.syntax unified
 927              		.thumb
 928              		.thumb_func
 929              		.type	si5351_disable_output, %function
 930              	si5351_disable_output:
 931              	.LFB248:
 932              		.loc 1 181 1 is_stmt 1 view -0
 933              		.cfi_startproc
 934              		@ args = 0, pretend = 0, frame = 8
 935              		@ frame_needed = 0, uses_anonymous_args = 0
 936              		.loc 1 182 3 view .LVU284
 937              	.LVL95:
 938              	.LBB58:
 939              	.LBI58:
 940              		.loc 1 119 1 view .LVU285
 941              	.LBB59:
 942              		.loc 1 121 3 view .LVU286
 943              	.LBE59:
 944              	.LBE58:
 945              		.loc 1 181 1 is_stmt 0 view .LVU287
 946 0000 00B5     		push	{lr}
 947              		.cfi_def_cfa_offset 4
 948              		.cfi_offset 14, -4
 949 0002 83B0     		sub	sp, sp, #12
 950              		.cfi_def_cfa_offset 16
 951              	.LBB61:
 952              	.LBB60:
 953              		.loc 1 121 11 view .LVU288
 954 0004 40F20373 		movw	r3, #1795
 955              		.loc 1 122 3 view .LVU289
 956 0008 01A8     		add	r0, sp, #4
 957 000a 0221     		movs	r1, #2
 958              		.loc 1 121 11 view .LVU290
 959 000c ADF80430 		strh	r3, [sp, #4]	@ movhi
 960              		.loc 1 122 3 is_stmt 1 view .LVU291
 961 0010 FFF7FEFF 		bl	si5351_bulk_write
 962              	.LVL96:
 963              		.loc 1 122 3 is_stmt 0 view .LVU292
 964              	.LBE60:
 965              	.LBE61:
 966              		.loc 1 183 3 is_stmt 1 view .LVU293
 967 0014 0548     		ldr	r0, .L41
 968 0016 0421     		movs	r1, #4
 969 0018 FFF7FEFF 		bl	si5351_bulk_write
ARM GAS  C:\msys64\tmp\ccRrRxSP.s 			page 18


 970              	.LVL97:
 971              		.loc 1 184 3 view .LVU294
 972              	.LBB62:
 973              	.LBI62:
 974              		.loc 1 40 13 view .LVU295
 975              	.LBB63:
 976              		.loc 1 41 3 view .LVU296
 977              		.loc 1 41 16 is_stmt 0 view .LVU297
 978 001c 0449     		ldr	r1, .L41+4
 979              		.loc 1 42 16 view .LVU298
 980 001e 054A     		ldr	r2, .L41+8
 981              		.loc 1 41 16 view .LVU299
 982 0020 0023     		movs	r3, #0
 983 0022 0B70     		strb	r3, [r1]
 984              		.loc 1 42 3 is_stmt 1 view .LVU300
 985              		.loc 1 42 16 is_stmt 0 view .LVU301
 986 0024 1360     		str	r3, [r2]
 987              	.LBE63:
 988              	.LBE62:
 989              		.loc 1 185 1 view .LVU302
 990 0026 03B0     		add	sp, sp, #12
 991              		.cfi_def_cfa_offset 4
 992              		@ sp needed
 993 0028 5DF804FB 		ldr	pc, [sp], #4
 994              	.L42:
 995              		.align	2
 996              	.L41:
 997 002c 00000000 		.word	disable_output
 998 0030 00000000 		.word	current_band
 999 0034 00000000 		.word	current_freq
 1000              		.cfi_endproc
 1001              	.LFE248:
 1002              		.size	si5351_disable_output, .-si5351_disable_output
 1003              		.section	.text.si5351_enable_output,"ax",%progbits
 1004              		.align	1
 1005              		.p2align 4,,15
 1006              		.global	si5351_enable_output
 1007              		.syntax unified
 1008              		.thumb
 1009              		.thumb_func
 1010              		.type	si5351_enable_output, %function
 1011              	si5351_enable_output:
 1012              	.LFB249:
 1013              		.loc 1 188 1 is_stmt 1 view -0
 1014              		.cfi_startproc
 1015              		@ args = 0, pretend = 0, frame = 8
 1016              		@ frame_needed = 0, uses_anonymous_args = 0
 1017              		.loc 1 189 3 view .LVU304
 1018              	.LVL98:
 1019              	.LBB68:
 1020              	.LBI68:
 1021              		.loc 1 119 1 view .LVU305
 1022              	.LBB69:
 1023              		.loc 1 121 3 view .LVU306
 1024              	.LBE69:
 1025              	.LBE68:
 1026              		.loc 1 188 1 is_stmt 0 view .LVU307
ARM GAS  C:\msys64\tmp\ccRrRxSP.s 			page 19


 1027 0000 00B5     		push	{lr}
 1028              		.cfi_def_cfa_offset 4
 1029              		.cfi_offset 14, -4
 1030 0002 83B0     		sub	sp, sp, #12
 1031              		.cfi_def_cfa_offset 16
 1032              	.LBB71:
 1033              	.LBB70:
 1034              		.loc 1 121 11 view .LVU308
 1035 0004 4FF60303 		movw	r3, #63491
 1036              		.loc 1 122 3 view .LVU309
 1037 0008 0221     		movs	r1, #2
 1038 000a 01A8     		add	r0, sp, #4
 1039              		.loc 1 121 11 view .LVU310
 1040 000c ADF80430 		strh	r3, [sp, #4]	@ movhi
 1041              		.loc 1 122 3 is_stmt 1 view .LVU311
 1042 0010 FFF7FEFF 		bl	si5351_bulk_write
 1043              	.LVL99:
 1044              		.loc 1 122 3 is_stmt 0 view .LVU312
 1045              	.LBE70:
 1046              	.LBE71:
 1047              		.loc 1 191 3 is_stmt 1 view .LVU313
 1048              	.LBB72:
 1049              	.LBI72:
 1050              		.loc 1 40 13 view .LVU314
 1051              	.LBB73:
 1052              		.loc 1 41 3 view .LVU315
 1053              		.loc 1 41 16 is_stmt 0 view .LVU316
 1054 0014 0349     		ldr	r1, .L45
 1055              		.loc 1 42 16 view .LVU317
 1056 0016 044A     		ldr	r2, .L45+4
 1057              		.loc 1 41 16 view .LVU318
 1058 0018 0023     		movs	r3, #0
 1059 001a 0B70     		strb	r3, [r1]
 1060              		.loc 1 42 3 is_stmt 1 view .LVU319
 1061              		.loc 1 42 16 is_stmt 0 view .LVU320
 1062 001c 1360     		str	r3, [r2]
 1063              	.LBE73:
 1064              	.LBE72:
 1065              		.loc 1 192 1 view .LVU321
 1066 001e 03B0     		add	sp, sp, #12
 1067              		.cfi_def_cfa_offset 4
 1068              		@ sp needed
 1069 0020 5DF804FB 		ldr	pc, [sp], #4
 1070              	.L46:
 1071              		.align	2
 1072              	.L45:
 1073 0024 00000000 		.word	current_band
 1074 0028 00000000 		.word	current_freq
 1075              		.cfi_endproc
 1076              	.LFE249:
 1077              		.size	si5351_enable_output, .-si5351_enable_output
 1078              		.section	.text.si5351_set_tcxo,"ax",%progbits
 1079              		.align	1
 1080              		.p2align 4,,15
 1081              		.global	si5351_set_tcxo
 1082              		.syntax unified
 1083              		.thumb
ARM GAS  C:\msys64\tmp\ccRrRxSP.s 			page 20


 1084              		.thumb_func
 1085              		.type	si5351_set_tcxo, %function
 1086              	si5351_set_tcxo:
 1087              	.LVL100:
 1088              	.LFB250:
 1089              		.loc 1 194 36 is_stmt 1 view -0
 1090              		.cfi_startproc
 1091              		@ args = 0, pretend = 0, frame = 0
 1092              		@ frame_needed = 0, uses_anonymous_args = 0
 1093              		@ link register save eliminated.
 1094              		.loc 1 195 3 view .LVU323
 1095              		.loc 1 195 6 is_stmt 0 view .LVU324
 1096 0000 094A     		ldr	r2, .L51
 1097              	.LBB76:
 1098              	.LBB77:
 1099              		.loc 1 41 16 view .LVU325
 1100 0002 0A49     		ldr	r1, .L51+4
 1101              	.LBE77:
 1102              	.LBE76:
 1103              		.loc 1 195 33 view .LVU326
 1104 0004 A0F1B773 		sub	r3, r0, #23986176
 1105 0008 A3F55853 		sub	r3, r3, #13824
 1106              		.loc 1 194 36 view .LVU327
 1107 000c 10B4     		push	{r4}
 1108              		.cfi_def_cfa_offset 4
 1109              		.cfi_offset 4, -4
 1110              		.loc 1 195 6 view .LVU328
 1111 000e 9342     		cmp	r3, r2
 1112              		.loc 1 197 21 view .LVU329
 1113 0010 074C     		ldr	r4, .L51+8
 1114              	.LBB81:
 1115              	.LBB78:
 1116              		.loc 1 42 16 view .LVU330
 1117 0012 084A     		ldr	r2, .L51+12
 1118              	.LBE78:
 1119              	.LBE81:
 1120              		.loc 1 196 39 view .LVU331
 1121 0014 88BF     		it	hi
 1122 0016 0848     		ldrhi	r0, .L51+16
 1123              	.LVL101:
 1124              		.loc 1 197 3 is_stmt 1 view .LVU332
 1125              		.loc 1 197 21 is_stmt 0 view .LVU333
 1126 0018 6066     		str	r0, [r4, #100]
 1127              		.loc 1 198 3 is_stmt 1 view .LVU334
 1128              	.LBB82:
 1129              	.LBI76:
 1130              		.loc 1 40 13 view .LVU335
 1131              	.LBB79:
 1132              		.loc 1 41 3 view .LVU336
 1133              		.loc 1 41 16 is_stmt 0 view .LVU337
 1134 001a 0023     		movs	r3, #0
 1135 001c 0B70     		strb	r3, [r1]
 1136              		.loc 1 42 3 is_stmt 1 view .LVU338
 1137              	.LBE79:
 1138              	.LBE82:
 1139              		.loc 1 199 1 is_stmt 0 view .LVU339
 1140 001e 5DF8044B 		ldr	r4, [sp], #4
ARM GAS  C:\msys64\tmp\ccRrRxSP.s 			page 21


 1141              		.cfi_restore 4
 1142              		.cfi_def_cfa_offset 0
 1143              	.LBB83:
 1144              	.LBB80:
 1145              		.loc 1 42 16 view .LVU340
 1146 0022 1360     		str	r3, [r2]
 1147              	.LBE80:
 1148              	.LBE83:
 1149              		.loc 1 199 1 view .LVU341
 1150 0024 7047     		bx	lr
 1151              	.L52:
 1152 0026 00BF     		.align	2
 1153              	.L51:
 1154 0028 00093D00 		.word	4000000
 1155 002c 00000000 		.word	current_band
 1156 0030 00000000 		.word	config
 1157 0034 00000000 		.word	current_freq
 1158 0038 80BA8C01 		.word	26000000
 1159              		.cfi_endproc
 1160              	.LFE250:
 1161              		.size	si5351_set_tcxo, .-si5351_set_tcxo
 1162              		.section	.text.si5351_set_band_mode,"ax",%progbits
 1163              		.align	1
 1164              		.p2align 4,,15
 1165              		.global	si5351_set_band_mode
 1166              		.syntax unified
 1167              		.thumb
 1168              		.thumb_func
 1169              		.type	si5351_set_band_mode, %function
 1170              	si5351_set_band_mode:
 1171              	.LVL102:
 1172              	.LFB256:
 1173              		.loc 1 503 39 is_stmt 1 view -0
 1174              		.cfi_startproc
 1175              		@ args = 0, pretend = 0, frame = 0
 1176              		@ frame_needed = 0, uses_anonymous_args = 0
 1177              		@ link register save eliminated.
 1178              		.loc 1 504 3 view .LVU343
 1179              		.loc 1 511 3 view .LVU344
 1180              		.loc 1 511 14 is_stmt 0 view .LVU345
 1181 0000 024A     		ldr	r2, .L54
 1182              		.loc 1 511 10 view .LVU346
 1183 0002 034B     		ldr	r3, .L54+4
 1184 0004 52F82020 		ldr	r2, [r2, r0, lsl #2]
 1185 0008 1A60     		str	r2, [r3]
 1186              		.loc 1 512 1 view .LVU347
 1187 000a 7047     		bx	lr
 1188              	.L55:
 1189              		.align	2
 1190              	.L54:
 1191 000c 00000000 		.word	bs.0
 1192 0010 00000000 		.word	band_s
 1193              		.cfi_endproc
 1194              	.LFE256:
 1195              		.size	si5351_set_band_mode, .-si5351_set_band_mode
 1196              		.section	.text.si5351_get_harmonic_lvl,"ax",%progbits
 1197              		.align	1
ARM GAS  C:\msys64\tmp\ccRrRxSP.s 			page 22


 1198              		.p2align 4,,15
 1199              		.global	si5351_get_harmonic_lvl
 1200              		.syntax unified
 1201              		.thumb
 1202              		.thumb_func
 1203              		.type	si5351_get_harmonic_lvl, %function
 1204              	si5351_get_harmonic_lvl:
 1205              	.LVL103:
 1206              	.LFB257:
 1207              		.loc 1 515 39 is_stmt 1 view -0
 1208              		.cfi_startproc
 1209              		@ args = 0, pretend = 0, frame = 0
 1210              		@ frame_needed = 0, uses_anonymous_args = 0
 1211              		@ link register save eliminated.
 1212              		.loc 1 516 3 view .LVU349
 1213              		.loc 1 517 3 view .LVU350
 1214              	.LBB84:
 1215              		.loc 1 518 55 is_stmt 0 discriminator 1 view .LVU351
 1216 0000 094B     		ldr	r3, .L61
 1217              		.loc 1 518 24 view .LVU352
 1218 0002 0A4A     		ldr	r2, .L61+4
 1219              	.LBE84:
 1220              		.loc 1 515 39 view .LVU353
 1221 0004 30B4     		push	{r4, r5}
 1222              		.cfi_def_cfa_offset 8
 1223              		.cfi_offset 4, -8
 1224              		.cfi_offset 5, -4
 1225              	.LBB85:
 1226              		.loc 1 518 55 discriminator 1 view .LVU354
 1227 0006 5D68     		ldr	r5, [r3, #4]
 1228              		.loc 1 518 24 view .LVU355
 1229 0008 1468     		ldr	r4, [r2]
 1230              	.LBE85:
 1231              		.loc 1 515 39 view .LVU356
 1232 000a 0146     		mov	r1, r0
 1233              	.LBB86:
 1234              		.loc 1 518 55 discriminator 1 view .LVU357
 1235 000c 0022     		movs	r2, #0
 1236              	.LVL104:
 1237              	.L58:
 1238              		.loc 1 518 5 is_stmt 1 view .LVU358
 1239              		.loc 1 518 46 discriminator 1 view .LVU359
 1240 000e 90B2     		uxth	r0, r2
 1241              		.loc 1 518 14 is_stmt 0 view .LVU360
 1242 0010 00EB4003 		add	r3, r0, r0, lsl #1
 1243              		.loc 1 519 8 view .LVU361
 1244 0014 0132     		adds	r2, r2, #1
 1245              	.LVL105:
 1246              		.loc 1 518 14 view .LVU362
 1247 0016 54F82330 		ldr	r3, [r4, r3, lsl #2]
 1248              	.LVL106:
 1249              		.loc 1 518 34 is_stmt 1 view .LVU363
 1250              		.loc 1 518 37 is_stmt 0 view .LVU364
 1251 001a 132B     		cmp	r3, #19
 1252              		.loc 1 518 47 discriminator 1 view .LVU365
 1253 001c 98BF     		it	ls
 1254 001e 6B43     		mulls	r3, r5, r3
ARM GAS  C:\msys64\tmp\ccRrRxSP.s 			page 23


 1255              	.LVL107:
 1256              		.loc 1 519 5 is_stmt 1 view .LVU366
 1257              		.loc 1 519 8 is_stmt 0 view .LVU367
 1258 0020 8B42     		cmp	r3, r1
 1259 0022 F4D3     		bcc	.L58
 1260              		.loc 1 520 7 is_stmt 1 view .LVU368
 1261              	.LBE86:
 1262              		.loc 1 523 1 is_stmt 0 view .LVU369
 1263 0024 30BC     		pop	{r4, r5}
 1264              		.cfi_restore 5
 1265              		.cfi_restore 4
 1266              		.cfi_def_cfa_offset 0
 1267 0026 7047     		bx	lr
 1268              	.L62:
 1269              		.align	2
 1270              	.L61:
 1271 0028 00000000 		.word	config
 1272 002c 00000000 		.word	band_s
 1273              		.cfi_endproc
 1274              	.LFE257:
 1275              		.size	si5351_get_harmonic_lvl, .-si5351_get_harmonic_lvl
 1276              		.section	.text.si5351_set_frequency,"ax",%progbits
 1277              		.align	1
 1278              		.p2align 4,,15
 1279              		.global	si5351_set_frequency
 1280              		.syntax unified
 1281              		.thumb
 1282              		.thumb_func
 1283              		.type	si5351_set_frequency, %function
 1284              	si5351_set_frequency:
 1285              	.LVL108:
 1286              	.LFB258:
 1287              		.loc 1 538 1 is_stmt 1 view -0
 1288              		.cfi_startproc
 1289              		@ args = 0, pretend = 0, frame = 32
 1290              		@ frame_needed = 0, uses_anonymous_args = 0
 1291              		.loc 1 539 3 view .LVU371
 1292              		.loc 1 540 3 view .LVU372
 1293              		.loc 1 541 3 view .LVU373
 1294              		.loc 1 538 1 is_stmt 0 view .LVU374
 1295 0000 2DE9F04F 		push	{r4, r5, r6, r7, r8, r9, r10, fp, lr}
 1296              		.cfi_def_cfa_offset 36
 1297              		.cfi_offset 4, -36
 1298              		.cfi_offset 5, -32
 1299              		.cfi_offset 6, -28
 1300              		.cfi_offset 7, -24
 1301              		.cfi_offset 8, -20
 1302              		.cfi_offset 9, -16
 1303              		.cfi_offset 10, -12
 1304              		.cfi_offset 11, -8
 1305              		.cfi_offset 14, -4
 1306              		.loc 1 541 6 view .LVU375
 1307 0004 0446     		mov	r4, r0
 1308              		.loc 1 538 1 view .LVU376
 1309 0006 8DB0     		sub	sp, sp, #52
 1310              		.cfi_def_cfa_offset 88
 1311              		.loc 1 541 6 view .LVU377
ARM GAS  C:\msys64\tmp\ccRrRxSP.s 			page 24


 1312 0008 0028     		cmp	r0, #0
 1313 000a 6FD0     		beq	.L63
 1314              		.loc 1 542 3 is_stmt 1 view .LVU378
 1315              	.LVL109:
 1316              		.loc 1 543 3 view .LVU379
 1317              		.loc 1 544 3 view .LVU380
 1318              		.loc 1 544 27 is_stmt 0 view .LVU381
 1319 000c DFF86492 		ldr	r9, .L88+16
 1320              		.loc 1 547 20 view .LVU382
 1321 0010 DFF86482 		ldr	r8, .L88+20
 1322              		.loc 1 544 12 view .LVU383
 1323 0014 D9F80830 		ldr	r3, [r9, #8]
 1324 0018 00EB030A 		add	r10, r0, r3
 1325              	.LVL110:
 1326              		.loc 1 547 3 is_stmt 1 view .LVU384
 1327              		.loc 1 547 20 is_stmt 0 view .LVU385
 1328 001c D8F80030 		ldr	r3, [r8]
 1329              		.loc 1 547 6 view .LVU386
 1330 0020 DA68     		ldr	r2, [r3, #12]
 1331 0022 8242     		cmp	r2, r0
 1332 0024 10D8     		bhi	.L85
 1333              		.loc 1 553 13 view .LVU387
 1334 0026 8F4A     		ldr	r2, .L88
 1335 0028 9042     		cmp	r0, r2
 1336 002a 0D46     		mov	r5, r1
 1337              		.loc 1 553 10 is_stmt 1 view .LVU388
 1338              		.loc 1 553 13 is_stmt 0 view .LVU389
 1339 002c 00F20181 		bhi	.L68
 1340              		.loc 1 554 5 is_stmt 1 view .LVU390
 1341              	.LVL111:
 1342              		.loc 1 555 6 view .LVU391
 1343              		.loc 1 571 21 is_stmt 0 view .LVU392
 1344 0030 8D4A     		ldr	r2, .L88+4
 1345              		.loc 1 571 6 view .LVU393
 1346 0032 1178     		ldrb	r1, [r2]	@ zero_extendqisi2
 1347              	.LVL112:
 1348              		.loc 1 571 6 view .LVU394
 1349 0034 A942     		cmp	r1, r5
 1350              		.loc 1 555 10 view .LVU395
 1351 0036 4FEA0014 		lsl	r4, r0, #4
 1352              	.LVL113:
 1353              		.loc 1 556 5 is_stmt 1 view .LVU396
 1354              		.loc 1 556 10 is_stmt 0 view .LVU397
 1355 003a 4FEA0A1A 		lsl	r10, r10, #4
 1356              	.LVL114:
 1357              		.loc 1 557 5 is_stmt 1 view .LVU398
 1358              		.loc 1 571 3 view .LVU399
 1359              		.loc 1 571 6 is_stmt 0 view .LVU400
 1360 003e 65D1     		bne	.L86
 1361              		.loc 1 554 10 view .LVU401
 1362 0040 4022     		movs	r2, #64
 1363 0042 0692     		str	r2, [sp, #24]
 1364              		.loc 1 557 10 view .LVU402
 1365 0044 0226     		movs	r6, #2
 1366 0046 09E0     		b	.L67
 1367              	.LVL115:
 1368              	.L85:
ARM GAS  C:\msys64\tmp\ccRrRxSP.s 			page 25


 1369              		.loc 1 548 6 is_stmt 1 view .LVU403
 1370              		.loc 1 549 6 view .LVU404
 1371              		.loc 1 550 6 view .LVU405
 1372              		.loc 1 571 21 is_stmt 0 view .LVU406
 1373 0048 874A     		ldr	r2, .L88+4
 1374 004a 1578     		ldrb	r5, [r2]	@ zero_extendqisi2
 1375              		.loc 1 550 10 view .LVU407
 1376 004c C401     		lsls	r4, r0, #7
 1377              	.LVL116:
 1378              		.loc 1 551 5 is_stmt 1 view .LVU408
 1379              		.loc 1 551 10 is_stmt 0 view .LVU409
 1380 004e 4FEACA1A 		lsl	r10, r10, #7
 1381              	.LVL117:
 1382              		.loc 1 552 5 is_stmt 1 view .LVU410
 1383              		.loc 1 571 3 view .LVU411
 1384              		.loc 1 571 6 is_stmt 0 view .LVU412
 1385 0052 002D     		cmp	r5, #0
 1386 0054 4DD1     		bne	.L66
 1387 0056 7022     		movs	r2, #112
 1388 0058 0692     		str	r2, [sp, #24]
 1389 005a 0126     		movs	r6, #1
 1390              	.LVL118:
 1391              	.L67:
 1392              		.loc 1 576 12 view .LVU413
 1393 005c DFF81CB2 		ldr	fp, .L88+24
 1394 0060 DBF80020 		ldr	r2, [fp]
 1395              	.L70:
 1396              		.loc 1 576 3 is_stmt 1 view .LVU414
 1397              		.loc 1 576 6 is_stmt 0 view .LVU415
 1398 0064 A242     		cmp	r2, r4
 1399 0066 00F0F780 		beq	.L82
 1400              		.loc 1 576 6 view .LVU416
 1401 006a 804F     		ldr	r7, .L88+8
 1402              	.L69:
 1403              		.loc 1 579 3 is_stmt 1 view .LVU417
 1404              		.loc 1 579 20 is_stmt 0 view .LVU418
 1405 006c 3978     		ldrb	r1, [r7]	@ zero_extendqisi2
 1406              		.loc 1 584 46 view .LVU419
 1407 006e 06EB4602 		add	r2, r6, r6, lsl #1
 1408 0072 9000     		lsls	r0, r2, #2
 1409              		.loc 1 579 6 view .LVU420
 1410 0074 B142     		cmp	r1, r6
 1411              		.loc 1 584 46 view .LVU421
 1412 0076 0890     		str	r0, [sp, #32]
 1413 0078 03EB8202 		add	r2, r3, r2, lsl #2
 1414              		.loc 1 579 6 view .LVU422
 1415 007c 0FD0     		beq	.L71
 1416              		.loc 1 581 5 is_stmt 1 view .LVU423
 1417              		.loc 1 584 5 view .LVU424
 1418              		.loc 1 584 60 is_stmt 0 view .LVU425
 1419 007e 01EB4101 		add	r1, r1, r1, lsl #1
 1420 0082 03EB8103 		add	r3, r3, r1, lsl #2
 1421              		.loc 1 584 8 view .LVU426
 1422 0086 1989     		ldrh	r1, [r3, #8]
 1423 0088 1389     		ldrh	r3, [r2, #8]
 1424 008a 9942     		cmp	r1, r3
 1425 008c 07D0     		beq	.L71
ARM GAS  C:\msys64\tmp\ccRrRxSP.s 			page 26


 1426              		.loc 1 585 7 is_stmt 1 view .LVU427
 1427 008e 107A     		ldrb	r0, [r2, #8]	@ zero_extendqisi2
 1428 0090 517A     		ldrb	r1, [r2, #9]	@ zero_extendqisi2
 1429 0092 FFF7FEFF 		bl	tlv320aic3204_set_gain
 1430              	.LVL119:
 1431              		.loc 1 590 25 is_stmt 0 view .LVU428
 1432 0096 D8F80020 		ldr	r2, [r8]
 1433 009a 0898     		ldr	r0, [sp, #32]
 1434 009c 0244     		add	r2, r2, r0
 1435              	.L71:
 1436              		.loc 1 590 3 is_stmt 1 view .LVU429
 1437              		.loc 1 590 31 is_stmt 0 view .LVU430
 1438 009e 9379     		ldrb	r3, [r2, #6]	@ zero_extendqisi2
 1439              		.loc 1 594 6 view .LVU431
 1440 00a0 032D     		cmp	r5, #3
 1441              		.loc 1 590 31 view .LVU432
 1442 00a2 03F00F01 		and	r1, r3, #15
 1443              		.loc 1 591 31 view .LVU433
 1444 00a6 4FEA1313 		lsr	r3, r3, #4
 1445              		.loc 1 590 31 view .LVU434
 1446 00aa 0591     		str	r1, [sp, #20]
 1447              	.LVL120:
 1448              		.loc 1 591 3 is_stmt 1 view .LVU435
 1449              		.loc 1 591 31 is_stmt 0 view .LVU436
 1450 00ac 0793     		str	r3, [sp, #28]
 1451              	.LVL121:
 1452              		.loc 1 592 3 is_stmt 1 view .LVU437
 1453              		.loc 1 593 3 view .LVU438
 1454              		.loc 1 594 3 view .LVU439
 1455              		.loc 1 594 6 is_stmt 0 view .LVU440
 1456 00ae 39D9     		bls	.L83
 1457              		.loc 1 594 56 is_stmt 1 discriminator 1 view .LVU441
 1458              		.loc 1 594 73 is_stmt 0 discriminator 1 view .LVU442
 1459 00b0 D379     		ldrb	r3, [r2, #7]	@ zero_extendqisi2
 1460              		.loc 1 594 59 discriminator 1 view .LVU443
 1461 00b2 03F00F05 		and	r5, r3, #15
 1462              	.LVL122:
 1463              		.loc 1 594 79 is_stmt 1 view .LVU444
 1464              		.loc 1 594 83 is_stmt 0 discriminator 1 view .LVU445
 1465 00b6 1B09     		lsrs	r3, r3, #4
 1466              	.LVL123:
 1467              		.loc 1 594 83 discriminator 1 view .LVU446
 1468 00b8 0993     		str	r3, [sp, #36]
 1469              	.LVL124:
 1470              		.loc 1 595 3 is_stmt 1 view .LVU447
 1471              		.loc 1 595 23 is_stmt 0 view .LVU448
 1472 00ba 1379     		ldrb	r3, [r2, #4]	@ zero_extendqisi2
 1473              		.loc 1 595 3 view .LVU449
 1474 00bc 012B     		cmp	r3, #1
 1475 00be 35D0     		beq	.L73
 1476              	.L87:
 1477              		.loc 1 595 3 view .LVU450
 1478 00c0 022B     		cmp	r3, #2
 1479 00c2 70D0     		beq	.L74
 1480 00c4 0020     		movs	r0, #0
 1481              	.LVL125:
 1482              	.L75:
ARM GAS  C:\msys64\tmp\ccRrRxSP.s 			page 27


 1483              		.loc 1 648 3 is_stmt 1 view .LVU451
 1484              		.loc 1 648 6 is_stmt 0 view .LVU452
 1485 00c6 3B78     		ldrb	r3, [r7]	@ zero_extendqisi2
 1486 00c8 B342     		cmp	r3, r6
 1487 00ca 0DD0     		beq	.L78
 1488              		.loc 1 651 5 is_stmt 1 view .LVU453
 1489              		.loc 1 652 7 view .LVU454
 1490 00cc 4FF4C870 		mov	r0, #400
 1491              	.LVL126:
 1492              		.loc 1 652 7 is_stmt 0 view .LVU455
 1493 00d0 FFF7FEFF 		bl	chThdSleep
 1494              	.LVL127:
 1495              		.loc 1 653 7 is_stmt 1 view .LVU456
 1496              	.LBB95:
 1497              	.LBI95:
 1498              		.loc 1 174 13 view .LVU457
 1499              		.loc 1 177 3 view .LVU458
 1500              	.LBB96:
 1501              	.LBI96:
 1502              		.loc 1 119 1 view .LVU459
 1503              	.LBB97:
 1504              		.loc 1 121 3 view .LVU460
 1505              		.loc 1 121 11 is_stmt 0 view .LVU461
 1506 00d4 4AF6B143 		movw	r3, #44209
 1507              		.loc 1 122 3 view .LVU462
 1508 00d8 0BA8     		add	r0, sp, #44
 1509 00da 0221     		movs	r1, #2
 1510              		.loc 1 121 11 view .LVU463
 1511 00dc ADF82C30 		strh	r3, [sp, #44]	@ movhi
 1512              		.loc 1 122 3 is_stmt 1 view .LVU464
 1513 00e0 FFF7FEFF 		bl	si5351_bulk_write
 1514              	.LVL128:
 1515              		.loc 1 122 3 is_stmt 0 view .LVU465
 1516              	.LBE97:
 1517              	.LBE96:
 1518              	.LBE95:
 1519              		.loc 1 655 5 is_stmt 1 view .LVU466
 1520              		.loc 1 656 11 is_stmt 0 view .LVU467
 1521 00e4 C820     		movs	r0, #200
 1522              		.loc 1 655 18 view .LVU468
 1523 00e6 3E70     		strb	r6, [r7]
 1524              		.loc 1 656 5 is_stmt 1 view .LVU469
 1525              	.L78:
 1526              	.LVL129:
 1527              		.loc 1 658 3 view .LVU470
 1528              		.loc 1 658 16 is_stmt 0 view .LVU471
 1529 00e8 CBF80040 		str	r4, [fp]
 1530              		.loc 1 659 3 is_stmt 1 view .LVU472
 1531              	.LVL130:
 1532              	.L63:
 1533              		.loc 1 660 1 is_stmt 0 view .LVU473
 1534 00ec 0DB0     		add	sp, sp, #52
 1535              		.cfi_remember_state
 1536              		.cfi_def_cfa_offset 36
 1537              		@ sp needed
 1538 00ee BDE8F08F 		pop	{r4, r5, r6, r7, r8, r9, r10, fp, pc}
 1539              	.LVL131:
ARM GAS  C:\msys64\tmp\ccRrRxSP.s 			page 28


 1540              	.L66:
 1541              		.cfi_restore_state
 1542              		.loc 1 572 5 is_stmt 1 view .LVU474
 1543              	.LBB98:
 1544              	.LBI98:
 1545              		.loc 1 40 13 view .LVU475
 1546              	.LBB99:
 1547              		.loc 1 41 3 view .LVU476
 1548              		.loc 1 41 16 is_stmt 0 view .LVU477
 1549 00f2 0025     		movs	r5, #0
 1550 00f4 5D4F     		ldr	r7, .L88+8
 1551              		.loc 1 42 16 view .LVU478
 1552 00f6 DFF884B1 		ldr	fp, .L88+24
 1553              	.LBE99:
 1554              	.LBE98:
 1555              		.loc 1 573 19 view .LVU479
 1556 00fa 1570     		strb	r5, [r2]
 1557 00fc 7022     		movs	r2, #112
 1558 00fe 0692     		str	r2, [sp, #24]
 1559              	.LBB105:
 1560              	.LBB100:
 1561              		.loc 1 41 16 view .LVU480
 1562 0100 3D70     		strb	r5, [r7]
 1563              		.loc 1 42 3 is_stmt 1 view .LVU481
 1564              		.loc 1 42 16 is_stmt 0 view .LVU482
 1565 0102 CBF80050 		str	r5, [fp]
 1566              	.LBE100:
 1567              	.LBE105:
 1568              		.loc 1 573 5 is_stmt 1 view .LVU483
 1569              		.loc 1 573 19 is_stmt 0 view .LVU484
 1570 0106 0126     		movs	r6, #1
 1571 0108 2A46     		mov	r2, r5
 1572 010a ABE7     		b	.L70
 1573              	.LVL132:
 1574              	.L86:
 1575              		.loc 1 572 5 is_stmt 1 view .LVU485
 1576              	.LBB106:
 1577              		.loc 1 40 13 view .LVU486
 1578              	.LBB101:
 1579              		.loc 1 41 3 view .LVU487
 1580              		.loc 1 41 16 is_stmt 0 view .LVU488
 1581 010c 574F     		ldr	r7, .L88+8
 1582              		.loc 1 42 16 view .LVU489
 1583 010e DFF86CB1 		ldr	fp, .L88+24
 1584              	.LBE101:
 1585              	.LBE106:
 1586              		.loc 1 573 19 view .LVU490
 1587 0112 1570     		strb	r5, [r2]
 1588              	.LBB107:
 1589              	.LBB102:
 1590              		.loc 1 41 16 view .LVU491
 1591 0114 0022     		movs	r2, #0
 1592 0116 3A70     		strb	r2, [r7]
 1593              		.loc 1 42 3 is_stmt 1 view .LVU492
 1594              		.loc 1 42 16 is_stmt 0 view .LVU493
 1595 0118 CBF80020 		str	r2, [fp]
 1596              	.LBE102:
ARM GAS  C:\msys64\tmp\ccRrRxSP.s 			page 29


 1597              	.LBE107:
 1598              		.loc 1 573 5 is_stmt 1 view .LVU494
 1599              		.loc 1 576 3 view .LVU495
 1600              		.loc 1 554 10 is_stmt 0 view .LVU496
 1601 011c 4022     		movs	r2, #64
 1602 011e 0692     		str	r2, [sp, #24]
 1603              		.loc 1 557 10 view .LVU497
 1604 0120 0226     		movs	r6, #2
 1605 0122 A3E7     		b	.L69
 1606              	.LVL133:
 1607              	.L83:
 1608              		.loc 1 595 23 view .LVU498
 1609 0124 1379     		ldrb	r3, [r2, #4]	@ zero_extendqisi2
 1610              		.loc 1 593 11 view .LVU499
 1611 0126 0995     		str	r5, [sp, #36]
 1612              	.LVL134:
 1613              		.loc 1 595 3 is_stmt 1 view .LVU500
 1614 0128 012B     		cmp	r3, #1
 1615 012a C9D1     		bne	.L87
 1616              	.L73:
 1617              		.loc 1 598 7 view .LVU501
 1618              		.loc 1 598 27 is_stmt 0 view .LVU502
 1619 012c 92F80580 		ldrb	r8, [r2, #5]	@ zero_extendqisi2
 1620              	.LVL135:
 1621              		.loc 1 600 7 is_stmt 1 view .LVU503
 1622              		.loc 1 600 10 is_stmt 0 view .LVU504
 1623 0130 3A78     		ldrb	r2, [r7]	@ zero_extendqisi2
 1624              	.LVL136:
 1625              		.loc 1 600 10 view .LVU505
 1626 0132 B242     		cmp	r2, r6
 1627 0134 17D0     		beq	.L76
 1628              		.loc 1 601 9 is_stmt 1 view .LVU506
 1629 0136 0022     		movs	r2, #0
 1630 0138 4146     		mov	r1, r8
 1631 013a 1A20     		movs	r0, #26
 1632 013c 0893     		str	r3, [sp, #32]
 1633 013e FFF7FEFF 		bl	si5351_setupPLL
 1634              	.LVL137:
 1635              		.loc 1 602 9 view .LVU507
 1636 0142 089B     		ldr	r3, [sp, #32]
 1637 0144 0022     		movs	r2, #0
 1638 0146 2021     		movs	r1, #32
 1639 0148 2220     		movs	r0, #34
 1640 014a FFF7FEFF 		bl	si5351_setupPLL
 1641              	.LVL138:
 1642              		.loc 1 603 9 view .LVU508
 1643 014e 0023     		movs	r3, #0
 1644 0150 0193     		str	r3, [sp, #4]
 1645              		.loc 1 603 78 is_stmt 0 view .LVU509
 1646 0152 D9F86420 		ldr	r2, [r9, #100]
 1647              		.loc 1 603 9 view .LVU510
 1648 0156 4649     		ldr	r1, .L88+12
 1649 0158 0091     		str	r1, [sp]
 1650 015a 2021     		movs	r1, #32
 1651 015c 5201     		lsls	r2, r2, #5
 1652 015e 0291     		str	r1, [sp, #8]
 1653 0160 0220     		movs	r0, #2
ARM GAS  C:\msys64\tmp\ccRrRxSP.s 			page 30


 1654 0162 FFF7FEFF 		bl	si5351_set_frequency_fixedpll
 1655              	.LVL139:
 1656              	.L76:
 1657              		.loc 1 605 7 is_stmt 1 view .LVU511
 1658              		.loc 1 607 7 view .LVU512
 1659 0166 099B     		ldr	r3, [sp, #36]
 1660 0168 0293     		str	r3, [sp, #8]
 1661 016a 079B     		ldr	r3, [sp, #28]
 1662 016c CDF800A0 		str	r10, [sp]
 1663 0170 A3FB0823 		umull	r2, r3, r3, r8
 1664 0174 069B     		ldr	r3, [sp, #24]
 1665 0176 0193     		str	r3, [sp, #4]
 1666              		.loc 1 607 75 is_stmt 0 view .LVU513
 1667 0178 D9F86430 		ldr	r3, [r9, #100]
 1668              		.loc 1 607 7 view .LVU514
 1669 017c 0020     		movs	r0, #0
 1670 017e A3FB0223 		umull	r2, r3, r3, r2
 1671 0182 FFF7FEFF 		bl	si5351_set_frequency_fixedpll
 1672              	.LVL140:
 1673              		.loc 1 608 7 is_stmt 1 view .LVU515
 1674 0186 059A     		ldr	r2, [sp, #20]
 1675 0188 0295     		str	r5, [sp, #8]
 1676 018a A8FB0283 		umull	r8, r3, r8, r2
 1677              	.LVL141:
 1678              		.loc 1 608 7 is_stmt 0 view .LVU516
 1679 018e 069B     		ldr	r3, [sp, #24]
 1680 0190 0193     		str	r3, [sp, #4]
 1681              		.loc 1 608 75 view .LVU517
 1682 0192 D9F86420 		ldr	r2, [r9, #100]
 1683              		.loc 1 608 7 view .LVU518
 1684 0196 0094     		str	r4, [sp]
 1685 0198 0120     		movs	r0, #1
 1686 019a A2FB0823 		umull	r2, r3, r2, r8
 1687 019e FFF7FEFF 		bl	si5351_set_frequency_fixedpll
 1688              	.LVL142:
 1689              		.loc 1 609 7 is_stmt 1 view .LVU519
 1690              		.loc 1 605 13 is_stmt 0 view .LVU520
 1691 01a2 0A20     		movs	r0, #10
 1692              		.loc 1 609 7 view .LVU521
 1693 01a4 8FE7     		b	.L75
 1694              	.LVL143:
 1695              	.L74:
 1696              		.loc 1 634 7 is_stmt 1 view .LVU522
 1697              		.loc 1 634 26 is_stmt 0 view .LVU523
 1698 01a6 92F80590 		ldrb	r9, [r2, #5]	@ zero_extendqisi2
 1699              	.LVL144:
 1700              		.loc 1 636 7 is_stmt 1 view .LVU524
 1701              		.loc 1 591 12 is_stmt 0 view .LVU525
 1702 01aa 079B     		ldr	r3, [sp, #28]
 1703 01ac 0093     		str	r3, [sp]
 1704              	.LVL145:
 1705              		.loc 1 636 7 view .LVU526
 1706 01ae 1A20     		movs	r0, #26
 1707 01b0 AAFB0923 		umull	r2, r3, r10, r9
 1708 01b4 FFF7FEFF 		bl	si5351_setupPLL_freq
 1709              	.LVL146:
 1710              		.loc 1 637 7 is_stmt 1 view .LVU527
ARM GAS  C:\msys64\tmp\ccRrRxSP.s 			page 31


 1711 01b8 059B     		ldr	r3, [sp, #20]
 1712 01ba 0093     		str	r3, [sp]
 1713 01bc A9FB043A 		umull	r3, r10, r9, r4
 1714              	.LVL147:
 1715              		.loc 1 637 7 is_stmt 0 view .LVU528
 1716 01c0 1A46     		mov	r2, r3
 1717 01c2 0693     		str	r3, [sp, #24]
 1718 01c4 2220     		movs	r0, #34
 1719 01c6 5346     		mov	r3, r10
 1720 01c8 FFF7FEFF 		bl	si5351_setupPLL_freq
 1721              	.LVL148:
 1722              		.loc 1 639 7 is_stmt 1 view .LVU529
 1723              		.loc 1 639 17 is_stmt 0 view .LVU530
 1724 01cc D8F80020 		ldr	r2, [r8]
 1725              		.loc 1 639 51 view .LVU531
 1726 01d0 089B     		ldr	r3, [sp, #32]
 1727 01d2 1344     		add	r3, r3, r2
 1728              		.loc 1 639 10 view .LVU532
 1729 01d4 5979     		ldrb	r1, [r3, #5]	@ zero_extendqisi2
 1730              		.loc 1 639 17 view .LVU533
 1731 01d6 3B78     		ldrb	r3, [r7]	@ zero_extendqisi2
 1732              		.loc 1 639 31 view .LVU534
 1733 01d8 03EB4303 		add	r3, r3, r3, lsl #1
 1734 01dc 02EB8302 		add	r2, r2, r3, lsl #2
 1735              		.loc 1 639 10 view .LVU535
 1736 01e0 5379     		ldrb	r3, [r2, #5]	@ zero_extendqisi2
 1737 01e2 8B42     		cmp	r3, r1
 1738 01e4 15D0     		beq	.L77
 1739              		.loc 1 640 9 is_stmt 1 view .LVU536
 1740 01e6 4FF00008 		mov	r8, #0
 1741 01ea 099B     		ldr	r3, [sp, #36]
 1742 01ec 0193     		str	r3, [sp, #4]
 1743 01ee 4246     		mov	r2, r8
 1744 01f0 0123     		movs	r3, #1
 1745 01f2 4946     		mov	r1, r9
 1746 01f4 4046     		mov	r0, r8
 1747 01f6 CDF80080 		str	r8, [sp]
 1748 01fa FFF7FEFF 		bl	si5351_setupMultisynth
 1749              	.LVL149:
 1750              		.loc 1 641 9 view .LVU537
 1751 01fe 45F02005 		orr	r5, r5, #32
 1752              	.LVL150:
 1753              		.loc 1 641 9 is_stmt 0 view .LVU538
 1754 0202 0123     		movs	r3, #1
 1755 0204 CDE90085 		strd	r8, r5, [sp]
 1756 0208 4246     		mov	r2, r8
 1757 020a 4946     		mov	r1, r9
 1758 020c 1846     		mov	r0, r3
 1759 020e FFF7FEFF 		bl	si5351_setupMultisynth
 1760              	.LVL151:
 1761              	.L77:
 1762              		.loc 1 644 7 is_stmt 1 view .LVU539
 1763 0212 1749     		ldr	r1, .L88+12
 1764 0214 0598     		ldr	r0, [sp, #20]
 1765 0216 069A     		ldr	r2, [sp, #24]
 1766 0218 01FB00F0 		mul	r0, r1, r0
 1767 021c 0090     		str	r0, [sp]
ARM GAS  C:\msys64\tmp\ccRrRxSP.s 			page 32


 1768 021e 0021     		movs	r1, #0
 1769 0220 2020     		movs	r0, #32
 1770 0222 CDE90110 		strd	r1, r0, [sp, #4]
 1771 0226 5346     		mov	r3, r10
 1772 0228 0220     		movs	r0, #2
 1773 022a FFF7FEFF 		bl	si5351_set_frequency_fixedpll
 1774              	.LVL152:
 1775              		.loc 1 645 7 view .LVU540
 1776              		.loc 1 646 7 view .LVU541
 1777              		.loc 1 645 12 is_stmt 0 view .LVU542
 1778 022e 0C20     		movs	r0, #12
 1779              		.loc 1 646 7 view .LVU543
 1780 0230 49E7     		b	.L75
 1781              	.LVL153:
 1782              	.L68:
 1783              		.loc 1 560 5 is_stmt 1 view .LVU544
 1784 0232 0593     		str	r3, [sp, #20]
 1785              		.loc 1 560 12 is_stmt 0 view .LVU545
 1786 0234 FFF7FEFF 		bl	si5351_get_harmonic_lvl
 1787              	.LVL154:
 1788              		.loc 1 571 21 view .LVU546
 1789 0238 0B4A     		ldr	r2, .L88+4
 1790              		.loc 1 571 6 view .LVU547
 1791 023a 059B     		ldr	r3, [sp, #20]
 1792 023c 1178     		ldrb	r1, [r2]	@ zero_extendqisi2
 1793 023e A942     		cmp	r1, r5
 1794              		.loc 1 560 10 discriminator 1 view .LVU548
 1795 0240 C6B2     		uxtb	r6, r0
 1796              	.LVL155:
 1797              		.loc 1 571 3 is_stmt 1 view .LVU549
 1798              		.loc 1 571 6 is_stmt 0 view .LVU550
 1799 0242 0BD0     		beq	.L81
 1800              		.loc 1 572 5 is_stmt 1 view .LVU551
 1801              	.LBB108:
 1802              		.loc 1 40 13 view .LVU552
 1803              	.LBB103:
 1804              		.loc 1 41 3 view .LVU553
 1805              		.loc 1 41 16 is_stmt 0 view .LVU554
 1806 0244 094F     		ldr	r7, .L88+8
 1807              		.loc 1 42 16 view .LVU555
 1808 0246 DFF834B0 		ldr	fp, .L88+24
 1809              	.LBE103:
 1810              	.LBE108:
 1811              		.loc 1 573 19 view .LVU556
 1812 024a 1570     		strb	r5, [r2]
 1813              	.LBB109:
 1814              	.LBB104:
 1815              		.loc 1 41 16 view .LVU557
 1816 024c 0022     		movs	r2, #0
 1817 024e 3A70     		strb	r2, [r7]
 1818              		.loc 1 42 3 is_stmt 1 view .LVU558
 1819              		.loc 1 42 16 is_stmt 0 view .LVU559
 1820 0250 CBF80020 		str	r2, [fp]
 1821              	.LBE104:
 1822              	.LBE109:
 1823              		.loc 1 573 5 is_stmt 1 view .LVU560
 1824              		.loc 1 576 3 view .LVU561
ARM GAS  C:\msys64\tmp\ccRrRxSP.s 			page 33


 1825              		.loc 1 542 12 is_stmt 0 view .LVU562
 1826 0254 0692     		str	r2, [sp, #24]
 1827 0256 09E7     		b	.L69
 1828              	.LVL156:
 1829              	.L82:
 1830              		.loc 1 577 12 view .LVU563
 1831 0258 0A20     		movs	r0, #10
 1832 025a 47E7     		b	.L63
 1833              	.LVL157:
 1834              	.L81:
 1835              		.loc 1 542 12 view .LVU564
 1836 025c 0022     		movs	r2, #0
 1837 025e 0692     		str	r2, [sp, #24]
 1838 0260 FCE6     		b	.L67
 1839              	.L89:
 1840 0262 00BF     		.align	2
 1841              	.L88:
 1842 0264 40420F00 		.word	1000000
 1843 0268 00000000 		.word	current_power
 1844 026c 00000000 		.word	current_band
 1845 0270 00127A00 		.word	8000000
 1846 0274 00000000 		.word	config
 1847 0278 00000000 		.word	band_s
 1848 027c 00000000 		.word	current_freq
 1849              		.cfi_endproc
 1850              	.LFE258:
 1851              		.size	si5351_set_frequency, .-si5351_set_frequency
 1852              		.section	.text.si5351_set_power,"ax",%progbits
 1853              		.align	1
 1854              		.p2align 4,,15
 1855              		.global	si5351_set_power
 1856              		.syntax unified
 1857              		.thumb
 1858              		.thumb_func
 1859              		.type	si5351_set_power, %function
 1860              	si5351_set_power:
 1861              	.LVL158:
 1862              	.LFB243:
 1863              		.loc 1 88 46 is_stmt 1 view -0
 1864              		.cfi_startproc
 1865              		@ args = 0, pretend = 0, frame = 0
 1866              		@ frame_needed = 0, uses_anonymous_args = 0
 1867              		@ link register save eliminated.
 1868              		.loc 1 89 3 view .LVU566
 1869              		.loc 1 89 22 is_stmt 0 view .LVU567
 1870 0000 044B     		ldr	r3, .L92
 1871              		.loc 1 89 6 view .LVU568
 1872 0002 1B78     		ldrb	r3, [r3]	@ zero_extendqisi2
 1873 0004 8342     		cmp	r3, r0
 1874              		.loc 1 88 46 view .LVU569
 1875 0006 0146     		mov	r1, r0
 1876              		.loc 1 89 6 view .LVU570
 1877 0008 03D0     		beq	.L90
 1878              		.loc 1 90 3 is_stmt 1 view .LVU571
 1879 000a 034B     		ldr	r3, .L92+4
 1880 000c 1868     		ldr	r0, [r3]
 1881              	.LVL159:
ARM GAS  C:\msys64\tmp\ccRrRxSP.s 			page 34


 1882              		.loc 1 90 3 is_stmt 0 view .LVU572
 1883 000e FFF7FEBF 		b	si5351_set_frequency
 1884              	.LVL160:
 1885              	.L90:
 1886              		.loc 1 91 1 view .LVU573
 1887 0012 7047     		bx	lr
 1888              	.L93:
 1889              		.align	2
 1890              	.L92:
 1891 0014 00000000 		.word	current_power
 1892 0018 00000000 		.word	current_freq
 1893              		.cfi_endproc
 1894              	.LFE243:
 1895              		.size	si5351_set_power, .-si5351_set_power
 1896              		.section	.text.si5351_init,"ax",%progbits
 1897              		.align	1
 1898              		.p2align 4,,15
 1899              		.global	si5351_init
 1900              		.syntax unified
 1901              		.thumb
 1902              		.thumb_func
 1903              		.type	si5351_init, %function
 1904              	si5351_init:
 1905              	.LFB246:
 1906              		.loc 1 147 1 is_stmt 1 view -0
 1907              		.cfi_startproc
 1908              		@ args = 0, pretend = 0, frame = 0
 1909              		@ frame_needed = 0, uses_anonymous_args = 0
 1910              		.loc 1 148 3 view .LVU575
 1911              	.LVL161:
 1912              		.loc 1 149 3 view .LVU576
 1913              		.loc 1 149 10 view .LVU577
 1914              		.loc 1 147 1 is_stmt 0 view .LVU578
 1915 0000 38B5     		push	{r3, r4, r5, lr}
 1916              		.cfi_def_cfa_offset 16
 1917              		.cfi_offset 3, -16
 1918              		.cfi_offset 4, -12
 1919              		.cfi_offset 5, -8
 1920              		.cfi_offset 14, -4
 1921              		.loc 1 148 18 view .LVU579
 1922 0002 0B4B     		ldr	r3, .L98
 1923              		.loc 1 149 10 view .LVU580
 1924 0004 0224     		movs	r4, #2
 1925              	.LVL162:
 1926              	.L95:
 1927              	.LBB110:
 1928              		.loc 1 150 5 is_stmt 1 view .LVU581
 1929              		.loc 1 150 21 is_stmt 0 view .LVU582
 1930 0006 5D1C     		adds	r5, r3, #1
 1931              	.LVL163:
 1932              		.loc 1 151 5 is_stmt 1 view .LVU583
 1933 0008 2146     		mov	r1, r4
 1934 000a 2846     		mov	r0, r5
 1935 000c FFF7FEFF 		bl	si5351_bulk_write
 1936              	.LVL164:
 1937              		.loc 1 152 5 view .LVU584
 1938              		.loc 1 152 7 is_stmt 0 view .LVU585
ARM GAS  C:\msys64\tmp\ccRrRxSP.s 			page 35


 1939 0010 2B19     		adds	r3, r5, r4
 1940              	.LVL165:
 1941              		.loc 1 152 7 view .LVU586
 1942              	.LBE110:
 1943              		.loc 1 149 10 is_stmt 1 view .LVU587
 1944 0012 2C5D     		ldrb	r4, [r5, r4]	@ zero_extendqisi2
 1945              	.LVL166:
 1946              		.loc 1 149 10 is_stmt 0 view .LVU588
 1947 0014 002C     		cmp	r4, #0
 1948 0016 F6D1     		bne	.L95
 1949              		.loc 1 154 3 is_stmt 1 view .LVU589
 1950              		.loc 1 154 30 is_stmt 0 view .LVU590
 1951 0018 064B     		ldr	r3, .L98+4
 1952              	.LVL167:
 1953              		.loc 1 154 3 view .LVU591
 1954 001a 93F86C00 		ldrb	r0, [r3, #108]	@ zero_extendqisi2
 1955 001e FFF7FEFF 		bl	si5351_set_band_mode
 1956              	.LVL168:
 1957              		.loc 1 156 3 is_stmt 1 view .LVU592
 1958 0022 2146     		mov	r1, r4
 1959 0024 0448     		ldr	r0, .L98+8
 1960              		.loc 1 157 1 is_stmt 0 view .LVU593
 1961 0026 BDE83840 		pop	{r3, r4, r5, lr}
 1962              		.cfi_restore 14
 1963              		.cfi_restore 5
 1964              		.cfi_restore 4
 1965              		.cfi_restore 3
 1966              		.cfi_def_cfa_offset 0
 1967              		.loc 1 156 3 view .LVU594
 1968 002a FFF7FEBF 		b	si5351_set_frequency
 1969              	.LVL169:
 1970              	.L99:
 1971 002e 00BF     		.align	2
 1972              	.L98:
 1973 0030 00000000 		.word	si5351_configs
 1974 0034 00000000 		.word	config
 1975 0038 80BA8C01 		.word	26000000
 1976              		.cfi_endproc
 1977              	.LFE246:
 1978              		.size	si5351_init, .-si5351_init
 1979              		.section	.rodata.bs.0,"a"
 1980              		.align	2
 1981              		.type	bs.0, %object
 1982              		.size	bs.0, 12
 1983              	bs.0:
 1984 0000 00000000 		.word	band_strategy_H4_SI5351
 1985 0004 00000000 		.word	band_strategy_36H_MS5351
 1986 0008 00000000 		.word	band_strategy_SWC5351
 1987              		.global	band_strategy_SWC5351
 1988              		.section	.rodata.band_strategy_SWC5351,"a"
 1989              		.align	2
 1990              		.type	band_strategy_SWC5351, %object
 1991              		.size	band_strategy_SWC5351, 120
 1992              	band_strategy_SWC5351:
 1993 0000 00000000 		.word	0
 1994 0004 00       		.byte	0
 1995 0005 00       		.byte	0
ARM GAS  C:\msys64\tmp\ccRrRxSP.s 			page 36


 1996 0006 00       		.byte	0
 1997 0007 FF       		.byte	255
 1998 0008 FF       		.byte	-1
 1999 0009 FF       		.byte	-1
 2000 000a 0100     		.short	1
 2001 000c 007D0000 		.word	32000
 2002 0010 01       		.byte	1
 2003 0011 06       		.byte	6
 2004 0012 11       		.byte	17
 2005 0013 13       		.byte	19
 2006 0014 00       		.byte	0
 2007 0015 00       		.byte	0
 2008 0016 0100     		.short	1
 2009 0018 80A4BF07 		.word	130000000
 2010 001c 01       		.byte	1
 2011 001d 28       		.byte	40
 2012 001e 11       		.byte	17
 2013 001f 13       		.byte	19
 2014 0020 00       		.byte	0
 2015 0021 00       		.byte	0
 2016 0022 0100     		.short	1
 2017 0024 01000000 		.word	1
 2018 0028 02       		.byte	2
 2019 0029 04       		.byte	4
 2020 002a 11       		.byte	17
 2021 002b 13       		.byte	19
 2022 002c 00       		.byte	0
 2023 002d 00       		.byte	0
 2024 002e 0100     		.short	1
 2025 0030 002B0C23 		.word	588000000
 2026 0034 02       		.byte	2
 2027 0035 06       		.byte	6
 2028 0036 53       		.byte	83
 2029 0037 13       		.byte	19
 2030 0038 00       		.byte	0
 2031 0039 00       		.byte	0
 2032 003a 3C00     		.short	60
 2033 003c 03000000 		.word	3
 2034 0040 02       		.byte	2
 2035 0041 04       		.byte	4
 2036 0042 53       		.byte	83
 2037 0043 13       		.byte	19
 2038 0044 00       		.byte	0
 2039 0045 00       		.byte	0
 2040 0046 3C00     		.short	60
 2041 0048 05000000 		.word	5
 2042 004c 02       		.byte	2
 2043 004d 04       		.byte	4
 2044 004e 75       		.byte	117
 2045 004f 33       		.byte	51
 2046 0050 00       		.byte	0
 2047 0051 00       		.byte	0
 2048 0052 8C00     		.short	140
 2049 0054 07000000 		.word	7
 2050 0058 02       		.byte	2
 2051 0059 04       		.byte	4
 2052 005a 97       		.byte	151
ARM GAS  C:\msys64\tmp\ccRrRxSP.s 			page 37


 2053 005b 33       		.byte	51
 2054 005c 28       		.byte	40
 2055 005d 28       		.byte	40
 2056 005e FC00     		.short	252
 2057 0060 09000000 		.word	9
 2058 0064 02       		.byte	2
 2059 0065 04       		.byte	4
 2060 0066 B9       		.byte	185
 2061 0067 33       		.byte	51
 2062 0068 28       		.byte	40
 2063 0069 28       		.byte	40
 2064 006a 8C01     		.short	396
 2065 006c 0B000000 		.word	11
 2066 0070 02       		.byte	2
 2067 0071 04       		.byte	4
 2068 0072 DB       		.byte	219
 2069 0073 33       		.byte	51
 2070 0074 28       		.byte	40
 2071 0075 28       		.byte	40
 2072 0076 1002     		.short	528
 2073              		.global	band_strategy_36H_MS5351
 2074              		.section	.rodata.band_strategy_36H_MS5351,"a"
 2075              		.align	2
 2076              		.type	band_strategy_36H_MS5351, %object
 2077              		.size	band_strategy_36H_MS5351, 132
 2078              	band_strategy_36H_MS5351:
 2079 0000 00000000 		.word	0
 2080 0004 00       		.byte	0
 2081 0005 00       		.byte	0
 2082 0006 00       		.byte	0
 2083 0007 FF       		.byte	255
 2084 0008 FF       		.byte	-1
 2085 0009 FF       		.byte	-1
 2086 000a 0100     		.short	1
 2087 000c 90650000 		.word	26000
 2088 0010 01       		.byte	1
 2089 0011 10       		.byte	16
 2090 0012 11       		.byte	17
 2091 0013 00       		.byte	0
 2092 0014 00       		.byte	0
 2093 0015 00       		.byte	0
 2094 0016 0100     		.short	1
 2095 0018 000E2707 		.word	120000000
 2096 001c 01       		.byte	1
 2097 001d 20       		.byte	32
 2098 001e 11       		.byte	17
 2099 001f 00       		.byte	0
 2100 0020 00       		.byte	0
 2101 0021 00       		.byte	0
 2102 0022 0100     		.short	1
 2103 0024 01000000 		.word	1
 2104 0028 02       		.byte	2
 2105 0029 04       		.byte	4
 2106 002a 11       		.byte	17
 2107 002b 11       		.byte	17
 2108 002c 00       		.byte	0
 2109 002d 00       		.byte	0
ARM GAS  C:\msys64\tmp\ccRrRxSP.s 			page 38


 2110 002e 0100     		.short	1
 2111 0030 0084D717 		.word	400000000
 2112 0034 02       		.byte	2
 2113 0035 08       		.byte	8
 2114 0036 53       		.byte	83
 2115 0037 23       		.byte	35
 2116 0038 14       		.byte	20
 2117 0039 14       		.byte	20
 2118 003a 0100     		.short	1
 2119 003c 002B0C23 		.word	588000000
 2120 0040 02       		.byte	2
 2121 0041 06       		.byte	6
 2122 0042 53       		.byte	83
 2123 0043 23       		.byte	35
 2124 0044 14       		.byte	20
 2125 0045 14       		.byte	20
 2126 0046 0100     		.short	1
 2127 0048 03000000 		.word	3
 2128 004c 02       		.byte	2
 2129 004d 04       		.byte	4
 2130 004e 53       		.byte	83
 2131 004f 23       		.byte	35
 2132 0050 1E       		.byte	30
 2133 0051 1E       		.byte	30
 2134 0052 0100     		.short	1
 2135 0054 05000000 		.word	5
 2136 0058 02       		.byte	2
 2137 0059 04       		.byte	4
 2138 005a 75       		.byte	117
 2139 005b 23       		.byte	35
 2140 005c 3C       		.byte	60
 2141 005d 3C       		.byte	60
 2142 005e 0100     		.short	1
 2143 0060 07000000 		.word	7
 2144 0064 02       		.byte	2
 2145 0065 04       		.byte	4
 2146 0066 97       		.byte	151
 2147 0067 33       		.byte	51
 2148 0068 4B       		.byte	75
 2149 0069 4B       		.byte	75
 2150 006a FC00     		.short	252
 2151 006c 09000000 		.word	9
 2152 0070 02       		.byte	2
 2153 0071 04       		.byte	4
 2154 0072 B9       		.byte	185
 2155 0073 33       		.byte	51
 2156 0074 50       		.byte	80
 2157 0075 5A       		.byte	90
 2158 0076 8C01     		.short	396
 2159 0078 0B000000 		.word	11
 2160 007c 02       		.byte	2
 2161 007d 04       		.byte	4
 2162 007e DB       		.byte	219
 2163 007f 33       		.byte	51
 2164 0080 5F       		.byte	95
 2165 0081 5F       		.byte	95
 2166 0082 1002     		.short	528
ARM GAS  C:\msys64\tmp\ccRrRxSP.s 			page 39


 2167              		.global	band_strategy_H4_SI5351
 2168              		.section	.rodata.band_strategy_H4_SI5351,"a"
 2169              		.align	2
 2170              		.type	band_strategy_H4_SI5351, %object
 2171              		.size	band_strategy_H4_SI5351, 192
 2172              	band_strategy_H4_SI5351:
 2173 0000 00000000 		.word	0
 2174 0004 00       		.byte	0
 2175 0005 00       		.byte	0
 2176 0006 00       		.byte	0
 2177 0007 FF       		.byte	255
 2178 0008 FF       		.byte	-1
 2179 0009 FF       		.byte	-1
 2180 000a 0100     		.short	1
 2181 000c 90650000 		.word	26000
 2182 0010 01       		.byte	1
 2183 0011 08       		.byte	8
 2184 0012 11       		.byte	17
 2185 0013 00       		.byte	0
 2186 0014 00       		.byte	0
 2187 0015 00       		.byte	0
 2188 0016 0100     		.short	1
 2189 0018 00E1F505 		.word	100000000
 2190 001c 01       		.byte	1
 2191 001d 20       		.byte	32
 2192 001e 11       		.byte	17
 2193 001f 00       		.byte	0
 2194 0020 00       		.byte	0
 2195 0021 00       		.byte	0
 2196 0022 0100     		.short	1
 2197 0024 80A4BF07 		.word	130000000
 2198 0028 02       		.byte	2
 2199 0029 08       		.byte	8
 2200 002a 11       		.byte	17
 2201 002b 11       		.byte	17
 2202 002c 00       		.byte	0
 2203 002d 00       		.byte	0
 2204 002e 0100     		.short	1
 2205 0030 0095BA0A 		.word	180000000
 2206 0034 02       		.byte	2
 2207 0035 06       		.byte	6
 2208 0036 11       		.byte	17
 2209 0037 11       		.byte	17
 2210 0038 00       		.byte	0
 2211 0039 00       		.byte	0
 2212 003a 0100     		.short	1
 2213 003c 01000000 		.word	1
 2214 0040 02       		.byte	2
 2215 0041 04       		.byte	4
 2216 0042 11       		.byte	17
 2217 0043 11       		.byte	17
 2218 0044 00       		.byte	0
 2219 0045 00       		.byte	0
 2220 0046 0100     		.short	1
 2221 0048 000B6B1B 		.word	460000000
 2222 004c 02       		.byte	2
 2223 004d 06       		.byte	6
ARM GAS  C:\msys64\tmp\ccRrRxSP.s 			page 40


 2224 004e 53       		.byte	83
 2225 004f 11       		.byte	17
 2226 0050 28       		.byte	40
 2227 0051 28       		.byte	40
 2228 0052 3C00     		.short	60
 2229 0054 0046C323 		.word	600000000
 2230 0058 02       		.byte	2
 2231 0059 04       		.byte	4
 2232 005a 53       		.byte	83
 2233 005b 11       		.byte	17
 2234 005c 28       		.byte	40
 2235 005d 28       		.byte	40
 2236 005e 3C00     		.short	60
 2237 0060 03000000 		.word	3
 2238 0064 02       		.byte	2
 2239 0065 04       		.byte	4
 2240 0066 53       		.byte	83
 2241 0067 13       		.byte	19
 2242 0068 32       		.byte	50
 2243 0069 32       		.byte	50
 2244 006a 3C00     		.short	60
 2245 006c 008C8647 		.word	1200000000
 2246 0070 02       		.byte	2
 2247 0071 04       		.byte	4
 2248 0072 75       		.byte	117
 2249 0073 23       		.byte	35
 2250 0074 46       		.byte	70
 2251 0075 46       		.byte	70
 2252 0076 8C00     		.short	140
 2253 0078 05000000 		.word	5
 2254 007c 02       		.byte	2
 2255 007d 04       		.byte	4
 2256 007e 75       		.byte	117
 2257 007f 23       		.byte	35
 2258 0080 46       		.byte	70
 2259 0081 46       		.byte	70
 2260 0082 8C00     		.short	140
 2261 0084 00D2496B 		.word	1800000000
 2262 0088 02       		.byte	2
 2263 0089 04       		.byte	4
 2264 008a 97       		.byte	151
 2265 008b 33       		.byte	51
 2266 008c 46       		.byte	70
 2267 008d 46       		.byte	70
 2268 008e FC00     		.short	252
 2269 0090 07000000 		.word	7
 2270 0094 02       		.byte	2
 2271 0095 04       		.byte	4
 2272 0096 97       		.byte	151
 2273 0097 33       		.byte	51
 2274 0098 46       		.byte	70
 2275 0099 46       		.byte	70
 2276 009a FC00     		.short	252
 2277 009c 00180D8F 		.word	-1894967296
 2278 00a0 02       		.byte	2
 2279 00a1 04       		.byte	4
 2280 00a2 B9       		.byte	185
ARM GAS  C:\msys64\tmp\ccRrRxSP.s 			page 41


 2281 00a3 33       		.byte	51
 2282 00a4 55       		.byte	85
 2283 00a5 55       		.byte	85
 2284 00a6 8C01     		.short	396
 2285 00a8 09000000 		.word	9
 2286 00ac 02       		.byte	2
 2287 00ad 04       		.byte	4
 2288 00ae B9       		.byte	185
 2289 00af 33       		.byte	51
 2290 00b0 5F       		.byte	95
 2291 00b1 5F       		.byte	95
 2292 00b2 8C01     		.short	396
 2293 00b4 0B000000 		.word	11
 2294 00b8 02       		.byte	2
 2295 00b9 04       		.byte	4
 2296 00ba CB       		.byte	203
 2297 00bb 33       		.byte	51
 2298 00bc 5F       		.byte	95
 2299 00bd 5F       		.byte	95
 2300 00be 1002     		.short	528
 2301              		.global	band_strategy_33H_SI5351
 2302              		.section	.rodata.band_strategy_33H_SI5351,"a"
 2303              		.align	2
 2304              		.type	band_strategy_33H_SI5351, %object
 2305              		.size	band_strategy_33H_SI5351, 192
 2306              	band_strategy_33H_SI5351:
 2307 0000 00000000 		.word	0
 2308 0004 00       		.byte	0
 2309 0005 00       		.byte	0
 2310 0006 00       		.byte	0
 2311 0007 FF       		.byte	255
 2312 0008 FF       		.byte	-1
 2313 0009 FF       		.byte	-1
 2314 000a 0100     		.short	1
 2315 000c 90650000 		.word	26000
 2316 0010 01       		.byte	1
 2317 0011 08       		.byte	8
 2318 0012 11       		.byte	17
 2319 0013 00       		.byte	0
 2320 0014 00       		.byte	0
 2321 0015 00       		.byte	0
 2322 0016 0100     		.short	1
 2323 0018 00E1F505 		.word	100000000
 2324 001c 01       		.byte	1
 2325 001d 20       		.byte	32
 2326 001e 11       		.byte	17
 2327 001f 00       		.byte	0
 2328 0020 00       		.byte	0
 2329 0021 00       		.byte	0
 2330 0022 0100     		.short	1
 2331 0024 80A4BF07 		.word	130000000
 2332 0028 02       		.byte	2
 2333 0029 08       		.byte	8
 2334 002a 11       		.byte	17
 2335 002b 23       		.byte	35
 2336 002c 00       		.byte	0
 2337 002d 00       		.byte	0
ARM GAS  C:\msys64\tmp\ccRrRxSP.s 			page 42


 2338 002e 0100     		.short	1
 2339 0030 0095BA0A 		.word	180000000
 2340 0034 02       		.byte	2
 2341 0035 06       		.byte	6
 2342 0036 11       		.byte	17
 2343 0037 23       		.byte	35
 2344 0038 00       		.byte	0
 2345 0039 00       		.byte	0
 2346 003a 0100     		.short	1
 2347 003c 01000000 		.word	1
 2348 0040 02       		.byte	2
 2349 0041 04       		.byte	4
 2350 0042 11       		.byte	17
 2351 0043 23       		.byte	35
 2352 0044 00       		.byte	0
 2353 0045 00       		.byte	0
 2354 0046 0100     		.short	1
 2355 0048 000B6B1B 		.word	460000000
 2356 004c 02       		.byte	2
 2357 004d 06       		.byte	6
 2358 004e 53       		.byte	83
 2359 004f 23       		.byte	35
 2360 0050 28       		.byte	40
 2361 0051 28       		.byte	40
 2362 0052 3C00     		.short	60
 2363 0054 0046C323 		.word	600000000
 2364 0058 02       		.byte	2
 2365 0059 04       		.byte	4
 2366 005a 53       		.byte	83
 2367 005b 23       		.byte	35
 2368 005c 28       		.byte	40
 2369 005d 28       		.byte	40
 2370 005e 3C00     		.short	60
 2371 0060 03000000 		.word	3
 2372 0064 02       		.byte	2
 2373 0065 04       		.byte	4
 2374 0066 53       		.byte	83
 2375 0067 23       		.byte	35
 2376 0068 32       		.byte	50
 2377 0069 32       		.byte	50
 2378 006a 3C00     		.short	60
 2379 006c 008C8647 		.word	1200000000
 2380 0070 02       		.byte	2
 2381 0071 04       		.byte	4
 2382 0072 75       		.byte	117
 2383 0073 23       		.byte	35
 2384 0074 46       		.byte	70
 2385 0075 46       		.byte	70
 2386 0076 8C00     		.short	140
 2387 0078 05000000 		.word	5
 2388 007c 02       		.byte	2
 2389 007d 04       		.byte	4
 2390 007e 75       		.byte	117
 2391 007f 23       		.byte	35
 2392 0080 46       		.byte	70
 2393 0081 46       		.byte	70
 2394 0082 8C00     		.short	140
ARM GAS  C:\msys64\tmp\ccRrRxSP.s 			page 43


 2395 0084 00D2496B 		.word	1800000000
 2396 0088 02       		.byte	2
 2397 0089 04       		.byte	4
 2398 008a 97       		.byte	151
 2399 008b 33       		.byte	51
 2400 008c 46       		.byte	70
 2401 008d 46       		.byte	70
 2402 008e FC00     		.short	252
 2403 0090 07000000 		.word	7
 2404 0094 02       		.byte	2
 2405 0095 04       		.byte	4
 2406 0096 97       		.byte	151
 2407 0097 33       		.byte	51
 2408 0098 46       		.byte	70
 2409 0099 46       		.byte	70
 2410 009a FC00     		.short	252
 2411 009c 00180D8F 		.word	-1894967296
 2412 00a0 02       		.byte	2
 2413 00a1 04       		.byte	4
 2414 00a2 B9       		.byte	185
 2415 00a3 33       		.byte	51
 2416 00a4 55       		.byte	85
 2417 00a5 55       		.byte	85
 2418 00a6 8C01     		.short	396
 2419 00a8 09000000 		.word	9
 2420 00ac 02       		.byte	2
 2421 00ad 04       		.byte	4
 2422 00ae B9       		.byte	185
 2423 00af 33       		.byte	51
 2424 00b0 5F       		.byte	95
 2425 00b1 5F       		.byte	95
 2426 00b2 8C01     		.short	396
 2427 00b4 0B000000 		.word	11
 2428 00b8 02       		.byte	2
 2429 00b9 04       		.byte	4
 2430 00ba CB       		.byte	203
 2431 00bb 33       		.byte	51
 2432 00bc 5F       		.byte	95
 2433 00bd 5F       		.byte	95
 2434 00be 1002     		.short	528
 2435              		.section	.bss.band_s,"aw",%nobits
 2436              		.align	2
 2437              		.type	band_s, %object
 2438              		.size	band_s, 4
 2439              	band_s:
 2440 0000 00000000 		.space	4
 2441              		.section	.rodata.msreg_base,"a"
 2442              		.align	2
 2443              		.type	msreg_base, %object
 2444              		.size	msreg_base, 3
 2445              	msreg_base:
 2446 0000 2A323A   		.ascii	"*2:"
 2447              		.section	.rodata.disable_output,"a"
 2448              		.align	2
 2449              		.type	disable_output, %object
 2450              		.size	disable_output, 4
 2451              	disable_output:
ARM GAS  C:\msys64\tmp\ccRrRxSP.s 			page 44


 2452 0000 10808080 		.ascii	"\020\200\200\200"
 2453              		.global	si5351_configs
 2454              		.section	.rodata.si5351_configs,"a"
 2455              		.align	2
 2456              		.type	si5351_configs, %object
 2457              		.size	si5351_configs, 15
 2458              	si5351_configs:
 2459 0000 0203FF04 		.ascii	"\002\003\377\004\020\200\200\200\002\267@\002\003\370"
 2459      10808080 
 2459      02B74002 
 2459      03F8
 2460 000e 00       		.ascii	"\000"
 2461              		.section	.bss.clk_cache,"aw",%nobits
 2462              		.align	2
 2463              		.type	clk_cache, %object
 2464              		.size	clk_cache, 3
 2465              	clk_cache:
 2466 0000 000000   		.space	3
 2467              		.section	.bss.current_freq,"aw",%nobits
 2468              		.align	2
 2469              		.type	current_freq, %object
 2470              		.size	current_freq, 4
 2471              	current_freq:
 2472 0000 00000000 		.space	4
 2473              		.section	.bss.current_power,"aw",%nobits
 2474              		.type	current_power, %object
 2475              		.size	current_power, 1
 2476              	current_power:
 2477 0000 00       		.space	1
 2478              		.section	.bss.current_band,"aw",%nobits
 2479              		.type	current_band, %object
 2480              		.size	current_band, 1
 2481              	current_band:
 2482 0000 00       		.space	1
 2483              		.text
 2484              	.Letext0:
 2485              		.file 2 "C:/Program Files (x86)/Arm GNU Toolchain arm-none-eabi/14.3 rel1/lib/gcc/arm-none-eabi/14
 2486              		.file 3 "C:/Program Files (x86)/Arm GNU Toolchain arm-none-eabi/14.3 rel1/arm-none-eabi/include/ma
 2487              		.file 4 "C:/Program Files (x86)/Arm GNU Toolchain arm-none-eabi/14.3 rel1/arm-none-eabi/include/sy
 2488              		.file 5 "ChibiOS/os/rt/include/chsystypes.h"
 2489              		.file 6 "nanovna.h"
 2490              		.file 7 "ChibiOS/os/rt/include/chthreads.h"
 2491              		.file 8 "hardware.h"